
lab1.elf:     file format elf32-littleriscv


Disassembly of section .text:

00010094 <exit>:
   10094:	ff010113          	addi	sp,sp,-16
   10098:	00000593          	li	a1,0
   1009c:	00812423          	sw	s0,8(sp)
   100a0:	00112623          	sw	ra,12(sp)
   100a4:	00050413          	mv	s0,a0
   100a8:	5e1000ef          	jal	ra,10e88 <__call_exitprocs>
   100ac:	f181a783          	lw	a5,-232(gp) # 237d8 <__stdio_exit_handler>
   100b0:	00078463          	beqz	a5,100b8 <exit+0x24>
   100b4:	000780e7          	jalr	a5
   100b8:	00040513          	mv	a0,s0
   100bc:	1cd0b0ef          	jal	ra,1ba88 <_exit>

000100c0 <register_fini>:
   100c0:	00000793          	li	a5,0
   100c4:	00078863          	beqz	a5,100d4 <register_fini+0x14>
   100c8:	00007517          	auipc	a0,0x7
   100cc:	98850513          	addi	a0,a0,-1656 # 16a50 <__libc_fini_array>
   100d0:	6d90006f          	j	10fa8 <atexit>
   100d4:	00008067          	ret

000100d8 <_start>:
   100d8:	00013197          	auipc	gp,0x13
   100dc:	7e818193          	addi	gp,gp,2024 # 238c0 <__global_pointer$>
   100e0:	f1818513          	addi	a0,gp,-232 # 237d8 <__stdio_exit_handler>
   100e4:	24418613          	addi	a2,gp,580 # 23b04 <__BSS_END__>
   100e8:	40a60633          	sub	a2,a2,a0
   100ec:	00000593          	li	a1,0
   100f0:	319000ef          	jal	ra,10c08 <memset>
   100f4:	00001517          	auipc	a0,0x1
   100f8:	eb450513          	addi	a0,a0,-332 # 10fa8 <atexit>
   100fc:	00050863          	beqz	a0,1010c <_start+0x34>
   10100:	00007517          	auipc	a0,0x7
   10104:	95050513          	addi	a0,a0,-1712 # 16a50 <__libc_fini_array>
   10108:	6a1000ef          	jal	ra,10fa8 <atexit>
   1010c:	269000ef          	jal	ra,10b74 <__libc_init_array>
   10110:	00012503          	lw	a0,0(sp)
   10114:	00410593          	addi	a1,sp,4
   10118:	00000613          	li	a2,0
   1011c:	180000ef          	jal	ra,1029c <main>
   10120:	f75ff06f          	j	10094 <exit>

00010124 <__do_global_dtors_aux>:
   10124:	ff010113          	addi	sp,sp,-16
   10128:	00812423          	sw	s0,8(sp)
   1012c:	f3818413          	addi	s0,gp,-200 # 237f8 <completed.1>
   10130:	00044783          	lbu	a5,0(s0)
   10134:	00112623          	sw	ra,12(sp)
   10138:	02079263          	bnez	a5,1015c <__do_global_dtors_aux+0x38>
   1013c:	00000793          	li	a5,0
   10140:	00078a63          	beqz	a5,10154 <__do_global_dtors_aux+0x30>
   10144:	00013517          	auipc	a0,0x13
   10148:	ebc50513          	addi	a0,a0,-324 # 23000 <__EH_FRAME_BEGIN__>
   1014c:	00000097          	auipc	ra,0x0
   10150:	000000e7          	jalr	zero # 0 <exit-0x10094>
   10154:	00100793          	li	a5,1
   10158:	00f40023          	sb	a5,0(s0)
   1015c:	00c12083          	lw	ra,12(sp)
   10160:	00812403          	lw	s0,8(sp)
   10164:	01010113          	addi	sp,sp,16
   10168:	00008067          	ret

0001016c <frame_dummy>:
   1016c:	00000793          	li	a5,0
   10170:	00078c63          	beqz	a5,10188 <frame_dummy+0x1c>
   10174:	f3c18593          	addi	a1,gp,-196 # 237fc <object.0>
   10178:	00013517          	auipc	a0,0x13
   1017c:	e8850513          	addi	a0,a0,-376 # 23000 <__EH_FRAME_BEGIN__>
   10180:	00000317          	auipc	t1,0x0
   10184:	00000067          	jr	zero # 0 <exit-0x10094>
   10188:	00008067          	ret

0001018c <countPositiveAndNegative>:
   1018c:	fd010113          	addi	sp,sp,-48
   10190:	02812623          	sw	s0,44(sp)
   10194:	03010413          	addi	s0,sp,48
   10198:	fca42e23          	sw	a0,-36(s0)
   1019c:	fcb42c23          	sw	a1,-40(s0)
   101a0:	fcc42a23          	sw	a2,-44(s0)
   101a4:	fd842783          	lw	a5,-40(s0)
   101a8:	0007a023          	sw	zero,0(a5)
   101ac:	fd442783          	lw	a5,-44(s0)
   101b0:	0007a023          	sw	zero,0(a5)
   101b4:	fe042623          	sw	zero,-20(s0)
   101b8:	0c40006f          	j	1027c <countPositiveAndNegative+0xf0>
   101bc:	fe042423          	sw	zero,-24(s0)
   101c0:	0a40006f          	j	10264 <countPositiveAndNegative+0xd8>
   101c4:	fec42703          	lw	a4,-20(s0)
   101c8:	00070793          	mv	a5,a4
   101cc:	00279793          	slli	a5,a5,0x2
   101d0:	00e787b3          	add	a5,a5,a4
   101d4:	00279793          	slli	a5,a5,0x2
   101d8:	00078713          	mv	a4,a5
   101dc:	fdc42783          	lw	a5,-36(s0)
   101e0:	00e78733          	add	a4,a5,a4
   101e4:	fe842783          	lw	a5,-24(s0)
   101e8:	00279793          	slli	a5,a5,0x2
   101ec:	00f707b3          	add	a5,a4,a5
   101f0:	0007a783          	lw	a5,0(a5)
   101f4:	00f05e63          	blez	a5,10210 <countPositiveAndNegative+0x84>
   101f8:	fd842783          	lw	a5,-40(s0)
   101fc:	0007a783          	lw	a5,0(a5)
   10200:	00178713          	addi	a4,a5,1
   10204:	fd842783          	lw	a5,-40(s0)
   10208:	00e7a023          	sw	a4,0(a5)
   1020c:	04c0006f          	j	10258 <countPositiveAndNegative+0xcc>
   10210:	fec42703          	lw	a4,-20(s0)
   10214:	00070793          	mv	a5,a4
   10218:	00279793          	slli	a5,a5,0x2
   1021c:	00e787b3          	add	a5,a5,a4
   10220:	00279793          	slli	a5,a5,0x2
   10224:	00078713          	mv	a4,a5
   10228:	fdc42783          	lw	a5,-36(s0)
   1022c:	00e78733          	add	a4,a5,a4
   10230:	fe842783          	lw	a5,-24(s0)
   10234:	00279793          	slli	a5,a5,0x2
   10238:	00f707b3          	add	a5,a4,a5
   1023c:	0007a783          	lw	a5,0(a5)
   10240:	0007dc63          	bgez	a5,10258 <countPositiveAndNegative+0xcc>
   10244:	fd442783          	lw	a5,-44(s0)
   10248:	0007a783          	lw	a5,0(a5)
   1024c:	00178713          	addi	a4,a5,1
   10250:	fd442783          	lw	a5,-44(s0)
   10254:	00e7a023          	sw	a4,0(a5)
   10258:	fe842783          	lw	a5,-24(s0)
   1025c:	00178793          	addi	a5,a5,1
   10260:	fef42423          	sw	a5,-24(s0)
   10264:	fe842703          	lw	a4,-24(s0)
   10268:	00400793          	li	a5,4
   1026c:	f4e7dce3          	bge	a5,a4,101c4 <countPositiveAndNegative+0x38>
   10270:	fec42783          	lw	a5,-20(s0)
   10274:	00178793          	addi	a5,a5,1
   10278:	fef42623          	sw	a5,-20(s0)
   1027c:	fec42703          	lw	a4,-20(s0)
   10280:	00500793          	li	a5,5
   10284:	f2e7dce3          	bge	a5,a4,101bc <countPositiveAndNegative+0x30>
   10288:	00000013          	nop
   1028c:	00000013          	nop
   10290:	02c12403          	lw	s0,44(sp)
   10294:	03010113          	addi	sp,sp,48
   10298:	00008067          	ret

0001029c <main>:
   1029c:	f7010113          	addi	sp,sp,-144
   102a0:	08112623          	sw	ra,140(sp)
   102a4:	08812423          	sw	s0,136(sp)
   102a8:	09010413          	addi	s0,sp,144
   102ac:	000227b7          	lui	a5,0x22
   102b0:	df078713          	addi	a4,a5,-528 # 21df0 <__clzsi2+0xd8>
   102b4:	f7840793          	addi	a5,s0,-136
   102b8:	00070693          	mv	a3,a4
   102bc:	07800713          	li	a4,120
   102c0:	00070613          	mv	a2,a4
   102c4:	00068593          	mv	a1,a3
   102c8:	00078513          	mv	a0,a5
   102cc:	219000ef          	jal	ra,10ce4 <memcpy>
   102d0:	f7040693          	addi	a3,s0,-144
   102d4:	f7440713          	addi	a4,s0,-140
   102d8:	f7840793          	addi	a5,s0,-136
   102dc:	00068613          	mv	a2,a3
   102e0:	00070593          	mv	a1,a4
   102e4:	00078513          	mv	a0,a5
   102e8:	ea5ff0ef          	jal	ra,1018c <countPositiveAndNegative>
   102ec:	f7442783          	lw	a5,-140(s0)
   102f0:	00078593          	mv	a1,a5
   102f4:	000227b7          	lui	a5,0x22
   102f8:	d7078513          	addi	a0,a5,-656 # 21d70 <__clzsi2+0x58>
   102fc:	48c000ef          	jal	ra,10788 <printf>
   10300:	f7042783          	lw	a5,-144(s0)
   10304:	00078593          	mv	a1,a5
   10308:	000227b7          	lui	a5,0x22
   1030c:	db078513          	addi	a0,a5,-592 # 21db0 <__clzsi2+0x98>
   10310:	478000ef          	jal	ra,10788 <printf>
   10314:	00000793          	li	a5,0
   10318:	00078513          	mv	a0,a5
   1031c:	08c12083          	lw	ra,140(sp)
   10320:	08812403          	lw	s0,136(sp)
   10324:	09010113          	addi	sp,sp,144
   10328:	00008067          	ret

0001032c <__fp_lock>:
   1032c:	00000513          	li	a0,0
   10330:	00008067          	ret

00010334 <stdio_exit_handler>:
   10334:	00013617          	auipc	a2,0x13
   10338:	d8c60613          	addi	a2,a2,-628 # 230c0 <__sglue>
   1033c:	00006597          	auipc	a1,0x6
   10340:	88458593          	addi	a1,a1,-1916 # 15bc0 <_fclose_r>
   10344:	00013517          	auipc	a0,0x13
   10348:	d8c50513          	addi	a0,a0,-628 # 230d0 <_impure_data>
   1034c:	3480006f          	j	10694 <_fwalk_sglue>

00010350 <cleanup_stdio>:
   10350:	00452583          	lw	a1,4(a0)
   10354:	ff010113          	addi	sp,sp,-16
   10358:	00812423          	sw	s0,8(sp)
   1035c:	00112623          	sw	ra,12(sp)
   10360:	f5418793          	addi	a5,gp,-172 # 23814 <__sf>
   10364:	00050413          	mv	s0,a0
   10368:	00f58463          	beq	a1,a5,10370 <cleanup_stdio+0x20>
   1036c:	055050ef          	jal	ra,15bc0 <_fclose_r>
   10370:	00842583          	lw	a1,8(s0)
   10374:	fbc18793          	addi	a5,gp,-68 # 2387c <__sf+0x68>
   10378:	00f58663          	beq	a1,a5,10384 <cleanup_stdio+0x34>
   1037c:	00040513          	mv	a0,s0
   10380:	041050ef          	jal	ra,15bc0 <_fclose_r>
   10384:	00c42583          	lw	a1,12(s0)
   10388:	02418793          	addi	a5,gp,36 # 238e4 <__global_pointer$+0x24>
   1038c:	00f58c63          	beq	a1,a5,103a4 <cleanup_stdio+0x54>
   10390:	00040513          	mv	a0,s0
   10394:	00812403          	lw	s0,8(sp)
   10398:	00c12083          	lw	ra,12(sp)
   1039c:	01010113          	addi	sp,sp,16
   103a0:	0210506f          	j	15bc0 <_fclose_r>
   103a4:	00c12083          	lw	ra,12(sp)
   103a8:	00812403          	lw	s0,8(sp)
   103ac:	01010113          	addi	sp,sp,16
   103b0:	00008067          	ret

000103b4 <__fp_unlock>:
   103b4:	00000513          	li	a0,0
   103b8:	00008067          	ret

000103bc <global_stdio_init.part.0>:
   103bc:	fe010113          	addi	sp,sp,-32
   103c0:	00000797          	auipc	a5,0x0
   103c4:	f7478793          	addi	a5,a5,-140 # 10334 <stdio_exit_handler>
   103c8:	00112e23          	sw	ra,28(sp)
   103cc:	00812c23          	sw	s0,24(sp)
   103d0:	00912a23          	sw	s1,20(sp)
   103d4:	f5418413          	addi	s0,gp,-172 # 23814 <__sf>
   103d8:	01212823          	sw	s2,16(sp)
   103dc:	01312623          	sw	s3,12(sp)
   103e0:	01412423          	sw	s4,8(sp)
   103e4:	00800613          	li	a2,8
   103e8:	00000593          	li	a1,0
   103ec:	f0f1ac23          	sw	a5,-232(gp) # 237d8 <__stdio_exit_handler>
   103f0:	fb018513          	addi	a0,gp,-80 # 23870 <__sf+0x5c>
   103f4:	00400793          	li	a5,4
   103f8:	00f42623          	sw	a5,12(s0)
   103fc:	00042023          	sw	zero,0(s0)
   10400:	00042223          	sw	zero,4(s0)
   10404:	00042423          	sw	zero,8(s0)
   10408:	06042223          	sw	zero,100(s0)
   1040c:	00042823          	sw	zero,16(s0)
   10410:	00042a23          	sw	zero,20(s0)
   10414:	00042c23          	sw	zero,24(s0)
   10418:	7f0000ef          	jal	ra,10c08 <memset>
   1041c:	000107b7          	lui	a5,0x10
   10420:	00000a17          	auipc	s4,0x0
   10424:	3b4a0a13          	addi	s4,s4,948 # 107d4 <__sread>
   10428:	00000997          	auipc	s3,0x0
   1042c:	41098993          	addi	s3,s3,1040 # 10838 <__swrite>
   10430:	00000917          	auipc	s2,0x0
   10434:	49090913          	addi	s2,s2,1168 # 108c0 <__sseek>
   10438:	00000497          	auipc	s1,0x0
   1043c:	50048493          	addi	s1,s1,1280 # 10938 <__sclose>
   10440:	00978793          	addi	a5,a5,9 # 10009 <exit-0x8b>
   10444:	00800613          	li	a2,8
   10448:	00000593          	li	a1,0
   1044c:	01818513          	addi	a0,gp,24 # 238d8 <__global_pointer$+0x18>
   10450:	03442023          	sw	s4,32(s0)
   10454:	03342223          	sw	s3,36(s0)
   10458:	03242423          	sw	s2,40(s0)
   1045c:	02942623          	sw	s1,44(s0)
   10460:	06f42a23          	sw	a5,116(s0)
   10464:	00842e23          	sw	s0,28(s0)
   10468:	06042423          	sw	zero,104(s0)
   1046c:	06042623          	sw	zero,108(s0)
   10470:	06042823          	sw	zero,112(s0)
   10474:	0c042623          	sw	zero,204(s0)
   10478:	06042c23          	sw	zero,120(s0)
   1047c:	06042e23          	sw	zero,124(s0)
   10480:	08042023          	sw	zero,128(s0)
   10484:	784000ef          	jal	ra,10c08 <memset>
   10488:	fbc18793          	addi	a5,gp,-68 # 2387c <__sf+0x68>
   1048c:	08f42223          	sw	a5,132(s0)
   10490:	000207b7          	lui	a5,0x20
   10494:	01278793          	addi	a5,a5,18 # 20012 <__multf3+0x11ce>
   10498:	00800613          	li	a2,8
   1049c:	00000593          	li	a1,0
   104a0:	08018513          	addi	a0,gp,128 # 23940 <__global_pointer$+0x80>
   104a4:	09442423          	sw	s4,136(s0)
   104a8:	09342623          	sw	s3,140(s0)
   104ac:	09242823          	sw	s2,144(s0)
   104b0:	08942a23          	sw	s1,148(s0)
   104b4:	0cf42e23          	sw	a5,220(s0)
   104b8:	0c042823          	sw	zero,208(s0)
   104bc:	0c042a23          	sw	zero,212(s0)
   104c0:	0c042c23          	sw	zero,216(s0)
   104c4:	12042a23          	sw	zero,308(s0)
   104c8:	0e042023          	sw	zero,224(s0)
   104cc:	0e042223          	sw	zero,228(s0)
   104d0:	0e042423          	sw	zero,232(s0)
   104d4:	734000ef          	jal	ra,10c08 <memset>
   104d8:	02418793          	addi	a5,gp,36 # 238e4 <__global_pointer$+0x24>
   104dc:	0f442823          	sw	s4,240(s0)
   104e0:	0f342a23          	sw	s3,244(s0)
   104e4:	0f242c23          	sw	s2,248(s0)
   104e8:	0e942e23          	sw	s1,252(s0)
   104ec:	01c12083          	lw	ra,28(sp)
   104f0:	0ef42623          	sw	a5,236(s0)
   104f4:	01812403          	lw	s0,24(sp)
   104f8:	01412483          	lw	s1,20(sp)
   104fc:	01012903          	lw	s2,16(sp)
   10500:	00c12983          	lw	s3,12(sp)
   10504:	00812a03          	lw	s4,8(sp)
   10508:	02010113          	addi	sp,sp,32
   1050c:	00008067          	ret

00010510 <__sfp>:
   10510:	fe010113          	addi	sp,sp,-32
   10514:	01312623          	sw	s3,12(sp)
   10518:	00112e23          	sw	ra,28(sp)
   1051c:	00812c23          	sw	s0,24(sp)
   10520:	00912a23          	sw	s1,20(sp)
   10524:	01212823          	sw	s2,16(sp)
   10528:	f181a783          	lw	a5,-232(gp) # 237d8 <__stdio_exit_handler>
   1052c:	00050993          	mv	s3,a0
   10530:	0e078863          	beqz	a5,10620 <__sfp+0x110>
   10534:	00013917          	auipc	s2,0x13
   10538:	b8c90913          	addi	s2,s2,-1140 # 230c0 <__sglue>
   1053c:	fff00493          	li	s1,-1
   10540:	00492783          	lw	a5,4(s2)
   10544:	00892403          	lw	s0,8(s2)
   10548:	fff78793          	addi	a5,a5,-1
   1054c:	0007d863          	bgez	a5,1055c <__sfp+0x4c>
   10550:	0800006f          	j	105d0 <__sfp+0xc0>
   10554:	06840413          	addi	s0,s0,104
   10558:	06978c63          	beq	a5,s1,105d0 <__sfp+0xc0>
   1055c:	00c41703          	lh	a4,12(s0)
   10560:	fff78793          	addi	a5,a5,-1
   10564:	fe0718e3          	bnez	a4,10554 <__sfp+0x44>
   10568:	ffff07b7          	lui	a5,0xffff0
   1056c:	00178793          	addi	a5,a5,1 # ffff0001 <__BSS_END__+0xfffcc4fd>
   10570:	00f42623          	sw	a5,12(s0)
   10574:	06042223          	sw	zero,100(s0)
   10578:	00042023          	sw	zero,0(s0)
   1057c:	00042423          	sw	zero,8(s0)
   10580:	00042223          	sw	zero,4(s0)
   10584:	00042823          	sw	zero,16(s0)
   10588:	00042a23          	sw	zero,20(s0)
   1058c:	00042c23          	sw	zero,24(s0)
   10590:	00800613          	li	a2,8
   10594:	00000593          	li	a1,0
   10598:	05c40513          	addi	a0,s0,92
   1059c:	66c000ef          	jal	ra,10c08 <memset>
   105a0:	02042823          	sw	zero,48(s0)
   105a4:	02042a23          	sw	zero,52(s0)
   105a8:	04042223          	sw	zero,68(s0)
   105ac:	04042423          	sw	zero,72(s0)
   105b0:	01c12083          	lw	ra,28(sp)
   105b4:	00040513          	mv	a0,s0
   105b8:	01812403          	lw	s0,24(sp)
   105bc:	01412483          	lw	s1,20(sp)
   105c0:	01012903          	lw	s2,16(sp)
   105c4:	00c12983          	lw	s3,12(sp)
   105c8:	02010113          	addi	sp,sp,32
   105cc:	00008067          	ret
   105d0:	00092403          	lw	s0,0(s2)
   105d4:	00040663          	beqz	s0,105e0 <__sfp+0xd0>
   105d8:	00040913          	mv	s2,s0
   105dc:	f65ff06f          	j	10540 <__sfp+0x30>
   105e0:	1ac00593          	li	a1,428
   105e4:	00098513          	mv	a0,s3
   105e8:	60d000ef          	jal	ra,113f4 <_malloc_r>
   105ec:	00050413          	mv	s0,a0
   105f0:	02050c63          	beqz	a0,10628 <__sfp+0x118>
   105f4:	00c50513          	addi	a0,a0,12
   105f8:	00400793          	li	a5,4
   105fc:	00042023          	sw	zero,0(s0)
   10600:	00f42223          	sw	a5,4(s0)
   10604:	00a42423          	sw	a0,8(s0)
   10608:	1a000613          	li	a2,416
   1060c:	00000593          	li	a1,0
   10610:	5f8000ef          	jal	ra,10c08 <memset>
   10614:	00892023          	sw	s0,0(s2)
   10618:	00040913          	mv	s2,s0
   1061c:	f25ff06f          	j	10540 <__sfp+0x30>
   10620:	d9dff0ef          	jal	ra,103bc <global_stdio_init.part.0>
   10624:	f11ff06f          	j	10534 <__sfp+0x24>
   10628:	00092023          	sw	zero,0(s2)
   1062c:	00c00793          	li	a5,12
   10630:	00f9a023          	sw	a5,0(s3)
   10634:	f7dff06f          	j	105b0 <__sfp+0xa0>

00010638 <__sinit>:
   10638:	03452783          	lw	a5,52(a0)
   1063c:	00078463          	beqz	a5,10644 <__sinit+0xc>
   10640:	00008067          	ret
   10644:	00000797          	auipc	a5,0x0
   10648:	d0c78793          	addi	a5,a5,-756 # 10350 <cleanup_stdio>
   1064c:	02f52a23          	sw	a5,52(a0)
   10650:	f181a783          	lw	a5,-232(gp) # 237d8 <__stdio_exit_handler>
   10654:	fe0796e3          	bnez	a5,10640 <__sinit+0x8>
   10658:	d65ff06f          	j	103bc <global_stdio_init.part.0>

0001065c <__sfp_lock_acquire>:
   1065c:	00008067          	ret

00010660 <__sfp_lock_release>:
   10660:	00008067          	ret

00010664 <__fp_lock_all>:
   10664:	00013617          	auipc	a2,0x13
   10668:	a5c60613          	addi	a2,a2,-1444 # 230c0 <__sglue>
   1066c:	00000597          	auipc	a1,0x0
   10670:	cc058593          	addi	a1,a1,-832 # 1032c <__fp_lock>
   10674:	00000513          	li	a0,0
   10678:	01c0006f          	j	10694 <_fwalk_sglue>

0001067c <__fp_unlock_all>:
   1067c:	00013617          	auipc	a2,0x13
   10680:	a4460613          	addi	a2,a2,-1468 # 230c0 <__sglue>
   10684:	00000597          	auipc	a1,0x0
   10688:	d3058593          	addi	a1,a1,-720 # 103b4 <__fp_unlock>
   1068c:	00000513          	li	a0,0
   10690:	0040006f          	j	10694 <_fwalk_sglue>

00010694 <_fwalk_sglue>:
   10694:	fd010113          	addi	sp,sp,-48
   10698:	03212023          	sw	s2,32(sp)
   1069c:	01312e23          	sw	s3,28(sp)
   106a0:	01412c23          	sw	s4,24(sp)
   106a4:	01512a23          	sw	s5,20(sp)
   106a8:	01612823          	sw	s6,16(sp)
   106ac:	01712623          	sw	s7,12(sp)
   106b0:	02112623          	sw	ra,44(sp)
   106b4:	02812423          	sw	s0,40(sp)
   106b8:	02912223          	sw	s1,36(sp)
   106bc:	00050b13          	mv	s6,a0
   106c0:	00058b93          	mv	s7,a1
   106c4:	00060a93          	mv	s5,a2
   106c8:	00000a13          	li	s4,0
   106cc:	00100993          	li	s3,1
   106d0:	fff00913          	li	s2,-1
   106d4:	004aa483          	lw	s1,4(s5)
   106d8:	008aa403          	lw	s0,8(s5)
   106dc:	fff48493          	addi	s1,s1,-1
   106e0:	0204c863          	bltz	s1,10710 <_fwalk_sglue+0x7c>
   106e4:	00c45783          	lhu	a5,12(s0)
   106e8:	fff48493          	addi	s1,s1,-1
   106ec:	00f9fe63          	bgeu	s3,a5,10708 <_fwalk_sglue+0x74>
   106f0:	00e41783          	lh	a5,14(s0)
   106f4:	00040593          	mv	a1,s0
   106f8:	000b0513          	mv	a0,s6
   106fc:	01278663          	beq	a5,s2,10708 <_fwalk_sglue+0x74>
   10700:	000b80e7          	jalr	s7
   10704:	00aa6a33          	or	s4,s4,a0
   10708:	06840413          	addi	s0,s0,104
   1070c:	fd249ce3          	bne	s1,s2,106e4 <_fwalk_sglue+0x50>
   10710:	000aaa83          	lw	s5,0(s5)
   10714:	fc0a90e3          	bnez	s5,106d4 <_fwalk_sglue+0x40>
   10718:	02c12083          	lw	ra,44(sp)
   1071c:	02812403          	lw	s0,40(sp)
   10720:	02412483          	lw	s1,36(sp)
   10724:	02012903          	lw	s2,32(sp)
   10728:	01c12983          	lw	s3,28(sp)
   1072c:	01412a83          	lw	s5,20(sp)
   10730:	01012b03          	lw	s6,16(sp)
   10734:	00c12b83          	lw	s7,12(sp)
   10738:	000a0513          	mv	a0,s4
   1073c:	01812a03          	lw	s4,24(sp)
   10740:	03010113          	addi	sp,sp,48
   10744:	00008067          	ret

00010748 <_printf_r>:
   10748:	fc010113          	addi	sp,sp,-64
   1074c:	02c12423          	sw	a2,40(sp)
   10750:	02d12623          	sw	a3,44(sp)
   10754:	02e12823          	sw	a4,48(sp)
   10758:	02f12a23          	sw	a5,52(sp)
   1075c:	03012c23          	sw	a6,56(sp)
   10760:	03112e23          	sw	a7,60(sp)
   10764:	00058613          	mv	a2,a1
   10768:	00852583          	lw	a1,8(a0)
   1076c:	02810693          	addi	a3,sp,40
   10770:	00112e23          	sw	ra,28(sp)
   10774:	00d12623          	sw	a3,12(sp)
   10778:	410010ef          	jal	ra,11b88 <_vfprintf_r>
   1077c:	01c12083          	lw	ra,28(sp)
   10780:	04010113          	addi	sp,sp,64
   10784:	00008067          	ret

00010788 <printf>:
   10788:	fc010113          	addi	sp,sp,-64
   1078c:	02c12423          	sw	a2,40(sp)
   10790:	02d12623          	sw	a3,44(sp)
   10794:	f0c1a303          	lw	t1,-244(gp) # 237cc <_impure_ptr>
   10798:	02b12223          	sw	a1,36(sp)
   1079c:	02e12823          	sw	a4,48(sp)
   107a0:	02f12a23          	sw	a5,52(sp)
   107a4:	03012c23          	sw	a6,56(sp)
   107a8:	03112e23          	sw	a7,60(sp)
   107ac:	00832583          	lw	a1,8(t1) # 10188 <frame_dummy+0x1c>
   107b0:	02410693          	addi	a3,sp,36
   107b4:	00050613          	mv	a2,a0
   107b8:	00030513          	mv	a0,t1
   107bc:	00112e23          	sw	ra,28(sp)
   107c0:	00d12623          	sw	a3,12(sp)
   107c4:	3c4010ef          	jal	ra,11b88 <_vfprintf_r>
   107c8:	01c12083          	lw	ra,28(sp)
   107cc:	04010113          	addi	sp,sp,64
   107d0:	00008067          	ret

000107d4 <__sread>:
   107d4:	ff010113          	addi	sp,sp,-16
   107d8:	00812423          	sw	s0,8(sp)
   107dc:	00058413          	mv	s0,a1
   107e0:	00e59583          	lh	a1,14(a1)
   107e4:	00112623          	sw	ra,12(sp)
   107e8:	2d4000ef          	jal	ra,10abc <_read_r>
   107ec:	02054063          	bltz	a0,1080c <__sread+0x38>
   107f0:	05042783          	lw	a5,80(s0)
   107f4:	00c12083          	lw	ra,12(sp)
   107f8:	00a787b3          	add	a5,a5,a0
   107fc:	04f42823          	sw	a5,80(s0)
   10800:	00812403          	lw	s0,8(sp)
   10804:	01010113          	addi	sp,sp,16
   10808:	00008067          	ret
   1080c:	00c45783          	lhu	a5,12(s0)
   10810:	fffff737          	lui	a4,0xfffff
   10814:	fff70713          	addi	a4,a4,-1 # ffffefff <__BSS_END__+0xfffdb4fb>
   10818:	00e7f7b3          	and	a5,a5,a4
   1081c:	00c12083          	lw	ra,12(sp)
   10820:	00f41623          	sh	a5,12(s0)
   10824:	00812403          	lw	s0,8(sp)
   10828:	01010113          	addi	sp,sp,16
   1082c:	00008067          	ret

00010830 <__seofread>:
   10830:	00000513          	li	a0,0
   10834:	00008067          	ret

00010838 <__swrite>:
   10838:	00c59783          	lh	a5,12(a1)
   1083c:	fe010113          	addi	sp,sp,-32
   10840:	00812c23          	sw	s0,24(sp)
   10844:	00912a23          	sw	s1,20(sp)
   10848:	01212823          	sw	s2,16(sp)
   1084c:	01312623          	sw	s3,12(sp)
   10850:	00112e23          	sw	ra,28(sp)
   10854:	1007f713          	andi	a4,a5,256
   10858:	00058413          	mv	s0,a1
   1085c:	00050493          	mv	s1,a0
   10860:	00060913          	mv	s2,a2
   10864:	00068993          	mv	s3,a3
   10868:	04071063          	bnez	a4,108a8 <__swrite+0x70>
   1086c:	fffff737          	lui	a4,0xfffff
   10870:	fff70713          	addi	a4,a4,-1 # ffffefff <__BSS_END__+0xfffdb4fb>
   10874:	00e7f7b3          	and	a5,a5,a4
   10878:	00e41583          	lh	a1,14(s0)
   1087c:	00f41623          	sh	a5,12(s0)
   10880:	01812403          	lw	s0,24(sp)
   10884:	01c12083          	lw	ra,28(sp)
   10888:	00098693          	mv	a3,s3
   1088c:	00090613          	mv	a2,s2
   10890:	00c12983          	lw	s3,12(sp)
   10894:	01012903          	lw	s2,16(sp)
   10898:	00048513          	mv	a0,s1
   1089c:	01412483          	lw	s1,20(sp)
   108a0:	02010113          	addi	sp,sp,32
   108a4:	2740006f          	j	10b18 <_write_r>
   108a8:	00e59583          	lh	a1,14(a1)
   108ac:	00200693          	li	a3,2
   108b0:	00000613          	li	a2,0
   108b4:	1ac000ef          	jal	ra,10a60 <_lseek_r>
   108b8:	00c41783          	lh	a5,12(s0)
   108bc:	fb1ff06f          	j	1086c <__swrite+0x34>

000108c0 <__sseek>:
   108c0:	ff010113          	addi	sp,sp,-16
   108c4:	00812423          	sw	s0,8(sp)
   108c8:	00058413          	mv	s0,a1
   108cc:	00e59583          	lh	a1,14(a1)
   108d0:	00112623          	sw	ra,12(sp)
   108d4:	18c000ef          	jal	ra,10a60 <_lseek_r>
   108d8:	fff00793          	li	a5,-1
   108dc:	02f50863          	beq	a0,a5,1090c <__sseek+0x4c>
   108e0:	00c45783          	lhu	a5,12(s0)
   108e4:	00001737          	lui	a4,0x1
   108e8:	00c12083          	lw	ra,12(sp)
   108ec:	00e7e7b3          	or	a5,a5,a4
   108f0:	01079793          	slli	a5,a5,0x10
   108f4:	4107d793          	srai	a5,a5,0x10
   108f8:	04a42823          	sw	a0,80(s0)
   108fc:	00f41623          	sh	a5,12(s0)
   10900:	00812403          	lw	s0,8(sp)
   10904:	01010113          	addi	sp,sp,16
   10908:	00008067          	ret
   1090c:	00c45783          	lhu	a5,12(s0)
   10910:	fffff737          	lui	a4,0xfffff
   10914:	fff70713          	addi	a4,a4,-1 # ffffefff <__BSS_END__+0xfffdb4fb>
   10918:	00e7f7b3          	and	a5,a5,a4
   1091c:	01079793          	slli	a5,a5,0x10
   10920:	4107d793          	srai	a5,a5,0x10
   10924:	00c12083          	lw	ra,12(sp)
   10928:	00f41623          	sh	a5,12(s0)
   1092c:	00812403          	lw	s0,8(sp)
   10930:	01010113          	addi	sp,sp,16
   10934:	00008067          	ret

00010938 <__sclose>:
   10938:	00e59583          	lh	a1,14(a1)
   1093c:	0040006f          	j	10940 <_close_r>

00010940 <_close_r>:
   10940:	ff010113          	addi	sp,sp,-16
   10944:	00812423          	sw	s0,8(sp)
   10948:	00050413          	mv	s0,a0
   1094c:	00058513          	mv	a0,a1
   10950:	f001ae23          	sw	zero,-228(gp) # 237dc <errno>
   10954:	00112623          	sw	ra,12(sp)
   10958:	0ec0b0ef          	jal	ra,1ba44 <_close>
   1095c:	fff00793          	li	a5,-1
   10960:	00f50a63          	beq	a0,a5,10974 <_close_r+0x34>
   10964:	00c12083          	lw	ra,12(sp)
   10968:	00812403          	lw	s0,8(sp)
   1096c:	01010113          	addi	sp,sp,16
   10970:	00008067          	ret
   10974:	f1c1a783          	lw	a5,-228(gp) # 237dc <errno>
   10978:	fe0786e3          	beqz	a5,10964 <_close_r+0x24>
   1097c:	00c12083          	lw	ra,12(sp)
   10980:	00f42023          	sw	a5,0(s0)
   10984:	00812403          	lw	s0,8(sp)
   10988:	01010113          	addi	sp,sp,16
   1098c:	00008067          	ret

00010990 <_reclaim_reent>:
   10990:	f0c1a783          	lw	a5,-244(gp) # 237cc <_impure_ptr>
   10994:	0ca78463          	beq	a5,a0,10a5c <_reclaim_reent+0xcc>
   10998:	04452583          	lw	a1,68(a0)
   1099c:	fe010113          	addi	sp,sp,-32
   109a0:	00912a23          	sw	s1,20(sp)
   109a4:	00112e23          	sw	ra,28(sp)
   109a8:	00812c23          	sw	s0,24(sp)
   109ac:	01212823          	sw	s2,16(sp)
   109b0:	01312623          	sw	s3,12(sp)
   109b4:	00050493          	mv	s1,a0
   109b8:	04058063          	beqz	a1,109f8 <_reclaim_reent+0x68>
   109bc:	00000913          	li	s2,0
   109c0:	08000993          	li	s3,128
   109c4:	012587b3          	add	a5,a1,s2
   109c8:	0007a403          	lw	s0,0(a5)
   109cc:	00040e63          	beqz	s0,109e8 <_reclaim_reent+0x58>
   109d0:	00040593          	mv	a1,s0
   109d4:	00042403          	lw	s0,0(s0)
   109d8:	00048513          	mv	a0,s1
   109dc:	714000ef          	jal	ra,110f0 <_free_r>
   109e0:	fe0418e3          	bnez	s0,109d0 <_reclaim_reent+0x40>
   109e4:	0444a583          	lw	a1,68(s1)
   109e8:	00490913          	addi	s2,s2,4
   109ec:	fd391ce3          	bne	s2,s3,109c4 <_reclaim_reent+0x34>
   109f0:	00048513          	mv	a0,s1
   109f4:	6fc000ef          	jal	ra,110f0 <_free_r>
   109f8:	0384a583          	lw	a1,56(s1)
   109fc:	00058663          	beqz	a1,10a08 <_reclaim_reent+0x78>
   10a00:	00048513          	mv	a0,s1
   10a04:	6ec000ef          	jal	ra,110f0 <_free_r>
   10a08:	04c4a583          	lw	a1,76(s1)
   10a0c:	00058663          	beqz	a1,10a18 <_reclaim_reent+0x88>
   10a10:	00048513          	mv	a0,s1
   10a14:	6dc000ef          	jal	ra,110f0 <_free_r>
   10a18:	0344a783          	lw	a5,52(s1)
   10a1c:	02078263          	beqz	a5,10a40 <_reclaim_reent+0xb0>
   10a20:	01812403          	lw	s0,24(sp)
   10a24:	01c12083          	lw	ra,28(sp)
   10a28:	01012903          	lw	s2,16(sp)
   10a2c:	00c12983          	lw	s3,12(sp)
   10a30:	00048513          	mv	a0,s1
   10a34:	01412483          	lw	s1,20(sp)
   10a38:	02010113          	addi	sp,sp,32
   10a3c:	00078067          	jr	a5
   10a40:	01c12083          	lw	ra,28(sp)
   10a44:	01812403          	lw	s0,24(sp)
   10a48:	01412483          	lw	s1,20(sp)
   10a4c:	01012903          	lw	s2,16(sp)
   10a50:	00c12983          	lw	s3,12(sp)
   10a54:	02010113          	addi	sp,sp,32
   10a58:	00008067          	ret
   10a5c:	00008067          	ret

00010a60 <_lseek_r>:
   10a60:	ff010113          	addi	sp,sp,-16
   10a64:	00058713          	mv	a4,a1
   10a68:	00812423          	sw	s0,8(sp)
   10a6c:	00060593          	mv	a1,a2
   10a70:	00050413          	mv	s0,a0
   10a74:	00068613          	mv	a2,a3
   10a78:	00070513          	mv	a0,a4
   10a7c:	f001ae23          	sw	zero,-228(gp) # 237dc <errno>
   10a80:	00112623          	sw	ra,12(sp)
   10a84:	1000b0ef          	jal	ra,1bb84 <_lseek>
   10a88:	fff00793          	li	a5,-1
   10a8c:	00f50a63          	beq	a0,a5,10aa0 <_lseek_r+0x40>
   10a90:	00c12083          	lw	ra,12(sp)
   10a94:	00812403          	lw	s0,8(sp)
   10a98:	01010113          	addi	sp,sp,16
   10a9c:	00008067          	ret
   10aa0:	f1c1a783          	lw	a5,-228(gp) # 237dc <errno>
   10aa4:	fe0786e3          	beqz	a5,10a90 <_lseek_r+0x30>
   10aa8:	00c12083          	lw	ra,12(sp)
   10aac:	00f42023          	sw	a5,0(s0)
   10ab0:	00812403          	lw	s0,8(sp)
   10ab4:	01010113          	addi	sp,sp,16
   10ab8:	00008067          	ret

00010abc <_read_r>:
   10abc:	ff010113          	addi	sp,sp,-16
   10ac0:	00058713          	mv	a4,a1
   10ac4:	00812423          	sw	s0,8(sp)
   10ac8:	00060593          	mv	a1,a2
   10acc:	00050413          	mv	s0,a0
   10ad0:	00068613          	mv	a2,a3
   10ad4:	00070513          	mv	a0,a4
   10ad8:	f001ae23          	sw	zero,-228(gp) # 237dc <errno>
   10adc:	00112623          	sw	ra,12(sp)
   10ae0:	0e80b0ef          	jal	ra,1bbc8 <_read>
   10ae4:	fff00793          	li	a5,-1
   10ae8:	00f50a63          	beq	a0,a5,10afc <_read_r+0x40>
   10aec:	00c12083          	lw	ra,12(sp)
   10af0:	00812403          	lw	s0,8(sp)
   10af4:	01010113          	addi	sp,sp,16
   10af8:	00008067          	ret
   10afc:	f1c1a783          	lw	a5,-228(gp) # 237dc <errno>
   10b00:	fe0786e3          	beqz	a5,10aec <_read_r+0x30>
   10b04:	00c12083          	lw	ra,12(sp)
   10b08:	00f42023          	sw	a5,0(s0)
   10b0c:	00812403          	lw	s0,8(sp)
   10b10:	01010113          	addi	sp,sp,16
   10b14:	00008067          	ret

00010b18 <_write_r>:
   10b18:	ff010113          	addi	sp,sp,-16
   10b1c:	00058713          	mv	a4,a1
   10b20:	00812423          	sw	s0,8(sp)
   10b24:	00060593          	mv	a1,a2
   10b28:	00050413          	mv	s0,a0
   10b2c:	00068613          	mv	a2,a3
   10b30:	00070513          	mv	a0,a4
   10b34:	f001ae23          	sw	zero,-228(gp) # 237dc <errno>
   10b38:	00112623          	sw	ra,12(sp)
   10b3c:	14c0b0ef          	jal	ra,1bc88 <_write>
   10b40:	fff00793          	li	a5,-1
   10b44:	00f50a63          	beq	a0,a5,10b58 <_write_r+0x40>
   10b48:	00c12083          	lw	ra,12(sp)
   10b4c:	00812403          	lw	s0,8(sp)
   10b50:	01010113          	addi	sp,sp,16
   10b54:	00008067          	ret
   10b58:	f1c1a783          	lw	a5,-228(gp) # 237dc <errno>
   10b5c:	fe0786e3          	beqz	a5,10b48 <_write_r+0x30>
   10b60:	00c12083          	lw	ra,12(sp)
   10b64:	00f42023          	sw	a5,0(s0)
   10b68:	00812403          	lw	s0,8(sp)
   10b6c:	01010113          	addi	sp,sp,16
   10b70:	00008067          	ret

00010b74 <__libc_init_array>:
   10b74:	ff010113          	addi	sp,sp,-16
   10b78:	00812423          	sw	s0,8(sp)
   10b7c:	01212023          	sw	s2,0(sp)
   10b80:	00012797          	auipc	a5,0x12
   10b84:	53478793          	addi	a5,a5,1332 # 230b4 <__init_array_start>
   10b88:	00012417          	auipc	s0,0x12
   10b8c:	52c40413          	addi	s0,s0,1324 # 230b4 <__init_array_start>
   10b90:	00112623          	sw	ra,12(sp)
   10b94:	00912223          	sw	s1,4(sp)
   10b98:	40878933          	sub	s2,a5,s0
   10b9c:	02878063          	beq	a5,s0,10bbc <__libc_init_array+0x48>
   10ba0:	40295913          	srai	s2,s2,0x2
   10ba4:	00000493          	li	s1,0
   10ba8:	00042783          	lw	a5,0(s0)
   10bac:	00148493          	addi	s1,s1,1
   10bb0:	00440413          	addi	s0,s0,4
   10bb4:	000780e7          	jalr	a5
   10bb8:	ff24e8e3          	bltu	s1,s2,10ba8 <__libc_init_array+0x34>
   10bbc:	00012797          	auipc	a5,0x12
   10bc0:	50078793          	addi	a5,a5,1280 # 230bc <__do_global_dtors_aux_fini_array_entry>
   10bc4:	00012417          	auipc	s0,0x12
   10bc8:	4f040413          	addi	s0,s0,1264 # 230b4 <__init_array_start>
   10bcc:	40878933          	sub	s2,a5,s0
   10bd0:	40295913          	srai	s2,s2,0x2
   10bd4:	00878e63          	beq	a5,s0,10bf0 <__libc_init_array+0x7c>
   10bd8:	00000493          	li	s1,0
   10bdc:	00042783          	lw	a5,0(s0)
   10be0:	00148493          	addi	s1,s1,1
   10be4:	00440413          	addi	s0,s0,4
   10be8:	000780e7          	jalr	a5
   10bec:	ff24e8e3          	bltu	s1,s2,10bdc <__libc_init_array+0x68>
   10bf0:	00c12083          	lw	ra,12(sp)
   10bf4:	00812403          	lw	s0,8(sp)
   10bf8:	00412483          	lw	s1,4(sp)
   10bfc:	00012903          	lw	s2,0(sp)
   10c00:	01010113          	addi	sp,sp,16
   10c04:	00008067          	ret

00010c08 <memset>:
   10c08:	00f00313          	li	t1,15
   10c0c:	00050713          	mv	a4,a0
   10c10:	02c37e63          	bgeu	t1,a2,10c4c <memset+0x44>
   10c14:	00f77793          	andi	a5,a4,15
   10c18:	0a079063          	bnez	a5,10cb8 <memset+0xb0>
   10c1c:	08059263          	bnez	a1,10ca0 <memset+0x98>
   10c20:	ff067693          	andi	a3,a2,-16
   10c24:	00f67613          	andi	a2,a2,15
   10c28:	00e686b3          	add	a3,a3,a4
   10c2c:	00b72023          	sw	a1,0(a4)
   10c30:	00b72223          	sw	a1,4(a4)
   10c34:	00b72423          	sw	a1,8(a4)
   10c38:	00b72623          	sw	a1,12(a4)
   10c3c:	01070713          	addi	a4,a4,16
   10c40:	fed766e3          	bltu	a4,a3,10c2c <memset+0x24>
   10c44:	00061463          	bnez	a2,10c4c <memset+0x44>
   10c48:	00008067          	ret
   10c4c:	40c306b3          	sub	a3,t1,a2
   10c50:	00269693          	slli	a3,a3,0x2
   10c54:	00000297          	auipc	t0,0x0
   10c58:	005686b3          	add	a3,a3,t0
   10c5c:	00c68067          	jr	12(a3)
   10c60:	00b70723          	sb	a1,14(a4)
   10c64:	00b706a3          	sb	a1,13(a4)
   10c68:	00b70623          	sb	a1,12(a4)
   10c6c:	00b705a3          	sb	a1,11(a4)
   10c70:	00b70523          	sb	a1,10(a4)
   10c74:	00b704a3          	sb	a1,9(a4)
   10c78:	00b70423          	sb	a1,8(a4)
   10c7c:	00b703a3          	sb	a1,7(a4)
   10c80:	00b70323          	sb	a1,6(a4)
   10c84:	00b702a3          	sb	a1,5(a4)
   10c88:	00b70223          	sb	a1,4(a4)
   10c8c:	00b701a3          	sb	a1,3(a4)
   10c90:	00b70123          	sb	a1,2(a4)
   10c94:	00b700a3          	sb	a1,1(a4)
   10c98:	00b70023          	sb	a1,0(a4)
   10c9c:	00008067          	ret
   10ca0:	0ff5f593          	zext.b	a1,a1
   10ca4:	00859693          	slli	a3,a1,0x8
   10ca8:	00d5e5b3          	or	a1,a1,a3
   10cac:	01059693          	slli	a3,a1,0x10
   10cb0:	00d5e5b3          	or	a1,a1,a3
   10cb4:	f6dff06f          	j	10c20 <memset+0x18>
   10cb8:	00279693          	slli	a3,a5,0x2
   10cbc:	00000297          	auipc	t0,0x0
   10cc0:	005686b3          	add	a3,a3,t0
   10cc4:	00008293          	mv	t0,ra
   10cc8:	fa0680e7          	jalr	-96(a3)
   10ccc:	00028093          	mv	ra,t0
   10cd0:	ff078793          	addi	a5,a5,-16
   10cd4:	40f70733          	sub	a4,a4,a5
   10cd8:	00f60633          	add	a2,a2,a5
   10cdc:	f6c378e3          	bgeu	t1,a2,10c4c <memset+0x44>
   10ce0:	f3dff06f          	j	10c1c <memset+0x14>

00010ce4 <memcpy>:
   10ce4:	00b547b3          	xor	a5,a0,a1
   10ce8:	0037f793          	andi	a5,a5,3
   10cec:	00c508b3          	add	a7,a0,a2
   10cf0:	06079463          	bnez	a5,10d58 <memcpy+0x74>
   10cf4:	00300793          	li	a5,3
   10cf8:	06c7f063          	bgeu	a5,a2,10d58 <memcpy+0x74>
   10cfc:	00357793          	andi	a5,a0,3
   10d00:	00050713          	mv	a4,a0
   10d04:	06079a63          	bnez	a5,10d78 <memcpy+0x94>
   10d08:	ffc8f613          	andi	a2,a7,-4
   10d0c:	40e606b3          	sub	a3,a2,a4
   10d10:	02000793          	li	a5,32
   10d14:	08d7ce63          	blt	a5,a3,10db0 <memcpy+0xcc>
   10d18:	00058693          	mv	a3,a1
   10d1c:	00070793          	mv	a5,a4
   10d20:	02c77863          	bgeu	a4,a2,10d50 <memcpy+0x6c>
   10d24:	0006a803          	lw	a6,0(a3)
   10d28:	00478793          	addi	a5,a5,4
   10d2c:	00468693          	addi	a3,a3,4
   10d30:	ff07ae23          	sw	a6,-4(a5)
   10d34:	fec7e8e3          	bltu	a5,a2,10d24 <memcpy+0x40>
   10d38:	fff60793          	addi	a5,a2,-1
   10d3c:	40e787b3          	sub	a5,a5,a4
   10d40:	ffc7f793          	andi	a5,a5,-4
   10d44:	00478793          	addi	a5,a5,4
   10d48:	00f70733          	add	a4,a4,a5
   10d4c:	00f585b3          	add	a1,a1,a5
   10d50:	01176863          	bltu	a4,a7,10d60 <memcpy+0x7c>
   10d54:	00008067          	ret
   10d58:	00050713          	mv	a4,a0
   10d5c:	05157863          	bgeu	a0,a7,10dac <memcpy+0xc8>
   10d60:	0005c783          	lbu	a5,0(a1)
   10d64:	00170713          	addi	a4,a4,1
   10d68:	00158593          	addi	a1,a1,1
   10d6c:	fef70fa3          	sb	a5,-1(a4)
   10d70:	fee898e3          	bne	a7,a4,10d60 <memcpy+0x7c>
   10d74:	00008067          	ret
   10d78:	0005c683          	lbu	a3,0(a1)
   10d7c:	00170713          	addi	a4,a4,1
   10d80:	00377793          	andi	a5,a4,3
   10d84:	fed70fa3          	sb	a3,-1(a4)
   10d88:	00158593          	addi	a1,a1,1
   10d8c:	f6078ee3          	beqz	a5,10d08 <memcpy+0x24>
   10d90:	0005c683          	lbu	a3,0(a1)
   10d94:	00170713          	addi	a4,a4,1
   10d98:	00377793          	andi	a5,a4,3
   10d9c:	fed70fa3          	sb	a3,-1(a4)
   10da0:	00158593          	addi	a1,a1,1
   10da4:	fc079ae3          	bnez	a5,10d78 <memcpy+0x94>
   10da8:	f61ff06f          	j	10d08 <memcpy+0x24>
   10dac:	00008067          	ret
   10db0:	ff010113          	addi	sp,sp,-16
   10db4:	00812623          	sw	s0,12(sp)
   10db8:	02000413          	li	s0,32
   10dbc:	0005a383          	lw	t2,0(a1)
   10dc0:	0045a283          	lw	t0,4(a1)
   10dc4:	0085af83          	lw	t6,8(a1)
   10dc8:	00c5af03          	lw	t5,12(a1)
   10dcc:	0105ae83          	lw	t4,16(a1)
   10dd0:	0145ae03          	lw	t3,20(a1)
   10dd4:	0185a303          	lw	t1,24(a1)
   10dd8:	01c5a803          	lw	a6,28(a1)
   10ddc:	0205a683          	lw	a3,32(a1)
   10de0:	02470713          	addi	a4,a4,36
   10de4:	40e607b3          	sub	a5,a2,a4
   10de8:	fc772e23          	sw	t2,-36(a4)
   10dec:	fe572023          	sw	t0,-32(a4)
   10df0:	fff72223          	sw	t6,-28(a4)
   10df4:	ffe72423          	sw	t5,-24(a4)
   10df8:	ffd72623          	sw	t4,-20(a4)
   10dfc:	ffc72823          	sw	t3,-16(a4)
   10e00:	fe672a23          	sw	t1,-12(a4)
   10e04:	ff072c23          	sw	a6,-8(a4)
   10e08:	fed72e23          	sw	a3,-4(a4)
   10e0c:	02458593          	addi	a1,a1,36
   10e10:	faf446e3          	blt	s0,a5,10dbc <memcpy+0xd8>
   10e14:	00058693          	mv	a3,a1
   10e18:	00070793          	mv	a5,a4
   10e1c:	02c77863          	bgeu	a4,a2,10e4c <memcpy+0x168>
   10e20:	0006a803          	lw	a6,0(a3)
   10e24:	00478793          	addi	a5,a5,4
   10e28:	00468693          	addi	a3,a3,4
   10e2c:	ff07ae23          	sw	a6,-4(a5)
   10e30:	fec7e8e3          	bltu	a5,a2,10e20 <memcpy+0x13c>
   10e34:	fff60793          	addi	a5,a2,-1
   10e38:	40e787b3          	sub	a5,a5,a4
   10e3c:	ffc7f793          	andi	a5,a5,-4
   10e40:	00478793          	addi	a5,a5,4
   10e44:	00f70733          	add	a4,a4,a5
   10e48:	00f585b3          	add	a1,a1,a5
   10e4c:	01176863          	bltu	a4,a7,10e5c <memcpy+0x178>
   10e50:	00c12403          	lw	s0,12(sp)
   10e54:	01010113          	addi	sp,sp,16
   10e58:	00008067          	ret
   10e5c:	0005c783          	lbu	a5,0(a1)
   10e60:	00170713          	addi	a4,a4,1
   10e64:	00158593          	addi	a1,a1,1
   10e68:	fef70fa3          	sb	a5,-1(a4)
   10e6c:	fee882e3          	beq	a7,a4,10e50 <memcpy+0x16c>
   10e70:	0005c783          	lbu	a5,0(a1)
   10e74:	00170713          	addi	a4,a4,1
   10e78:	00158593          	addi	a1,a1,1
   10e7c:	fef70fa3          	sb	a5,-1(a4)
   10e80:	fce89ee3          	bne	a7,a4,10e5c <memcpy+0x178>
   10e84:	fcdff06f          	j	10e50 <memcpy+0x16c>

00010e88 <__call_exitprocs>:
   10e88:	fd010113          	addi	sp,sp,-48
   10e8c:	01412c23          	sw	s4,24(sp)
   10e90:	f2018a13          	addi	s4,gp,-224 # 237e0 <__atexit>
   10e94:	03212023          	sw	s2,32(sp)
   10e98:	000a2903          	lw	s2,0(s4)
   10e9c:	02112623          	sw	ra,44(sp)
   10ea0:	02812423          	sw	s0,40(sp)
   10ea4:	02912223          	sw	s1,36(sp)
   10ea8:	01312e23          	sw	s3,28(sp)
   10eac:	01512a23          	sw	s5,20(sp)
   10eb0:	01612823          	sw	s6,16(sp)
   10eb4:	01712623          	sw	s7,12(sp)
   10eb8:	01812423          	sw	s8,8(sp)
   10ebc:	04090063          	beqz	s2,10efc <__call_exitprocs+0x74>
   10ec0:	00050b13          	mv	s6,a0
   10ec4:	00058b93          	mv	s7,a1
   10ec8:	00100a93          	li	s5,1
   10ecc:	fff00993          	li	s3,-1
   10ed0:	00492483          	lw	s1,4(s2)
   10ed4:	fff48413          	addi	s0,s1,-1
   10ed8:	02044263          	bltz	s0,10efc <__call_exitprocs+0x74>
   10edc:	00249493          	slli	s1,s1,0x2
   10ee0:	009904b3          	add	s1,s2,s1
   10ee4:	040b8463          	beqz	s7,10f2c <__call_exitprocs+0xa4>
   10ee8:	1044a783          	lw	a5,260(s1)
   10eec:	05778063          	beq	a5,s7,10f2c <__call_exitprocs+0xa4>
   10ef0:	fff40413          	addi	s0,s0,-1
   10ef4:	ffc48493          	addi	s1,s1,-4
   10ef8:	ff3416e3          	bne	s0,s3,10ee4 <__call_exitprocs+0x5c>
   10efc:	02c12083          	lw	ra,44(sp)
   10f00:	02812403          	lw	s0,40(sp)
   10f04:	02412483          	lw	s1,36(sp)
   10f08:	02012903          	lw	s2,32(sp)
   10f0c:	01c12983          	lw	s3,28(sp)
   10f10:	01812a03          	lw	s4,24(sp)
   10f14:	01412a83          	lw	s5,20(sp)
   10f18:	01012b03          	lw	s6,16(sp)
   10f1c:	00c12b83          	lw	s7,12(sp)
   10f20:	00812c03          	lw	s8,8(sp)
   10f24:	03010113          	addi	sp,sp,48
   10f28:	00008067          	ret
   10f2c:	00492783          	lw	a5,4(s2)
   10f30:	0044a683          	lw	a3,4(s1)
   10f34:	fff78793          	addi	a5,a5,-1
   10f38:	04878e63          	beq	a5,s0,10f94 <__call_exitprocs+0x10c>
   10f3c:	0004a223          	sw	zero,4(s1)
   10f40:	fa0688e3          	beqz	a3,10ef0 <__call_exitprocs+0x68>
   10f44:	18892783          	lw	a5,392(s2)
   10f48:	008a9733          	sll	a4,s5,s0
   10f4c:	00492c03          	lw	s8,4(s2)
   10f50:	00f777b3          	and	a5,a4,a5
   10f54:	02079263          	bnez	a5,10f78 <__call_exitprocs+0xf0>
   10f58:	000680e7          	jalr	a3
   10f5c:	00492703          	lw	a4,4(s2)
   10f60:	000a2783          	lw	a5,0(s4)
   10f64:	01871463          	bne	a4,s8,10f6c <__call_exitprocs+0xe4>
   10f68:	f8f904e3          	beq	s2,a5,10ef0 <__call_exitprocs+0x68>
   10f6c:	f80788e3          	beqz	a5,10efc <__call_exitprocs+0x74>
   10f70:	00078913          	mv	s2,a5
   10f74:	f5dff06f          	j	10ed0 <__call_exitprocs+0x48>
   10f78:	18c92783          	lw	a5,396(s2)
   10f7c:	0844a583          	lw	a1,132(s1)
   10f80:	00f77733          	and	a4,a4,a5
   10f84:	00071c63          	bnez	a4,10f9c <__call_exitprocs+0x114>
   10f88:	000b0513          	mv	a0,s6
   10f8c:	000680e7          	jalr	a3
   10f90:	fcdff06f          	j	10f5c <__call_exitprocs+0xd4>
   10f94:	00892223          	sw	s0,4(s2)
   10f98:	fa9ff06f          	j	10f40 <__call_exitprocs+0xb8>
   10f9c:	00058513          	mv	a0,a1
   10fa0:	000680e7          	jalr	a3
   10fa4:	fb9ff06f          	j	10f5c <__call_exitprocs+0xd4>

00010fa8 <atexit>:
   10fa8:	00050593          	mv	a1,a0
   10fac:	00000693          	li	a3,0
   10fb0:	00000613          	li	a2,0
   10fb4:	00000513          	li	a0,0
   10fb8:	7a90506f          	j	16f60 <__register_exitproc>

00010fbc <_malloc_trim_r>:
   10fbc:	fe010113          	addi	sp,sp,-32
   10fc0:	00812c23          	sw	s0,24(sp)
   10fc4:	00912a23          	sw	s1,20(sp)
   10fc8:	01212823          	sw	s2,16(sp)
   10fcc:	01312623          	sw	s3,12(sp)
   10fd0:	01412423          	sw	s4,8(sp)
   10fd4:	00058993          	mv	s3,a1
   10fd8:	00112e23          	sw	ra,28(sp)
   10fdc:	00012a17          	auipc	s4,0x12
   10fe0:	214a0a13          	addi	s4,s4,532 # 231f0 <__malloc_av_>
   10fe4:	00050913          	mv	s2,a0
   10fe8:	399000ef          	jal	ra,11b80 <__malloc_lock>
   10fec:	008a2703          	lw	a4,8(s4)
   10ff0:	000017b7          	lui	a5,0x1
   10ff4:	fef78413          	addi	s0,a5,-17 # fef <exit-0xf0a5>
   10ff8:	00472483          	lw	s1,4(a4)
   10ffc:	ffc4f493          	andi	s1,s1,-4
   11000:	00848433          	add	s0,s1,s0
   11004:	41340433          	sub	s0,s0,s3
   11008:	00c45413          	srli	s0,s0,0xc
   1100c:	fff40413          	addi	s0,s0,-1
   11010:	00c41413          	slli	s0,s0,0xc
   11014:	00f44e63          	blt	s0,a5,11030 <_malloc_trim_r+0x74>
   11018:	00000593          	li	a1,0
   1101c:	00090513          	mv	a0,s2
   11020:	1e1050ef          	jal	ra,16a00 <_sbrk_r>
   11024:	008a2783          	lw	a5,8(s4)
   11028:	009787b3          	add	a5,a5,s1
   1102c:	02f50863          	beq	a0,a5,1105c <_malloc_trim_r+0xa0>
   11030:	00090513          	mv	a0,s2
   11034:	351000ef          	jal	ra,11b84 <__malloc_unlock>
   11038:	01c12083          	lw	ra,28(sp)
   1103c:	01812403          	lw	s0,24(sp)
   11040:	01412483          	lw	s1,20(sp)
   11044:	01012903          	lw	s2,16(sp)
   11048:	00c12983          	lw	s3,12(sp)
   1104c:	00812a03          	lw	s4,8(sp)
   11050:	00000513          	li	a0,0
   11054:	02010113          	addi	sp,sp,32
   11058:	00008067          	ret
   1105c:	408005b3          	neg	a1,s0
   11060:	00090513          	mv	a0,s2
   11064:	19d050ef          	jal	ra,16a00 <_sbrk_r>
   11068:	fff00793          	li	a5,-1
   1106c:	04f50863          	beq	a0,a5,110bc <_malloc_trim_r+0x100>
   11070:	08c18713          	addi	a4,gp,140 # 2394c <__malloc_current_mallinfo>
   11074:	00072783          	lw	a5,0(a4)
   11078:	008a2683          	lw	a3,8(s4)
   1107c:	408484b3          	sub	s1,s1,s0
   11080:	0014e493          	ori	s1,s1,1
   11084:	408787b3          	sub	a5,a5,s0
   11088:	00090513          	mv	a0,s2
   1108c:	0096a223          	sw	s1,4(a3)
   11090:	00f72023          	sw	a5,0(a4)
   11094:	2f1000ef          	jal	ra,11b84 <__malloc_unlock>
   11098:	01c12083          	lw	ra,28(sp)
   1109c:	01812403          	lw	s0,24(sp)
   110a0:	01412483          	lw	s1,20(sp)
   110a4:	01012903          	lw	s2,16(sp)
   110a8:	00c12983          	lw	s3,12(sp)
   110ac:	00812a03          	lw	s4,8(sp)
   110b0:	00100513          	li	a0,1
   110b4:	02010113          	addi	sp,sp,32
   110b8:	00008067          	ret
   110bc:	00000593          	li	a1,0
   110c0:	00090513          	mv	a0,s2
   110c4:	13d050ef          	jal	ra,16a00 <_sbrk_r>
   110c8:	008a2703          	lw	a4,8(s4)
   110cc:	00f00693          	li	a3,15
   110d0:	40e507b3          	sub	a5,a0,a4
   110d4:	f4f6dee3          	bge	a3,a5,11030 <_malloc_trim_r+0x74>
   110d8:	f101a683          	lw	a3,-240(gp) # 237d0 <__malloc_sbrk_base>
   110dc:	40d50533          	sub	a0,a0,a3
   110e0:	0017e793          	ori	a5,a5,1
   110e4:	08a1a623          	sw	a0,140(gp) # 2394c <__malloc_current_mallinfo>
   110e8:	00f72223          	sw	a5,4(a4)
   110ec:	f45ff06f          	j	11030 <_malloc_trim_r+0x74>

000110f0 <_free_r>:
   110f0:	18058263          	beqz	a1,11274 <_free_r+0x184>
   110f4:	ff010113          	addi	sp,sp,-16
   110f8:	00812423          	sw	s0,8(sp)
   110fc:	00912223          	sw	s1,4(sp)
   11100:	00058413          	mv	s0,a1
   11104:	00050493          	mv	s1,a0
   11108:	00112623          	sw	ra,12(sp)
   1110c:	275000ef          	jal	ra,11b80 <__malloc_lock>
   11110:	ffc42583          	lw	a1,-4(s0)
   11114:	ff840713          	addi	a4,s0,-8
   11118:	00012517          	auipc	a0,0x12
   1111c:	0d850513          	addi	a0,a0,216 # 231f0 <__malloc_av_>
   11120:	ffe5f793          	andi	a5,a1,-2
   11124:	00f70633          	add	a2,a4,a5
   11128:	00462683          	lw	a3,4(a2)
   1112c:	00852803          	lw	a6,8(a0)
   11130:	ffc6f693          	andi	a3,a3,-4
   11134:	1ac80263          	beq	a6,a2,112d8 <_free_r+0x1e8>
   11138:	00d62223          	sw	a3,4(a2)
   1113c:	0015f593          	andi	a1,a1,1
   11140:	00d60833          	add	a6,a2,a3
   11144:	0a059063          	bnez	a1,111e4 <_free_r+0xf4>
   11148:	ff842303          	lw	t1,-8(s0)
   1114c:	00482583          	lw	a1,4(a6)
   11150:	00012897          	auipc	a7,0x12
   11154:	0a888893          	addi	a7,a7,168 # 231f8 <__malloc_av_+0x8>
   11158:	40670733          	sub	a4,a4,t1
   1115c:	00872803          	lw	a6,8(a4)
   11160:	006787b3          	add	a5,a5,t1
   11164:	0015f593          	andi	a1,a1,1
   11168:	15180263          	beq	a6,a7,112ac <_free_r+0x1bc>
   1116c:	00c72303          	lw	t1,12(a4)
   11170:	00682623          	sw	t1,12(a6)
   11174:	01032423          	sw	a6,8(t1)
   11178:	1a058663          	beqz	a1,11324 <_free_r+0x234>
   1117c:	0017e693          	ori	a3,a5,1
   11180:	00d72223          	sw	a3,4(a4)
   11184:	00f62023          	sw	a5,0(a2)
   11188:	1ff00693          	li	a3,511
   1118c:	06f6ec63          	bltu	a3,a5,11204 <_free_r+0x114>
   11190:	ff87f693          	andi	a3,a5,-8
   11194:	00868693          	addi	a3,a3,8
   11198:	00452583          	lw	a1,4(a0)
   1119c:	00d506b3          	add	a3,a0,a3
   111a0:	0006a603          	lw	a2,0(a3)
   111a4:	0057d813          	srli	a6,a5,0x5
   111a8:	00100793          	li	a5,1
   111ac:	010797b3          	sll	a5,a5,a6
   111b0:	00b7e7b3          	or	a5,a5,a1
   111b4:	ff868593          	addi	a1,a3,-8
   111b8:	00b72623          	sw	a1,12(a4)
   111bc:	00c72423          	sw	a2,8(a4)
   111c0:	00f52223          	sw	a5,4(a0)
   111c4:	00e6a023          	sw	a4,0(a3)
   111c8:	00e62623          	sw	a4,12(a2)
   111cc:	00812403          	lw	s0,8(sp)
   111d0:	00c12083          	lw	ra,12(sp)
   111d4:	00048513          	mv	a0,s1
   111d8:	00412483          	lw	s1,4(sp)
   111dc:	01010113          	addi	sp,sp,16
   111e0:	1a50006f          	j	11b84 <__malloc_unlock>
   111e4:	00482583          	lw	a1,4(a6)
   111e8:	0015f593          	andi	a1,a1,1
   111ec:	08058663          	beqz	a1,11278 <_free_r+0x188>
   111f0:	0017e693          	ori	a3,a5,1
   111f4:	fed42e23          	sw	a3,-4(s0)
   111f8:	00f62023          	sw	a5,0(a2)
   111fc:	1ff00693          	li	a3,511
   11200:	f8f6f8e3          	bgeu	a3,a5,11190 <_free_r+0xa0>
   11204:	0097d693          	srli	a3,a5,0x9
   11208:	00400613          	li	a2,4
   1120c:	12d66063          	bltu	a2,a3,1132c <_free_r+0x23c>
   11210:	0067d693          	srli	a3,a5,0x6
   11214:	03968593          	addi	a1,a3,57
   11218:	03868613          	addi	a2,a3,56
   1121c:	00359593          	slli	a1,a1,0x3
   11220:	00b505b3          	add	a1,a0,a1
   11224:	0005a683          	lw	a3,0(a1)
   11228:	ff858593          	addi	a1,a1,-8
   1122c:	00d59863          	bne	a1,a3,1123c <_free_r+0x14c>
   11230:	1540006f          	j	11384 <_free_r+0x294>
   11234:	0086a683          	lw	a3,8(a3)
   11238:	00d58863          	beq	a1,a3,11248 <_free_r+0x158>
   1123c:	0046a603          	lw	a2,4(a3)
   11240:	ffc67613          	andi	a2,a2,-4
   11244:	fec7e8e3          	bltu	a5,a2,11234 <_free_r+0x144>
   11248:	00c6a583          	lw	a1,12(a3)
   1124c:	00b72623          	sw	a1,12(a4)
   11250:	00d72423          	sw	a3,8(a4)
   11254:	00812403          	lw	s0,8(sp)
   11258:	00c12083          	lw	ra,12(sp)
   1125c:	00e5a423          	sw	a4,8(a1)
   11260:	00048513          	mv	a0,s1
   11264:	00412483          	lw	s1,4(sp)
   11268:	00e6a623          	sw	a4,12(a3)
   1126c:	01010113          	addi	sp,sp,16
   11270:	1150006f          	j	11b84 <__malloc_unlock>
   11274:	00008067          	ret
   11278:	00d787b3          	add	a5,a5,a3
   1127c:	00012897          	auipc	a7,0x12
   11280:	f7c88893          	addi	a7,a7,-132 # 231f8 <__malloc_av_+0x8>
   11284:	00862683          	lw	a3,8(a2)
   11288:	0d168c63          	beq	a3,a7,11360 <_free_r+0x270>
   1128c:	00c62803          	lw	a6,12(a2)
   11290:	0017e593          	ori	a1,a5,1
   11294:	00f70633          	add	a2,a4,a5
   11298:	0106a623          	sw	a6,12(a3)
   1129c:	00d82423          	sw	a3,8(a6)
   112a0:	00b72223          	sw	a1,4(a4)
   112a4:	00f62023          	sw	a5,0(a2)
   112a8:	ee1ff06f          	j	11188 <_free_r+0x98>
   112ac:	12059c63          	bnez	a1,113e4 <_free_r+0x2f4>
   112b0:	00862583          	lw	a1,8(a2)
   112b4:	00c62603          	lw	a2,12(a2)
   112b8:	00f686b3          	add	a3,a3,a5
   112bc:	0016e793          	ori	a5,a3,1
   112c0:	00c5a623          	sw	a2,12(a1)
   112c4:	00b62423          	sw	a1,8(a2)
   112c8:	00f72223          	sw	a5,4(a4)
   112cc:	00d70733          	add	a4,a4,a3
   112d0:	00d72023          	sw	a3,0(a4)
   112d4:	ef9ff06f          	j	111cc <_free_r+0xdc>
   112d8:	0015f593          	andi	a1,a1,1
   112dc:	00d786b3          	add	a3,a5,a3
   112e0:	02059063          	bnez	a1,11300 <_free_r+0x210>
   112e4:	ff842583          	lw	a1,-8(s0)
   112e8:	40b70733          	sub	a4,a4,a1
   112ec:	00c72783          	lw	a5,12(a4)
   112f0:	00872603          	lw	a2,8(a4)
   112f4:	00b686b3          	add	a3,a3,a1
   112f8:	00f62623          	sw	a5,12(a2)
   112fc:	00c7a423          	sw	a2,8(a5)
   11300:	0016e793          	ori	a5,a3,1
   11304:	00f72223          	sw	a5,4(a4)
   11308:	00e52423          	sw	a4,8(a0)
   1130c:	f141a783          	lw	a5,-236(gp) # 237d4 <__malloc_trim_threshold>
   11310:	eaf6eee3          	bltu	a3,a5,111cc <_free_r+0xdc>
   11314:	f2c1a583          	lw	a1,-212(gp) # 237ec <__malloc_top_pad>
   11318:	00048513          	mv	a0,s1
   1131c:	ca1ff0ef          	jal	ra,10fbc <_malloc_trim_r>
   11320:	eadff06f          	j	111cc <_free_r+0xdc>
   11324:	00d787b3          	add	a5,a5,a3
   11328:	f5dff06f          	j	11284 <_free_r+0x194>
   1132c:	01400613          	li	a2,20
   11330:	02d67063          	bgeu	a2,a3,11350 <_free_r+0x260>
   11334:	05400613          	li	a2,84
   11338:	06d66463          	bltu	a2,a3,113a0 <_free_r+0x2b0>
   1133c:	00c7d693          	srli	a3,a5,0xc
   11340:	06f68593          	addi	a1,a3,111
   11344:	06e68613          	addi	a2,a3,110
   11348:	00359593          	slli	a1,a1,0x3
   1134c:	ed5ff06f          	j	11220 <_free_r+0x130>
   11350:	05c68593          	addi	a1,a3,92
   11354:	05b68613          	addi	a2,a3,91
   11358:	00359593          	slli	a1,a1,0x3
   1135c:	ec5ff06f          	j	11220 <_free_r+0x130>
   11360:	00e52a23          	sw	a4,20(a0)
   11364:	00e52823          	sw	a4,16(a0)
   11368:	0017e693          	ori	a3,a5,1
   1136c:	01172623          	sw	a7,12(a4)
   11370:	01172423          	sw	a7,8(a4)
   11374:	00d72223          	sw	a3,4(a4)
   11378:	00f70733          	add	a4,a4,a5
   1137c:	00f72023          	sw	a5,0(a4)
   11380:	e4dff06f          	j	111cc <_free_r+0xdc>
   11384:	00452803          	lw	a6,4(a0)
   11388:	40265613          	srai	a2,a2,0x2
   1138c:	00100793          	li	a5,1
   11390:	00c797b3          	sll	a5,a5,a2
   11394:	0107e7b3          	or	a5,a5,a6
   11398:	00f52223          	sw	a5,4(a0)
   1139c:	eb1ff06f          	j	1124c <_free_r+0x15c>
   113a0:	15400613          	li	a2,340
   113a4:	00d66c63          	bltu	a2,a3,113bc <_free_r+0x2cc>
   113a8:	00f7d693          	srli	a3,a5,0xf
   113ac:	07868593          	addi	a1,a3,120
   113b0:	07768613          	addi	a2,a3,119
   113b4:	00359593          	slli	a1,a1,0x3
   113b8:	e69ff06f          	j	11220 <_free_r+0x130>
   113bc:	55400613          	li	a2,1364
   113c0:	00d66c63          	bltu	a2,a3,113d8 <_free_r+0x2e8>
   113c4:	0127d693          	srli	a3,a5,0x12
   113c8:	07d68593          	addi	a1,a3,125
   113cc:	07c68613          	addi	a2,a3,124
   113d0:	00359593          	slli	a1,a1,0x3
   113d4:	e4dff06f          	j	11220 <_free_r+0x130>
   113d8:	3f800593          	li	a1,1016
   113dc:	07e00613          	li	a2,126
   113e0:	e41ff06f          	j	11220 <_free_r+0x130>
   113e4:	0017e693          	ori	a3,a5,1
   113e8:	00d72223          	sw	a3,4(a4)
   113ec:	00f62023          	sw	a5,0(a2)
   113f0:	dddff06f          	j	111cc <_free_r+0xdc>

000113f4 <_malloc_r>:
   113f4:	fd010113          	addi	sp,sp,-48
   113f8:	03212023          	sw	s2,32(sp)
   113fc:	02112623          	sw	ra,44(sp)
   11400:	02812423          	sw	s0,40(sp)
   11404:	02912223          	sw	s1,36(sp)
   11408:	01312e23          	sw	s3,28(sp)
   1140c:	01412c23          	sw	s4,24(sp)
   11410:	01512a23          	sw	s5,20(sp)
   11414:	01612823          	sw	s6,16(sp)
   11418:	01712623          	sw	s7,12(sp)
   1141c:	01812423          	sw	s8,8(sp)
   11420:	01912223          	sw	s9,4(sp)
   11424:	00b58793          	addi	a5,a1,11
   11428:	01600713          	li	a4,22
   1142c:	00050913          	mv	s2,a0
   11430:	08f76e63          	bltu	a4,a5,114cc <_malloc_r+0xd8>
   11434:	01000793          	li	a5,16
   11438:	22b7e263          	bltu	a5,a1,1165c <_malloc_r+0x268>
   1143c:	744000ef          	jal	ra,11b80 <__malloc_lock>
   11440:	01000493          	li	s1,16
   11444:	01800793          	li	a5,24
   11448:	00200593          	li	a1,2
   1144c:	00012997          	auipc	s3,0x12
   11450:	da498993          	addi	s3,s3,-604 # 231f0 <__malloc_av_>
   11454:	00f987b3          	add	a5,s3,a5
   11458:	0047a403          	lw	s0,4(a5)
   1145c:	ff878713          	addi	a4,a5,-8
   11460:	30e40a63          	beq	s0,a4,11774 <_malloc_r+0x380>
   11464:	00442783          	lw	a5,4(s0)
   11468:	00c42683          	lw	a3,12(s0)
   1146c:	00842603          	lw	a2,8(s0)
   11470:	ffc7f793          	andi	a5,a5,-4
   11474:	00f407b3          	add	a5,s0,a5
   11478:	0047a703          	lw	a4,4(a5)
   1147c:	00d62623          	sw	a3,12(a2)
   11480:	00c6a423          	sw	a2,8(a3)
   11484:	00176713          	ori	a4,a4,1
   11488:	00090513          	mv	a0,s2
   1148c:	00e7a223          	sw	a4,4(a5)
   11490:	6f4000ef          	jal	ra,11b84 <__malloc_unlock>
   11494:	00840513          	addi	a0,s0,8
   11498:	02c12083          	lw	ra,44(sp)
   1149c:	02812403          	lw	s0,40(sp)
   114a0:	02412483          	lw	s1,36(sp)
   114a4:	02012903          	lw	s2,32(sp)
   114a8:	01c12983          	lw	s3,28(sp)
   114ac:	01812a03          	lw	s4,24(sp)
   114b0:	01412a83          	lw	s5,20(sp)
   114b4:	01012b03          	lw	s6,16(sp)
   114b8:	00c12b83          	lw	s7,12(sp)
   114bc:	00812c03          	lw	s8,8(sp)
   114c0:	00412c83          	lw	s9,4(sp)
   114c4:	03010113          	addi	sp,sp,48
   114c8:	00008067          	ret
   114cc:	ff87f493          	andi	s1,a5,-8
   114d0:	1807c663          	bltz	a5,1165c <_malloc_r+0x268>
   114d4:	18b4e463          	bltu	s1,a1,1165c <_malloc_r+0x268>
   114d8:	6a8000ef          	jal	ra,11b80 <__malloc_lock>
   114dc:	1f700793          	li	a5,503
   114e0:	3a97f463          	bgeu	a5,s1,11888 <_malloc_r+0x494>
   114e4:	0094d793          	srli	a5,s1,0x9
   114e8:	18078263          	beqz	a5,1166c <_malloc_r+0x278>
   114ec:	00400713          	li	a4,4
   114f0:	2ef76a63          	bltu	a4,a5,117e4 <_malloc_r+0x3f0>
   114f4:	0064d793          	srli	a5,s1,0x6
   114f8:	03978593          	addi	a1,a5,57
   114fc:	03878813          	addi	a6,a5,56
   11500:	00359613          	slli	a2,a1,0x3
   11504:	00012997          	auipc	s3,0x12
   11508:	cec98993          	addi	s3,s3,-788 # 231f0 <__malloc_av_>
   1150c:	00c98633          	add	a2,s3,a2
   11510:	00462403          	lw	s0,4(a2)
   11514:	ff860613          	addi	a2,a2,-8
   11518:	02860863          	beq	a2,s0,11548 <_malloc_r+0x154>
   1151c:	00f00513          	li	a0,15
   11520:	0140006f          	j	11534 <_malloc_r+0x140>
   11524:	00c42683          	lw	a3,12(s0)
   11528:	24075263          	bgez	a4,1176c <_malloc_r+0x378>
   1152c:	00d60e63          	beq	a2,a3,11548 <_malloc_r+0x154>
   11530:	00068413          	mv	s0,a3
   11534:	00442783          	lw	a5,4(s0)
   11538:	ffc7f793          	andi	a5,a5,-4
   1153c:	40978733          	sub	a4,a5,s1
   11540:	fee552e3          	bge	a0,a4,11524 <_malloc_r+0x130>
   11544:	00080593          	mv	a1,a6
   11548:	0109a403          	lw	s0,16(s3)
   1154c:	00012897          	auipc	a7,0x12
   11550:	cac88893          	addi	a7,a7,-852 # 231f8 <__malloc_av_+0x8>
   11554:	1f140463          	beq	s0,a7,1173c <_malloc_r+0x348>
   11558:	00442783          	lw	a5,4(s0)
   1155c:	00f00693          	li	a3,15
   11560:	ffc7f793          	andi	a5,a5,-4
   11564:	40978733          	sub	a4,a5,s1
   11568:	32e6c663          	blt	a3,a4,11894 <_malloc_r+0x4a0>
   1156c:	0119aa23          	sw	a7,20(s3)
   11570:	0119a823          	sw	a7,16(s3)
   11574:	2e075a63          	bgez	a4,11868 <_malloc_r+0x474>
   11578:	1ff00713          	li	a4,511
   1157c:	0049a503          	lw	a0,4(s3)
   11580:	20f76263          	bltu	a4,a5,11784 <_malloc_r+0x390>
   11584:	ff87f713          	andi	a4,a5,-8
   11588:	00870713          	addi	a4,a4,8
   1158c:	00e98733          	add	a4,s3,a4
   11590:	00072683          	lw	a3,0(a4)
   11594:	0057d613          	srli	a2,a5,0x5
   11598:	00100793          	li	a5,1
   1159c:	00c797b3          	sll	a5,a5,a2
   115a0:	00f56533          	or	a0,a0,a5
   115a4:	ff870793          	addi	a5,a4,-8
   115a8:	00f42623          	sw	a5,12(s0)
   115ac:	00d42423          	sw	a3,8(s0)
   115b0:	00a9a223          	sw	a0,4(s3)
   115b4:	00872023          	sw	s0,0(a4)
   115b8:	0086a623          	sw	s0,12(a3)
   115bc:	4025d793          	srai	a5,a1,0x2
   115c0:	00100613          	li	a2,1
   115c4:	00f61633          	sll	a2,a2,a5
   115c8:	0ac56a63          	bltu	a0,a2,1167c <_malloc_r+0x288>
   115cc:	00a677b3          	and	a5,a2,a0
   115d0:	02079463          	bnez	a5,115f8 <_malloc_r+0x204>
   115d4:	00161613          	slli	a2,a2,0x1
   115d8:	ffc5f593          	andi	a1,a1,-4
   115dc:	00a677b3          	and	a5,a2,a0
   115e0:	00458593          	addi	a1,a1,4
   115e4:	00079a63          	bnez	a5,115f8 <_malloc_r+0x204>
   115e8:	00161613          	slli	a2,a2,0x1
   115ec:	00a677b3          	and	a5,a2,a0
   115f0:	00458593          	addi	a1,a1,4
   115f4:	fe078ae3          	beqz	a5,115e8 <_malloc_r+0x1f4>
   115f8:	00f00813          	li	a6,15
   115fc:	00359313          	slli	t1,a1,0x3
   11600:	00698333          	add	t1,s3,t1
   11604:	00030513          	mv	a0,t1
   11608:	00c52783          	lw	a5,12(a0)
   1160c:	00058e13          	mv	t3,a1
   11610:	1ef50c63          	beq	a0,a5,11808 <_malloc_r+0x414>
   11614:	0047a703          	lw	a4,4(a5)
   11618:	00078413          	mv	s0,a5
   1161c:	00c7a783          	lw	a5,12(a5)
   11620:	ffc77713          	andi	a4,a4,-4
   11624:	409706b3          	sub	a3,a4,s1
   11628:	1ed84c63          	blt	a6,a3,11820 <_malloc_r+0x42c>
   1162c:	fe06c2e3          	bltz	a3,11610 <_malloc_r+0x21c>
   11630:	00e40733          	add	a4,s0,a4
   11634:	00472683          	lw	a3,4(a4)
   11638:	00842603          	lw	a2,8(s0)
   1163c:	00090513          	mv	a0,s2
   11640:	0016e693          	ori	a3,a3,1
   11644:	00d72223          	sw	a3,4(a4)
   11648:	00f62623          	sw	a5,12(a2)
   1164c:	00c7a423          	sw	a2,8(a5)
   11650:	534000ef          	jal	ra,11b84 <__malloc_unlock>
   11654:	00840513          	addi	a0,s0,8
   11658:	e41ff06f          	j	11498 <_malloc_r+0xa4>
   1165c:	00c00793          	li	a5,12
   11660:	00f92023          	sw	a5,0(s2)
   11664:	00000513          	li	a0,0
   11668:	e31ff06f          	j	11498 <_malloc_r+0xa4>
   1166c:	20000613          	li	a2,512
   11670:	04000593          	li	a1,64
   11674:	03f00813          	li	a6,63
   11678:	e8dff06f          	j	11504 <_malloc_r+0x110>
   1167c:	0089a403          	lw	s0,8(s3)
   11680:	00442783          	lw	a5,4(s0)
   11684:	ffc7fb13          	andi	s6,a5,-4
   11688:	009b6863          	bltu	s6,s1,11698 <_malloc_r+0x2a4>
   1168c:	409b0733          	sub	a4,s6,s1
   11690:	00f00793          	li	a5,15
   11694:	0ae7c863          	blt	a5,a4,11744 <_malloc_r+0x350>
   11698:	f1018c93          	addi	s9,gp,-240 # 237d0 <__malloc_sbrk_base>
   1169c:	000ca703          	lw	a4,0(s9)
   116a0:	f2c1aa83          	lw	s5,-212(gp) # 237ec <__malloc_top_pad>
   116a4:	fff00793          	li	a5,-1
   116a8:	01640a33          	add	s4,s0,s6
   116ac:	01548ab3          	add	s5,s1,s5
   116b0:	3af70663          	beq	a4,a5,11a5c <_malloc_r+0x668>
   116b4:	000017b7          	lui	a5,0x1
   116b8:	00f78793          	addi	a5,a5,15 # 100f <exit-0xf085>
   116bc:	00fa8ab3          	add	s5,s5,a5
   116c0:	fffff7b7          	lui	a5,0xfffff
   116c4:	00fafab3          	and	s5,s5,a5
   116c8:	000a8593          	mv	a1,s5
   116cc:	00090513          	mv	a0,s2
   116d0:	330050ef          	jal	ra,16a00 <_sbrk_r>
   116d4:	fff00793          	li	a5,-1
   116d8:	00050b93          	mv	s7,a0
   116dc:	20f50663          	beq	a0,a5,118e8 <_malloc_r+0x4f4>
   116e0:	21456263          	bltu	a0,s4,118e4 <_malloc_r+0x4f0>
   116e4:	08c18c13          	addi	s8,gp,140 # 2394c <__malloc_current_mallinfo>
   116e8:	000c2583          	lw	a1,0(s8)
   116ec:	00ba85b3          	add	a1,s5,a1
   116f0:	00bc2023          	sw	a1,0(s8)
   116f4:	00058713          	mv	a4,a1
   116f8:	28aa1863          	bne	s4,a0,11988 <_malloc_r+0x594>
   116fc:	01451793          	slli	a5,a0,0x14
   11700:	28079463          	bnez	a5,11988 <_malloc_r+0x594>
   11704:	0089ab83          	lw	s7,8(s3)
   11708:	015b07b3          	add	a5,s6,s5
   1170c:	0017e793          	ori	a5,a5,1
   11710:	00fba223          	sw	a5,4(s7)
   11714:	f2818713          	addi	a4,gp,-216 # 237e8 <__malloc_max_sbrked_mem>
   11718:	00072683          	lw	a3,0(a4)
   1171c:	00b6f463          	bgeu	a3,a1,11724 <_malloc_r+0x330>
   11720:	00b72023          	sw	a1,0(a4)
   11724:	f2418713          	addi	a4,gp,-220 # 237e4 <__malloc_max_total_mem>
   11728:	00072683          	lw	a3,0(a4)
   1172c:	00b6f463          	bgeu	a3,a1,11734 <_malloc_r+0x340>
   11730:	00b72023          	sw	a1,0(a4)
   11734:	000b8413          	mv	s0,s7
   11738:	1b80006f          	j	118f0 <_malloc_r+0x4fc>
   1173c:	0049a503          	lw	a0,4(s3)
   11740:	e7dff06f          	j	115bc <_malloc_r+0x1c8>
   11744:	0014e793          	ori	a5,s1,1
   11748:	00f42223          	sw	a5,4(s0)
   1174c:	009404b3          	add	s1,s0,s1
   11750:	0099a423          	sw	s1,8(s3)
   11754:	00176713          	ori	a4,a4,1
   11758:	00090513          	mv	a0,s2
   1175c:	00e4a223          	sw	a4,4(s1)
   11760:	424000ef          	jal	ra,11b84 <__malloc_unlock>
   11764:	00840513          	addi	a0,s0,8
   11768:	d31ff06f          	j	11498 <_malloc_r+0xa4>
   1176c:	00842603          	lw	a2,8(s0)
   11770:	d05ff06f          	j	11474 <_malloc_r+0x80>
   11774:	00c7a403          	lw	s0,12(a5) # fffff00c <__BSS_END__+0xfffdb508>
   11778:	00258593          	addi	a1,a1,2
   1177c:	dc8786e3          	beq	a5,s0,11548 <_malloc_r+0x154>
   11780:	ce5ff06f          	j	11464 <_malloc_r+0x70>
   11784:	0097d713          	srli	a4,a5,0x9
   11788:	00400693          	li	a3,4
   1178c:	14e6f263          	bgeu	a3,a4,118d0 <_malloc_r+0x4dc>
   11790:	01400693          	li	a3,20
   11794:	30e6ea63          	bltu	a3,a4,11aa8 <_malloc_r+0x6b4>
   11798:	05c70613          	addi	a2,a4,92
   1179c:	05b70693          	addi	a3,a4,91
   117a0:	00361613          	slli	a2,a2,0x3
   117a4:	00c98633          	add	a2,s3,a2
   117a8:	00062703          	lw	a4,0(a2)
   117ac:	ff860613          	addi	a2,a2,-8
   117b0:	00e61863          	bne	a2,a4,117c0 <_malloc_r+0x3cc>
   117b4:	2b00006f          	j	11a64 <_malloc_r+0x670>
   117b8:	00872703          	lw	a4,8(a4)
   117bc:	00e60863          	beq	a2,a4,117cc <_malloc_r+0x3d8>
   117c0:	00472683          	lw	a3,4(a4)
   117c4:	ffc6f693          	andi	a3,a3,-4
   117c8:	fed7e8e3          	bltu	a5,a3,117b8 <_malloc_r+0x3c4>
   117cc:	00c72603          	lw	a2,12(a4)
   117d0:	00c42623          	sw	a2,12(s0)
   117d4:	00e42423          	sw	a4,8(s0)
   117d8:	00862423          	sw	s0,8(a2)
   117dc:	00872623          	sw	s0,12(a4)
   117e0:	dddff06f          	j	115bc <_malloc_r+0x1c8>
   117e4:	01400713          	li	a4,20
   117e8:	12f77663          	bgeu	a4,a5,11914 <_malloc_r+0x520>
   117ec:	05400713          	li	a4,84
   117f0:	2cf76a63          	bltu	a4,a5,11ac4 <_malloc_r+0x6d0>
   117f4:	00c4d793          	srli	a5,s1,0xc
   117f8:	06f78593          	addi	a1,a5,111
   117fc:	06e78813          	addi	a6,a5,110
   11800:	00359613          	slli	a2,a1,0x3
   11804:	d01ff06f          	j	11504 <_malloc_r+0x110>
   11808:	001e0e13          	addi	t3,t3,1
   1180c:	003e7793          	andi	a5,t3,3
   11810:	00850513          	addi	a0,a0,8
   11814:	10078e63          	beqz	a5,11930 <_malloc_r+0x53c>
   11818:	00c52783          	lw	a5,12(a0)
   1181c:	df5ff06f          	j	11610 <_malloc_r+0x21c>
   11820:	00842603          	lw	a2,8(s0)
   11824:	0014e593          	ori	a1,s1,1
   11828:	00b42223          	sw	a1,4(s0)
   1182c:	00f62623          	sw	a5,12(a2)
   11830:	00c7a423          	sw	a2,8(a5)
   11834:	009404b3          	add	s1,s0,s1
   11838:	0099aa23          	sw	s1,20(s3)
   1183c:	0099a823          	sw	s1,16(s3)
   11840:	0016e793          	ori	a5,a3,1
   11844:	0114a623          	sw	a7,12(s1)
   11848:	0114a423          	sw	a7,8(s1)
   1184c:	00f4a223          	sw	a5,4(s1)
   11850:	00e40733          	add	a4,s0,a4
   11854:	00090513          	mv	a0,s2
   11858:	00d72023          	sw	a3,0(a4)
   1185c:	328000ef          	jal	ra,11b84 <__malloc_unlock>
   11860:	00840513          	addi	a0,s0,8
   11864:	c35ff06f          	j	11498 <_malloc_r+0xa4>
   11868:	00f407b3          	add	a5,s0,a5
   1186c:	0047a703          	lw	a4,4(a5)
   11870:	00090513          	mv	a0,s2
   11874:	00176713          	ori	a4,a4,1
   11878:	00e7a223          	sw	a4,4(a5)
   1187c:	308000ef          	jal	ra,11b84 <__malloc_unlock>
   11880:	00840513          	addi	a0,s0,8
   11884:	c15ff06f          	j	11498 <_malloc_r+0xa4>
   11888:	0034d593          	srli	a1,s1,0x3
   1188c:	00848793          	addi	a5,s1,8
   11890:	bbdff06f          	j	1144c <_malloc_r+0x58>
   11894:	0014e693          	ori	a3,s1,1
   11898:	00d42223          	sw	a3,4(s0)
   1189c:	009404b3          	add	s1,s0,s1
   118a0:	0099aa23          	sw	s1,20(s3)
   118a4:	0099a823          	sw	s1,16(s3)
   118a8:	00176693          	ori	a3,a4,1
   118ac:	0114a623          	sw	a7,12(s1)
   118b0:	0114a423          	sw	a7,8(s1)
   118b4:	00d4a223          	sw	a3,4(s1)
   118b8:	00f407b3          	add	a5,s0,a5
   118bc:	00090513          	mv	a0,s2
   118c0:	00e7a023          	sw	a4,0(a5)
   118c4:	2c0000ef          	jal	ra,11b84 <__malloc_unlock>
   118c8:	00840513          	addi	a0,s0,8
   118cc:	bcdff06f          	j	11498 <_malloc_r+0xa4>
   118d0:	0067d713          	srli	a4,a5,0x6
   118d4:	03970613          	addi	a2,a4,57
   118d8:	03870693          	addi	a3,a4,56
   118dc:	00361613          	slli	a2,a2,0x3
   118e0:	ec5ff06f          	j	117a4 <_malloc_r+0x3b0>
   118e4:	09340a63          	beq	s0,s3,11978 <_malloc_r+0x584>
   118e8:	0089a403          	lw	s0,8(s3)
   118ec:	00442783          	lw	a5,4(s0)
   118f0:	ffc7f793          	andi	a5,a5,-4
   118f4:	40978733          	sub	a4,a5,s1
   118f8:	0097e663          	bltu	a5,s1,11904 <_malloc_r+0x510>
   118fc:	00f00793          	li	a5,15
   11900:	e4e7c2e3          	blt	a5,a4,11744 <_malloc_r+0x350>
   11904:	00090513          	mv	a0,s2
   11908:	27c000ef          	jal	ra,11b84 <__malloc_unlock>
   1190c:	00000513          	li	a0,0
   11910:	b89ff06f          	j	11498 <_malloc_r+0xa4>
   11914:	05c78593          	addi	a1,a5,92
   11918:	05b78813          	addi	a6,a5,91
   1191c:	00359613          	slli	a2,a1,0x3
   11920:	be5ff06f          	j	11504 <_malloc_r+0x110>
   11924:	00832783          	lw	a5,8(t1)
   11928:	fff58593          	addi	a1,a1,-1
   1192c:	24679663          	bne	a5,t1,11b78 <_malloc_r+0x784>
   11930:	0035f793          	andi	a5,a1,3
   11934:	ff830313          	addi	t1,t1,-8
   11938:	fe0796e3          	bnez	a5,11924 <_malloc_r+0x530>
   1193c:	0049a703          	lw	a4,4(s3)
   11940:	fff64793          	not	a5,a2
   11944:	00e7f7b3          	and	a5,a5,a4
   11948:	00f9a223          	sw	a5,4(s3)
   1194c:	00161613          	slli	a2,a2,0x1
   11950:	d2c7e6e3          	bltu	a5,a2,1167c <_malloc_r+0x288>
   11954:	d20604e3          	beqz	a2,1167c <_malloc_r+0x288>
   11958:	00f67733          	and	a4,a2,a5
   1195c:	00071a63          	bnez	a4,11970 <_malloc_r+0x57c>
   11960:	00161613          	slli	a2,a2,0x1
   11964:	00f67733          	and	a4,a2,a5
   11968:	004e0e13          	addi	t3,t3,4
   1196c:	fe070ae3          	beqz	a4,11960 <_malloc_r+0x56c>
   11970:	000e0593          	mv	a1,t3
   11974:	c89ff06f          	j	115fc <_malloc_r+0x208>
   11978:	08c18c13          	addi	s8,gp,140 # 2394c <__malloc_current_mallinfo>
   1197c:	000c2703          	lw	a4,0(s8)
   11980:	00ea8733          	add	a4,s5,a4
   11984:	00ec2023          	sw	a4,0(s8)
   11988:	000ca683          	lw	a3,0(s9)
   1198c:	fff00793          	li	a5,-1
   11990:	14f68863          	beq	a3,a5,11ae0 <_malloc_r+0x6ec>
   11994:	414b87b3          	sub	a5,s7,s4
   11998:	00e787b3          	add	a5,a5,a4
   1199c:	00fc2023          	sw	a5,0(s8)
   119a0:	007bfc93          	andi	s9,s7,7
   119a4:	0c0c8c63          	beqz	s9,11a7c <_malloc_r+0x688>
   119a8:	00001737          	lui	a4,0x1
   119ac:	419b8bb3          	sub	s7,s7,s9
   119b0:	00870593          	addi	a1,a4,8 # 1008 <exit-0xf08c>
   119b4:	008b8b93          	addi	s7,s7,8
   119b8:	419585b3          	sub	a1,a1,s9
   119bc:	015b8ab3          	add	s5,s7,s5
   119c0:	415585b3          	sub	a1,a1,s5
   119c4:	fff70713          	addi	a4,a4,-1
   119c8:	00e5fa33          	and	s4,a1,a4
   119cc:	000a0593          	mv	a1,s4
   119d0:	00090513          	mv	a0,s2
   119d4:	02c050ef          	jal	ra,16a00 <_sbrk_r>
   119d8:	fff00793          	li	a5,-1
   119dc:	14f50863          	beq	a0,a5,11b2c <_malloc_r+0x738>
   119e0:	41750533          	sub	a0,a0,s7
   119e4:	01450ab3          	add	s5,a0,s4
   119e8:	000c2703          	lw	a4,0(s8)
   119ec:	0179a423          	sw	s7,8(s3)
   119f0:	001ae793          	ori	a5,s5,1
   119f4:	00ea05b3          	add	a1,s4,a4
   119f8:	00bc2023          	sw	a1,0(s8)
   119fc:	00fba223          	sw	a5,4(s7)
   11a00:	d1340ae3          	beq	s0,s3,11714 <_malloc_r+0x320>
   11a04:	00f00693          	li	a3,15
   11a08:	0f66f063          	bgeu	a3,s6,11ae8 <_malloc_r+0x6f4>
   11a0c:	00442703          	lw	a4,4(s0)
   11a10:	ff4b0793          	addi	a5,s6,-12
   11a14:	ff87f793          	andi	a5,a5,-8
   11a18:	00177713          	andi	a4,a4,1
   11a1c:	00f76733          	or	a4,a4,a5
   11a20:	00e42223          	sw	a4,4(s0)
   11a24:	00500613          	li	a2,5
   11a28:	00f40733          	add	a4,s0,a5
   11a2c:	00c72223          	sw	a2,4(a4)
   11a30:	00c72423          	sw	a2,8(a4)
   11a34:	00f6e663          	bltu	a3,a5,11a40 <_malloc_r+0x64c>
   11a38:	004ba783          	lw	a5,4(s7)
   11a3c:	cd9ff06f          	j	11714 <_malloc_r+0x320>
   11a40:	00840593          	addi	a1,s0,8
   11a44:	00090513          	mv	a0,s2
   11a48:	ea8ff0ef          	jal	ra,110f0 <_free_r>
   11a4c:	0089ab83          	lw	s7,8(s3)
   11a50:	000c2583          	lw	a1,0(s8)
   11a54:	004ba783          	lw	a5,4(s7)
   11a58:	cbdff06f          	j	11714 <_malloc_r+0x320>
   11a5c:	010a8a93          	addi	s5,s5,16
   11a60:	c69ff06f          	j	116c8 <_malloc_r+0x2d4>
   11a64:	4026d693          	srai	a3,a3,0x2
   11a68:	00100793          	li	a5,1
   11a6c:	00d797b3          	sll	a5,a5,a3
   11a70:	00f56533          	or	a0,a0,a5
   11a74:	00a9a223          	sw	a0,4(s3)
   11a78:	d59ff06f          	j	117d0 <_malloc_r+0x3dc>
   11a7c:	015b85b3          	add	a1,s7,s5
   11a80:	40b005b3          	neg	a1,a1
   11a84:	01459593          	slli	a1,a1,0x14
   11a88:	0145da13          	srli	s4,a1,0x14
   11a8c:	000a0593          	mv	a1,s4
   11a90:	00090513          	mv	a0,s2
   11a94:	76d040ef          	jal	ra,16a00 <_sbrk_r>
   11a98:	fff00793          	li	a5,-1
   11a9c:	f4f512e3          	bne	a0,a5,119e0 <_malloc_r+0x5ec>
   11aa0:	00000a13          	li	s4,0
   11aa4:	f45ff06f          	j	119e8 <_malloc_r+0x5f4>
   11aa8:	05400693          	li	a3,84
   11aac:	04e6e463          	bltu	a3,a4,11af4 <_malloc_r+0x700>
   11ab0:	00c7d713          	srli	a4,a5,0xc
   11ab4:	06f70613          	addi	a2,a4,111
   11ab8:	06e70693          	addi	a3,a4,110
   11abc:	00361613          	slli	a2,a2,0x3
   11ac0:	ce5ff06f          	j	117a4 <_malloc_r+0x3b0>
   11ac4:	15400713          	li	a4,340
   11ac8:	04f76463          	bltu	a4,a5,11b10 <_malloc_r+0x71c>
   11acc:	00f4d793          	srli	a5,s1,0xf
   11ad0:	07878593          	addi	a1,a5,120
   11ad4:	07778813          	addi	a6,a5,119
   11ad8:	00359613          	slli	a2,a1,0x3
   11adc:	a29ff06f          	j	11504 <_malloc_r+0x110>
   11ae0:	017ca023          	sw	s7,0(s9)
   11ae4:	ebdff06f          	j	119a0 <_malloc_r+0x5ac>
   11ae8:	00100793          	li	a5,1
   11aec:	00fba223          	sw	a5,4(s7)
   11af0:	e15ff06f          	j	11904 <_malloc_r+0x510>
   11af4:	15400693          	li	a3,340
   11af8:	04e6e463          	bltu	a3,a4,11b40 <_malloc_r+0x74c>
   11afc:	00f7d713          	srli	a4,a5,0xf
   11b00:	07870613          	addi	a2,a4,120
   11b04:	07770693          	addi	a3,a4,119
   11b08:	00361613          	slli	a2,a2,0x3
   11b0c:	c99ff06f          	j	117a4 <_malloc_r+0x3b0>
   11b10:	55400713          	li	a4,1364
   11b14:	04f76463          	bltu	a4,a5,11b5c <_malloc_r+0x768>
   11b18:	0124d793          	srli	a5,s1,0x12
   11b1c:	07d78593          	addi	a1,a5,125
   11b20:	07c78813          	addi	a6,a5,124
   11b24:	00359613          	slli	a2,a1,0x3
   11b28:	9ddff06f          	j	11504 <_malloc_r+0x110>
   11b2c:	ff8c8c93          	addi	s9,s9,-8
   11b30:	019a8ab3          	add	s5,s5,s9
   11b34:	417a8ab3          	sub	s5,s5,s7
   11b38:	00000a13          	li	s4,0
   11b3c:	eadff06f          	j	119e8 <_malloc_r+0x5f4>
   11b40:	55400693          	li	a3,1364
   11b44:	02e6e463          	bltu	a3,a4,11b6c <_malloc_r+0x778>
   11b48:	0127d713          	srli	a4,a5,0x12
   11b4c:	07d70613          	addi	a2,a4,125
   11b50:	07c70693          	addi	a3,a4,124
   11b54:	00361613          	slli	a2,a2,0x3
   11b58:	c4dff06f          	j	117a4 <_malloc_r+0x3b0>
   11b5c:	3f800613          	li	a2,1016
   11b60:	07f00593          	li	a1,127
   11b64:	07e00813          	li	a6,126
   11b68:	99dff06f          	j	11504 <_malloc_r+0x110>
   11b6c:	3f800613          	li	a2,1016
   11b70:	07e00693          	li	a3,126
   11b74:	c31ff06f          	j	117a4 <_malloc_r+0x3b0>
   11b78:	0049a783          	lw	a5,4(s3)
   11b7c:	dd1ff06f          	j	1194c <_malloc_r+0x558>

00011b80 <__malloc_lock>:
   11b80:	00008067          	ret

00011b84 <__malloc_unlock>:
   11b84:	00008067          	ret

00011b88 <_vfprintf_r>:
   11b88:	e1010113          	addi	sp,sp,-496
   11b8c:	1e112623          	sw	ra,492(sp)
   11b90:	1e812423          	sw	s0,488(sp)
   11b94:	1da12023          	sw	s10,448(sp)
   11b98:	00b12023          	sw	a1,0(sp)
   11b9c:	00060d13          	mv	s10,a2
   11ba0:	00d12623          	sw	a3,12(sp)
   11ba4:	1e912223          	sw	s1,484(sp)
   11ba8:	1f212023          	sw	s2,480(sp)
   11bac:	1d312e23          	sw	s3,476(sp)
   11bb0:	1d412c23          	sw	s4,472(sp)
   11bb4:	1d512a23          	sw	s5,468(sp)
   11bb8:	1d612823          	sw	s6,464(sp)
   11bbc:	1d712623          	sw	s7,460(sp)
   11bc0:	1d812423          	sw	s8,456(sp)
   11bc4:	1d912223          	sw	s9,452(sp)
   11bc8:	1bb12e23          	sw	s11,444(sp)
   11bcc:	00050413          	mv	s0,a0
   11bd0:	02a12023          	sw	a0,32(sp)
   11bd4:	61d040ef          	jal	ra,169f0 <_localeconv_r>
   11bd8:	00052703          	lw	a4,0(a0)
   11bdc:	00070513          	mv	a0,a4
   11be0:	02e12423          	sw	a4,40(sp)
   11be4:	7e5040ef          	jal	ra,16bc8 <strlen>
   11be8:	02a12223          	sw	a0,36(sp)
   11bec:	0e012823          	sw	zero,240(sp)
   11bf0:	0e012a23          	sw	zero,244(sp)
   11bf4:	0e012c23          	sw	zero,248(sp)
   11bf8:	0e012e23          	sw	zero,252(sp)
   11bfc:	00040863          	beqz	s0,11c0c <_vfprintf_r+0x84>
   11c00:	03442783          	lw	a5,52(s0)
   11c04:	00079463          	bnez	a5,11c0c <_vfprintf_r+0x84>
   11c08:	0350106f          	j	1343c <_vfprintf_r+0x18b4>
   11c0c:	00012603          	lw	a2,0(sp)
   11c10:	00c61783          	lh	a5,12(a2)
   11c14:	01279713          	slli	a4,a5,0x12
   11c18:	02074663          	bltz	a4,11c44 <_vfprintf_r+0xbc>
   11c1c:	06462703          	lw	a4,100(a2)
   11c20:	000026b7          	lui	a3,0x2
   11c24:	00d7e7b3          	or	a5,a5,a3
   11c28:	ffffe6b7          	lui	a3,0xffffe
   11c2c:	01079793          	slli	a5,a5,0x10
   11c30:	fff68693          	addi	a3,a3,-1 # ffffdfff <__BSS_END__+0xfffda4fb>
   11c34:	4107d793          	srai	a5,a5,0x10
   11c38:	00d77733          	and	a4,a4,a3
   11c3c:	00f61623          	sh	a5,12(a2)
   11c40:	06e62223          	sw	a4,100(a2)
   11c44:	0087f713          	andi	a4,a5,8
   11c48:	2e070263          	beqz	a4,11f2c <_vfprintf_r+0x3a4>
   11c4c:	00012703          	lw	a4,0(sp)
   11c50:	01072703          	lw	a4,16(a4)
   11c54:	2c070c63          	beqz	a4,11f2c <_vfprintf_r+0x3a4>
   11c58:	01a7f793          	andi	a5,a5,26
   11c5c:	00a00713          	li	a4,10
   11c60:	2ee78a63          	beq	a5,a4,11f54 <_vfprintf_r+0x3cc>
   11c64:	000d0c13          	mv	s8,s10
   11c68:	000c4703          	lbu	a4,0(s8)
   11c6c:	10c10d93          	addi	s11,sp,268
   11c70:	0fb12223          	sw	s11,228(sp)
   11c74:	0e012623          	sw	zero,236(sp)
   11c78:	0e012423          	sw	zero,232(sp)
   11c7c:	00012a23          	sw	zero,20(sp)
   11c80:	02012623          	sw	zero,44(sp)
   11c84:	02012c23          	sw	zero,56(sp)
   11c88:	02012a23          	sw	zero,52(sp)
   11c8c:	04012023          	sw	zero,64(sp)
   11c90:	02012e23          	sw	zero,60(sp)
   11c94:	00012223          	sw	zero,4(sp)
   11c98:	02012983          	lw	s3,32(sp)
   11c9c:	01000b13          	li	s6,16
   11ca0:	000d8413          	mv	s0,s11
   11ca4:	22070463          	beqz	a4,11ecc <_vfprintf_r+0x344>
   11ca8:	000c0493          	mv	s1,s8
   11cac:	02500693          	li	a3,37
   11cb0:	40d70863          	beq	a4,a3,120c0 <_vfprintf_r+0x538>
   11cb4:	0014c703          	lbu	a4,1(s1)
   11cb8:	00148493          	addi	s1,s1,1
   11cbc:	fe071ae3          	bnez	a4,11cb0 <_vfprintf_r+0x128>
   11cc0:	41848933          	sub	s2,s1,s8
   11cc4:	21848463          	beq	s1,s8,11ecc <_vfprintf_r+0x344>
   11cc8:	0ec12683          	lw	a3,236(sp)
   11ccc:	0e812703          	lw	a4,232(sp)
   11cd0:	01842023          	sw	s8,0(s0)
   11cd4:	012686b3          	add	a3,a3,s2
   11cd8:	00170713          	addi	a4,a4,1
   11cdc:	01242223          	sw	s2,4(s0)
   11ce0:	0ed12623          	sw	a3,236(sp)
   11ce4:	0ee12423          	sw	a4,232(sp)
   11ce8:	00700693          	li	a3,7
   11cec:	00840413          	addi	s0,s0,8
   11cf0:	3ee6c063          	blt	a3,a4,120d0 <_vfprintf_r+0x548>
   11cf4:	00412783          	lw	a5,4(sp)
   11cf8:	0004c703          	lbu	a4,0(s1)
   11cfc:	012787b3          	add	a5,a5,s2
   11d00:	00f12223          	sw	a5,4(sp)
   11d04:	1c070463          	beqz	a4,11ecc <_vfprintf_r+0x344>
   11d08:	0014c883          	lbu	a7,1(s1)
   11d0c:	0c0103a3          	sb	zero,199(sp)
   11d10:	00148493          	addi	s1,s1,1
   11d14:	fff00913          	li	s2,-1
   11d18:	00000a13          	li	s4,0
   11d1c:	00000b93          	li	s7,0
   11d20:	05a00c93          	li	s9,90
   11d24:	00148493          	addi	s1,s1,1
   11d28:	fe088793          	addi	a5,a7,-32
   11d2c:	04fcea63          	bltu	s9,a5,11d80 <_vfprintf_r+0x1f8>
   11d30:	00010717          	auipc	a4,0x10
   11d34:	17c70713          	addi	a4,a4,380 # 21eac <__clzsi2+0x194>
   11d38:	00279793          	slli	a5,a5,0x2
   11d3c:	00e787b3          	add	a5,a5,a4
   11d40:	0007a783          	lw	a5,0(a5)
   11d44:	00e787b3          	add	a5,a5,a4
   11d48:	00078067          	jr	a5
   11d4c:	00000a13          	li	s4,0
   11d50:	fd088793          	addi	a5,a7,-48
   11d54:	00900693          	li	a3,9
   11d58:	0004c883          	lbu	a7,0(s1)
   11d5c:	002a1713          	slli	a4,s4,0x2
   11d60:	01470a33          	add	s4,a4,s4
   11d64:	001a1a13          	slli	s4,s4,0x1
   11d68:	01478a33          	add	s4,a5,s4
   11d6c:	fd088793          	addi	a5,a7,-48
   11d70:	00148493          	addi	s1,s1,1
   11d74:	fef6f2e3          	bgeu	a3,a5,11d58 <_vfprintf_r+0x1d0>
   11d78:	fe088793          	addi	a5,a7,-32
   11d7c:	fafcfae3          	bgeu	s9,a5,11d30 <_vfprintf_r+0x1a8>
   11d80:	14088663          	beqz	a7,11ecc <_vfprintf_r+0x344>
   11d84:	15110623          	sb	a7,332(sp)
   11d88:	0c0103a3          	sb	zero,199(sp)
   11d8c:	00100c93          	li	s9,1
   11d90:	00100d13          	li	s10,1
   11d94:	14c10c13          	addi	s8,sp,332
   11d98:	00012423          	sw	zero,8(sp)
   11d9c:	00000913          	li	s2,0
   11da0:	00012e23          	sw	zero,28(sp)
   11da4:	00012c23          	sw	zero,24(sp)
   11da8:	00012823          	sw	zero,16(sp)
   11dac:	002bf293          	andi	t0,s7,2
   11db0:	00028463          	beqz	t0,11db8 <_vfprintf_r+0x230>
   11db4:	002c8c93          	addi	s9,s9,2
   11db8:	084bff93          	andi	t6,s7,132
   11dbc:	0ec12603          	lw	a2,236(sp)
   11dc0:	000f9663          	bnez	t6,11dcc <_vfprintf_r+0x244>
   11dc4:	419a06b3          	sub	a3,s4,s9
   11dc8:	42d04ce3          	bgtz	a3,12a00 <_vfprintf_r+0xe78>
   11dcc:	0c714683          	lbu	a3,199(sp)
   11dd0:	02068a63          	beqz	a3,11e04 <_vfprintf_r+0x27c>
   11dd4:	0e812683          	lw	a3,232(sp)
   11dd8:	0c710593          	addi	a1,sp,199
   11ddc:	00b42023          	sw	a1,0(s0)
   11de0:	00160613          	addi	a2,a2,1
   11de4:	00100593          	li	a1,1
   11de8:	00168693          	addi	a3,a3,1
   11dec:	00b42223          	sw	a1,4(s0)
   11df0:	0ec12623          	sw	a2,236(sp)
   11df4:	0ed12423          	sw	a3,232(sp)
   11df8:	00700593          	li	a1,7
   11dfc:	00840413          	addi	s0,s0,8
   11e00:	3cd5c663          	blt	a1,a3,121cc <_vfprintf_r+0x644>
   11e04:	02028a63          	beqz	t0,11e38 <_vfprintf_r+0x2b0>
   11e08:	0e812683          	lw	a3,232(sp)
   11e0c:	00200593          	li	a1,2
   11e10:	00260613          	addi	a2,a2,2
   11e14:	00168693          	addi	a3,a3,1
   11e18:	0c810793          	addi	a5,sp,200
   11e1c:	00b42223          	sw	a1,4(s0)
   11e20:	00f42023          	sw	a5,0(s0)
   11e24:	0ec12623          	sw	a2,236(sp)
   11e28:	0ed12423          	sw	a3,232(sp)
   11e2c:	00700593          	li	a1,7
   11e30:	00840413          	addi	s0,s0,8
   11e34:	4ed5c0e3          	blt	a1,a3,12b14 <_vfprintf_r+0xf8c>
   11e38:	08000693          	li	a3,128
   11e3c:	1adf8ee3          	beq	t6,a3,127f8 <_vfprintf_r+0xc70>
   11e40:	41a90933          	sub	s2,s2,s10
   11e44:	2b2048e3          	bgtz	s2,128f4 <_vfprintf_r+0xd6c>
   11e48:	100bf693          	andi	a3,s7,256
   11e4c:	020694e3          	bnez	a3,12674 <_vfprintf_r+0xaec>
   11e50:	0e812783          	lw	a5,232(sp)
   11e54:	01a60633          	add	a2,a2,s10
   11e58:	01842023          	sw	s8,0(s0)
   11e5c:	00178793          	addi	a5,a5,1
   11e60:	01a42223          	sw	s10,4(s0)
   11e64:	0ec12623          	sw	a2,236(sp)
   11e68:	0ef12423          	sw	a5,232(sp)
   11e6c:	00700693          	li	a3,7
   11e70:	48f6ce63          	blt	a3,a5,1230c <_vfprintf_r+0x784>
   11e74:	00840413          	addi	s0,s0,8
   11e78:	004bf713          	andi	a4,s7,4
   11e7c:	00070663          	beqz	a4,11e88 <_vfprintf_r+0x300>
   11e80:	419a0933          	sub	s2,s4,s9
   11e84:	4d2040e3          	bgtz	s2,12b44 <_vfprintf_r+0xfbc>
   11e88:	000a0313          	mv	t1,s4
   11e8c:	019a5463          	bge	s4,s9,11e94 <_vfprintf_r+0x30c>
   11e90:	000c8313          	mv	t1,s9
   11e94:	00412783          	lw	a5,4(sp)
   11e98:	006787b3          	add	a5,a5,t1
   11e9c:	00f12223          	sw	a5,4(sp)
   11ea0:	320618e3          	bnez	a2,129d0 <_vfprintf_r+0xe48>
   11ea4:	00812783          	lw	a5,8(sp)
   11ea8:	0e012423          	sw	zero,232(sp)
   11eac:	00078863          	beqz	a5,11ebc <_vfprintf_r+0x334>
   11eb0:	00812583          	lw	a1,8(sp)
   11eb4:	00098513          	mv	a0,s3
   11eb8:	a38ff0ef          	jal	ra,110f0 <_free_r>
   11ebc:	000d8413          	mv	s0,s11
   11ec0:	00048c13          	mv	s8,s1
   11ec4:	000c4703          	lbu	a4,0(s8)
   11ec8:	de0710e3          	bnez	a4,11ca8 <_vfprintf_r+0x120>
   11ecc:	0ec12783          	lw	a5,236(sp)
   11ed0:	00078463          	beqz	a5,11ed8 <_vfprintf_r+0x350>
   11ed4:	2a90106f          	j	1397c <_vfprintf_r+0x1df4>
   11ed8:	00012783          	lw	a5,0(sp)
   11edc:	00c7d783          	lhu	a5,12(a5)
   11ee0:	0407f793          	andi	a5,a5,64
   11ee4:	00078463          	beqz	a5,11eec <_vfprintf_r+0x364>
   11ee8:	28c0206f          	j	14174 <_vfprintf_r+0x25ec>
   11eec:	1ec12083          	lw	ra,492(sp)
   11ef0:	1e812403          	lw	s0,488(sp)
   11ef4:	00412503          	lw	a0,4(sp)
   11ef8:	1e412483          	lw	s1,484(sp)
   11efc:	1e012903          	lw	s2,480(sp)
   11f00:	1dc12983          	lw	s3,476(sp)
   11f04:	1d812a03          	lw	s4,472(sp)
   11f08:	1d412a83          	lw	s5,468(sp)
   11f0c:	1d012b03          	lw	s6,464(sp)
   11f10:	1cc12b83          	lw	s7,460(sp)
   11f14:	1c812c03          	lw	s8,456(sp)
   11f18:	1c412c83          	lw	s9,452(sp)
   11f1c:	1c012d03          	lw	s10,448(sp)
   11f20:	1bc12d83          	lw	s11,444(sp)
   11f24:	1f010113          	addi	sp,sp,496
   11f28:	00008067          	ret
   11f2c:	00012583          	lw	a1,0(sp)
   11f30:	02012503          	lw	a0,32(sp)
   11f34:	570040ef          	jal	ra,164a4 <__swsetup_r>
   11f38:	00050463          	beqz	a0,11f40 <_vfprintf_r+0x3b8>
   11f3c:	2380206f          	j	14174 <_vfprintf_r+0x25ec>
   11f40:	00012783          	lw	a5,0(sp)
   11f44:	00a00713          	li	a4,10
   11f48:	00c79783          	lh	a5,12(a5)
   11f4c:	01a7f793          	andi	a5,a5,26
   11f50:	d0e79ae3          	bne	a5,a4,11c64 <_vfprintf_r+0xdc>
   11f54:	00012783          	lw	a5,0(sp)
   11f58:	00e79783          	lh	a5,14(a5)
   11f5c:	d007c4e3          	bltz	a5,11c64 <_vfprintf_r+0xdc>
   11f60:	00c12683          	lw	a3,12(sp)
   11f64:	00012583          	lw	a1,0(sp)
   11f68:	02012503          	lw	a0,32(sp)
   11f6c:	000d0613          	mv	a2,s10
   11f70:	5cc020ef          	jal	ra,1453c <__sbprintf>
   11f74:	00a12223          	sw	a0,4(sp)
   11f78:	f75ff06f          	j	11eec <_vfprintf_r+0x364>
   11f7c:	00098513          	mv	a0,s3
   11f80:	271040ef          	jal	ra,169f0 <_localeconv_r>
   11f84:	00452783          	lw	a5,4(a0)
   11f88:	00078513          	mv	a0,a5
   11f8c:	02f12e23          	sw	a5,60(sp)
   11f90:	439040ef          	jal	ra,16bc8 <strlen>
   11f94:	00050793          	mv	a5,a0
   11f98:	00098513          	mv	a0,s3
   11f9c:	00078a93          	mv	s5,a5
   11fa0:	04f12023          	sw	a5,64(sp)
   11fa4:	24d040ef          	jal	ra,169f0 <_localeconv_r>
   11fa8:	00852703          	lw	a4,8(a0)
   11fac:	02e12a23          	sw	a4,52(sp)
   11fb0:	740a98e3          	bnez	s5,12f00 <_vfprintf_r+0x1378>
   11fb4:	0004c883          	lbu	a7,0(s1)
   11fb8:	d6dff06f          	j	11d24 <_vfprintf_r+0x19c>
   11fbc:	0004c883          	lbu	a7,0(s1)
   11fc0:	020beb93          	ori	s7,s7,32
   11fc4:	d61ff06f          	j	11d24 <_vfprintf_r+0x19c>
   11fc8:	010beb93          	ori	s7,s7,16
   11fcc:	020bf793          	andi	a5,s7,32
   11fd0:	38078663          	beqz	a5,1235c <_vfprintf_r+0x7d4>
   11fd4:	00c12783          	lw	a5,12(sp)
   11fd8:	00778a93          	addi	s5,a5,7
   11fdc:	ff8afa93          	andi	s5,s5,-8
   11fe0:	004aa783          	lw	a5,4(s5)
   11fe4:	000aad03          	lw	s10,0(s5)
   11fe8:	008a8713          	addi	a4,s5,8
   11fec:	00e12623          	sw	a4,12(sp)
   11ff0:	00078c93          	mv	s9,a5
   11ff4:	3807ce63          	bltz	a5,12390 <_vfprintf_r+0x808>
   11ff8:	fff00793          	li	a5,-1
   11ffc:	000b8613          	mv	a2,s7
   12000:	4cf90463          	beq	s2,a5,124c8 <_vfprintf_r+0x940>
   12004:	019d67b3          	or	a5,s10,s9
   12008:	f7fbf613          	andi	a2,s7,-129
   1200c:	4a079e63          	bnez	a5,124c8 <_vfprintf_r+0x940>
   12010:	4c091263          	bnez	s2,124d4 <_vfprintf_r+0x94c>
   12014:	00000d13          	li	s10,0
   12018:	00060b93          	mv	s7,a2
   1201c:	1b010c13          	addi	s8,sp,432
   12020:	0c714683          	lbu	a3,199(sp)
   12024:	00090c93          	mv	s9,s2
   12028:	01a95463          	bge	s2,s10,12030 <_vfprintf_r+0x4a8>
   1202c:	000d0c93          	mv	s9,s10
   12030:	00012423          	sw	zero,8(sp)
   12034:	00012e23          	sw	zero,28(sp)
   12038:	00012c23          	sw	zero,24(sp)
   1203c:	00012823          	sw	zero,16(sp)
   12040:	d60686e3          	beqz	a3,11dac <_vfprintf_r+0x224>
   12044:	001c8c93          	addi	s9,s9,1
   12048:	d65ff06f          	j	11dac <_vfprintf_r+0x224>
   1204c:	010beb93          	ori	s7,s7,16
   12050:	020bf793          	andi	a5,s7,32
   12054:	2c078c63          	beqz	a5,1232c <_vfprintf_r+0x7a4>
   12058:	00c12783          	lw	a5,12(sp)
   1205c:	00778a93          	addi	s5,a5,7
   12060:	ff8afa93          	andi	s5,s5,-8
   12064:	000aad03          	lw	s10,0(s5)
   12068:	004aac83          	lw	s9,4(s5)
   1206c:	008a8793          	addi	a5,s5,8
   12070:	00f12623          	sw	a5,12(sp)
   12074:	bffbf613          	andi	a2,s7,-1025
   12078:	00000793          	li	a5,0
   1207c:	00000713          	li	a4,0
   12080:	0ce103a3          	sb	a4,199(sp)
   12084:	fff00713          	li	a4,-1
   12088:	32e90863          	beq	s2,a4,123b8 <_vfprintf_r+0x830>
   1208c:	019d65b3          	or	a1,s10,s9
   12090:	f7f67b93          	andi	s7,a2,-129
   12094:	160592e3          	bnez	a1,129f8 <_vfprintf_r+0xe70>
   12098:	00090463          	beqz	s2,120a0 <_vfprintf_r+0x518>
   1209c:	3cc0106f          	j	13468 <_vfprintf_r+0x18e0>
   120a0:	5c0798e3          	bnez	a5,12e70 <_vfprintf_r+0x12e8>
   120a4:	00167d13          	andi	s10,a2,1
   120a8:	1b010c13          	addi	s8,sp,432
   120ac:	f60d0ae3          	beqz	s10,12020 <_vfprintf_r+0x498>
   120b0:	03000793          	li	a5,48
   120b4:	1af107a3          	sb	a5,431(sp)
   120b8:	1af10c13          	addi	s8,sp,431
   120bc:	f65ff06f          	j	12020 <_vfprintf_r+0x498>
   120c0:	41848933          	sub	s2,s1,s8
   120c4:	c18492e3          	bne	s1,s8,11cc8 <_vfprintf_r+0x140>
   120c8:	0004c703          	lbu	a4,0(s1)
   120cc:	c39ff06f          	j	11d04 <_vfprintf_r+0x17c>
   120d0:	00012583          	lw	a1,0(sp)
   120d4:	0e410613          	addi	a2,sp,228
   120d8:	00098513          	mv	a0,s3
   120dc:	620020ef          	jal	ra,146fc <__sprint_r>
   120e0:	de051ce3          	bnez	a0,11ed8 <_vfprintf_r+0x350>
   120e4:	000d8413          	mv	s0,s11
   120e8:	c0dff06f          	j	11cf4 <_vfprintf_r+0x16c>
   120ec:	008bf693          	andi	a3,s7,8
   120f0:	5e0696e3          	bnez	a3,12edc <_vfprintf_r+0x1354>
   120f4:	00c12783          	lw	a5,12(sp)
   120f8:	0b010513          	addi	a0,sp,176
   120fc:	01112423          	sw	a7,8(sp)
   12100:	00778a93          	addi	s5,a5,7
   12104:	ff8afa93          	andi	s5,s5,-8
   12108:	000aa583          	lw	a1,0(s5)
   1210c:	004aa603          	lw	a2,4(s5)
   12110:	008a8793          	addi	a5,s5,8
   12114:	00f12623          	sw	a5,12(sp)
   12118:	1210f0ef          	jal	ra,21a38 <__extenddftf2>
   1211c:	0b012803          	lw	a6,176(sp)
   12120:	0b412583          	lw	a1,180(sp)
   12124:	0b812603          	lw	a2,184(sp)
   12128:	0bc12683          	lw	a3,188(sp)
   1212c:	00812883          	lw	a7,8(sp)
   12130:	0f010513          	addi	a0,sp,240
   12134:	01112423          	sw	a7,8(sp)
   12138:	0ed12e23          	sw	a3,252(sp)
   1213c:	0f012823          	sw	a6,240(sp)
   12140:	0eb12a23          	sw	a1,244(sp)
   12144:	0ec12c23          	sw	a2,248(sp)
   12148:	18c050ef          	jal	ra,172d4 <_ldcheck>
   1214c:	0ca12623          	sw	a0,204(sp)
   12150:	00200693          	li	a3,2
   12154:	00812883          	lw	a7,8(sp)
   12158:	00d51463          	bne	a0,a3,12160 <_vfprintf_r+0x5d8>
   1215c:	3500106f          	j	134ac <_vfprintf_r+0x1924>
   12160:	00100693          	li	a3,1
   12164:	00d51463          	bne	a0,a3,1216c <_vfprintf_r+0x5e4>
   12168:	49c0106f          	j	13604 <_vfprintf_r+0x1a7c>
   1216c:	06100693          	li	a3,97
   12170:	72d88ae3          	beq	a7,a3,130a4 <_vfprintf_r+0x151c>
   12174:	04100693          	li	a3,65
   12178:	05800793          	li	a5,88
   1217c:	72d886e3          	beq	a7,a3,130a8 <_vfprintf_r+0x1520>
   12180:	fff00693          	li	a3,-1
   12184:	00d91463          	bne	s2,a3,1218c <_vfprintf_r+0x604>
   12188:	1600206f          	j	142e8 <_vfprintf_r+0x2760>
   1218c:	fdf8f693          	andi	a3,a7,-33
   12190:	04700613          	li	a2,71
   12194:	00c69463          	bne	a3,a2,1219c <_vfprintf_r+0x614>
   12198:	1400206f          	j	142d8 <_vfprintf_r+0x2750>
   1219c:	0fc12e03          	lw	t3,252(sp)
   121a0:	100be793          	ori	a5,s7,256
   121a4:	04f12423          	sw	a5,72(sp)
   121a8:	03712823          	sw	s7,48(sp)
   121ac:	0f012f83          	lw	t6,240(sp)
   121b0:	0f412f03          	lw	t5,244(sp)
   121b4:	0f812e83          	lw	t4,248(sp)
   121b8:	000e5463          	bgez	t3,121c0 <_vfprintf_r+0x638>
   121bc:	7dc0106f          	j	13998 <_vfprintf_r+0x1e10>
   121c0:	06012023          	sw	zero,96(sp)
   121c4:	00012423          	sw	zero,8(sp)
   121c8:	7310006f          	j	130f8 <_vfprintf_r+0x1570>
   121cc:	00012583          	lw	a1,0(sp)
   121d0:	0e410613          	addi	a2,sp,228
   121d4:	00098513          	mv	a0,s3
   121d8:	05112423          	sw	a7,72(sp)
   121dc:	05f12223          	sw	t6,68(sp)
   121e0:	02512823          	sw	t0,48(sp)
   121e4:	518020ef          	jal	ra,146fc <__sprint_r>
   121e8:	7e051e63          	bnez	a0,129e4 <_vfprintf_r+0xe5c>
   121ec:	0ec12603          	lw	a2,236(sp)
   121f0:	04812883          	lw	a7,72(sp)
   121f4:	04412f83          	lw	t6,68(sp)
   121f8:	03012283          	lw	t0,48(sp)
   121fc:	000d8413          	mv	s0,s11
   12200:	c05ff06f          	j	11e04 <_vfprintf_r+0x27c>
   12204:	0e812903          	lw	s2,232(sp)
   12208:	01412783          	lw	a5,20(sp)
   1220c:	00100693          	li	a3,1
   12210:	01842023          	sw	s8,0(s0)
   12214:	00160a93          	addi	s5,a2,1
   12218:	00190913          	addi	s2,s2,1
   1221c:	00840d13          	addi	s10,s0,8
   12220:	34f6dee3          	bge	a3,a5,12d7c <_vfprintf_r+0x11f4>
   12224:	00100693          	li	a3,1
   12228:	00d42223          	sw	a3,4(s0)
   1222c:	0f512623          	sw	s5,236(sp)
   12230:	0f212423          	sw	s2,232(sp)
   12234:	00700693          	li	a3,7
   12238:	0126d463          	bge	a3,s2,12240 <_vfprintf_r+0x6b8>
   1223c:	0580106f          	j	13294 <_vfprintf_r+0x170c>
   12240:	02412783          	lw	a5,36(sp)
   12244:	02812703          	lw	a4,40(sp)
   12248:	00190913          	addi	s2,s2,1
   1224c:	00fa8ab3          	add	s5,s5,a5
   12250:	00ed2023          	sw	a4,0(s10)
   12254:	00fd2223          	sw	a5,4(s10)
   12258:	0f512623          	sw	s5,236(sp)
   1225c:	0f212423          	sw	s2,232(sp)
   12260:	00700693          	li	a3,7
   12264:	008d0d13          	addi	s10,s10,8
   12268:	0126d463          	bge	a3,s2,12270 <_vfprintf_r+0x6e8>
   1226c:	04c0106f          	j	132b8 <_vfprintf_r+0x1730>
   12270:	0f012683          	lw	a3,240(sp)
   12274:	0a010593          	addi	a1,sp,160
   12278:	0b010513          	addi	a0,sp,176
   1227c:	0ad12823          	sw	a3,176(sp)
   12280:	0f412683          	lw	a3,244(sp)
   12284:	0a012023          	sw	zero,160(sp)
   12288:	0a012223          	sw	zero,164(sp)
   1228c:	0ad12a23          	sw	a3,180(sp)
   12290:	0f812683          	lw	a3,248(sp)
   12294:	0a012423          	sw	zero,168(sp)
   12298:	0a012623          	sw	zero,172(sp)
   1229c:	0ad12c23          	sw	a3,184(sp)
   122a0:	0fc12683          	lw	a3,252(sp)
   122a4:	0ad12e23          	sw	a3,188(sp)
   122a8:	0010c0ef          	jal	ra,1eaa8 <__eqtf2>
   122ac:	01412783          	lw	a5,20(sp)
   122b0:	fff78413          	addi	s0,a5,-1
   122b4:	300504e3          	beqz	a0,12dbc <_vfprintf_r+0x1234>
   122b8:	001c0793          	addi	a5,s8,1
   122bc:	00190913          	addi	s2,s2,1
   122c0:	008a8ab3          	add	s5,s5,s0
   122c4:	00fd2023          	sw	a5,0(s10)
   122c8:	008d2223          	sw	s0,4(s10)
   122cc:	0f512623          	sw	s5,236(sp)
   122d0:	0f212423          	sw	s2,232(sp)
   122d4:	00700793          	li	a5,7
   122d8:	008d0d13          	addi	s10,s10,8
   122dc:	2b27cee3          	blt	a5,s2,12d98 <_vfprintf_r+0x1210>
   122e0:	03812703          	lw	a4,56(sp)
   122e4:	0d410693          	addi	a3,sp,212
   122e8:	00190793          	addi	a5,s2,1
   122ec:	01570633          	add	a2,a4,s5
   122f0:	00dd2023          	sw	a3,0(s10)
   122f4:	00ed2223          	sw	a4,4(s10)
   122f8:	0ec12623          	sw	a2,236(sp)
   122fc:	0ef12423          	sw	a5,232(sp)
   12300:	00700693          	li	a3,7
   12304:	008d0413          	addi	s0,s10,8
   12308:	b6f6d8e3          	bge	a3,a5,11e78 <_vfprintf_r+0x2f0>
   1230c:	00012583          	lw	a1,0(sp)
   12310:	0e410613          	addi	a2,sp,228
   12314:	00098513          	mv	a0,s3
   12318:	3e4020ef          	jal	ra,146fc <__sprint_r>
   1231c:	6c051463          	bnez	a0,129e4 <_vfprintf_r+0xe5c>
   12320:	0ec12603          	lw	a2,236(sp)
   12324:	000d8413          	mv	s0,s11
   12328:	b51ff06f          	j	11e78 <_vfprintf_r+0x2f0>
   1232c:	00c12703          	lw	a4,12(sp)
   12330:	010bf793          	andi	a5,s7,16
   12334:	00072683          	lw	a3,0(a4)
   12338:	00470713          	addi	a4,a4,4
   1233c:	00e12623          	sw	a4,12(sp)
   12340:	380798e3          	bnez	a5,12ed0 <_vfprintf_r+0x1348>
   12344:	040bf793          	andi	a5,s7,64
   12348:	380780e3          	beqz	a5,12ec8 <_vfprintf_r+0x1340>
   1234c:	01069d13          	slli	s10,a3,0x10
   12350:	010d5d13          	srli	s10,s10,0x10
   12354:	00000c93          	li	s9,0
   12358:	d1dff06f          	j	12074 <_vfprintf_r+0x4ec>
   1235c:	00c12703          	lw	a4,12(sp)
   12360:	010bf793          	andi	a5,s7,16
   12364:	00072683          	lw	a3,0(a4)
   12368:	00470713          	addi	a4,a4,4
   1236c:	00e12623          	sw	a4,12(sp)
   12370:	320798e3          	bnez	a5,12ea0 <_vfprintf_r+0x1318>
   12374:	040bf793          	andi	a5,s7,64
   12378:	320780e3          	beqz	a5,12e98 <_vfprintf_r+0x1310>
   1237c:	01069d13          	slli	s10,a3,0x10
   12380:	410d5d13          	srai	s10,s10,0x10
   12384:	41fd5c93          	srai	s9,s10,0x1f
   12388:	000c8793          	mv	a5,s9
   1238c:	c607d6e3          	bgez	a5,11ff8 <_vfprintf_r+0x470>
   12390:	02d00713          	li	a4,45
   12394:	01a037b3          	snez	a5,s10
   12398:	41900833          	neg	a6,s9
   1239c:	0ce103a3          	sb	a4,199(sp)
   123a0:	fff00713          	li	a4,-1
   123a4:	40f80cb3          	sub	s9,a6,a5
   123a8:	41a00d33          	neg	s10,s10
   123ac:	000b8613          	mv	a2,s7
   123b0:	00100793          	li	a5,1
   123b4:	cce91ce3          	bne	s2,a4,1208c <_vfprintf_r+0x504>
   123b8:	00100713          	li	a4,1
   123bc:	10e78663          	beq	a5,a4,124c8 <_vfprintf_r+0x940>
   123c0:	00200713          	li	a4,2
   123c4:	3ee78863          	beq	a5,a4,127b4 <_vfprintf_r+0xc2c>
   123c8:	1b010c13          	addi	s8,sp,432
   123cc:	01dc9793          	slli	a5,s9,0x1d
   123d0:	007d7713          	andi	a4,s10,7
   123d4:	003d5d13          	srli	s10,s10,0x3
   123d8:	03070713          	addi	a4,a4,48
   123dc:	01a7ed33          	or	s10,a5,s10
   123e0:	003cdc93          	srli	s9,s9,0x3
   123e4:	feec0fa3          	sb	a4,-1(s8)
   123e8:	019d67b3          	or	a5,s10,s9
   123ec:	000c0513          	mv	a0,s8
   123f0:	fffc0c13          	addi	s8,s8,-1
   123f4:	fc079ce3          	bnez	a5,123cc <_vfprintf_r+0x844>
   123f8:	00167693          	andi	a3,a2,1
   123fc:	3e068663          	beqz	a3,127e8 <_vfprintf_r+0xc60>
   12400:	03000693          	li	a3,48
   12404:	3ed70263          	beq	a4,a3,127e8 <_vfprintf_r+0xc60>
   12408:	ffe50513          	addi	a0,a0,-2
   1240c:	1b010793          	addi	a5,sp,432
   12410:	fedc0fa3          	sb	a3,-1(s8)
   12414:	40a78d33          	sub	s10,a5,a0
   12418:	00060b93          	mv	s7,a2
   1241c:	00050c13          	mv	s8,a0
   12420:	c01ff06f          	j	12020 <_vfprintf_r+0x498>
   12424:	00c12703          	lw	a4,12(sp)
   12428:	0c0103a3          	sb	zero,199(sp)
   1242c:	00100c93          	li	s9,1
   12430:	00072783          	lw	a5,0(a4)
   12434:	00470713          	addi	a4,a4,4
   12438:	00e12623          	sw	a4,12(sp)
   1243c:	14f10623          	sb	a5,332(sp)
   12440:	00100d13          	li	s10,1
   12444:	14c10c13          	addi	s8,sp,332
   12448:	951ff06f          	j	11d98 <_vfprintf_r+0x210>
   1244c:	00c12783          	lw	a5,12(sp)
   12450:	0c0103a3          	sb	zero,199(sp)
   12454:	0007ac03          	lw	s8,0(a5)
   12458:	00478a93          	addi	s5,a5,4
   1245c:	3a0c0ae3          	beqz	s8,13010 <_vfprintf_r+0x1488>
   12460:	fff00693          	li	a3,-1
   12464:	00d91463          	bne	s2,a3,1246c <_vfprintf_r+0x8e4>
   12468:	13c0106f          	j	135a4 <_vfprintf_r+0x1a1c>
   1246c:	00090613          	mv	a2,s2
   12470:	00000593          	li	a1,0
   12474:	000c0513          	mv	a0,s8
   12478:	01112623          	sw	a7,12(sp)
   1247c:	2fc040ef          	jal	ra,16778 <memchr>
   12480:	00a12423          	sw	a0,8(sp)
   12484:	00c12883          	lw	a7,12(sp)
   12488:	00051463          	bnez	a0,12490 <_vfprintf_r+0x908>
   1248c:	3d50106f          	j	14060 <_vfprintf_r+0x24d8>
   12490:	00812783          	lw	a5,8(sp)
   12494:	0c714683          	lbu	a3,199(sp)
   12498:	01512623          	sw	s5,12(sp)
   1249c:	41878d33          	sub	s10,a5,s8
   124a0:	fffd4813          	not	a6,s10
   124a4:	41f85813          	srai	a6,a6,0x1f
   124a8:	00012423          	sw	zero,8(sp)
   124ac:	00012e23          	sw	zero,28(sp)
   124b0:	00012c23          	sw	zero,24(sp)
   124b4:	00012823          	sw	zero,16(sp)
   124b8:	010d7cb3          	and	s9,s10,a6
   124bc:	00000913          	li	s2,0
   124c0:	b80692e3          	bnez	a3,12044 <_vfprintf_r+0x4bc>
   124c4:	8e9ff06f          	j	11dac <_vfprintf_r+0x224>
   124c8:	620c94e3          	bnez	s9,132f0 <_vfprintf_r+0x1768>
   124cc:	00900793          	li	a5,9
   124d0:	63a7e0e3          	bltu	a5,s10,132f0 <_vfprintf_r+0x1768>
   124d4:	030d0693          	addi	a3,s10,48
   124d8:	1ad107a3          	sb	a3,431(sp)
   124dc:	00060b93          	mv	s7,a2
   124e0:	00100d13          	li	s10,1
   124e4:	1af10c13          	addi	s8,sp,431
   124e8:	b39ff06f          	j	12020 <_vfprintf_r+0x498>
   124ec:	00c12783          	lw	a5,12(sp)
   124f0:	0007aa03          	lw	s4,0(a5)
   124f4:	00478793          	addi	a5,a5,4
   124f8:	180a5ae3          	bgez	s4,12e8c <_vfprintf_r+0x1304>
   124fc:	41400a33          	neg	s4,s4
   12500:	00f12623          	sw	a5,12(sp)
   12504:	0004c883          	lbu	a7,0(s1)
   12508:	004beb93          	ori	s7,s7,4
   1250c:	819ff06f          	j	11d24 <_vfprintf_r+0x19c>
   12510:	010be613          	ori	a2,s7,16
   12514:	02067793          	andi	a5,a2,32
   12518:	120782e3          	beqz	a5,12e3c <_vfprintf_r+0x12b4>
   1251c:	00c12783          	lw	a5,12(sp)
   12520:	00778a93          	addi	s5,a5,7
   12524:	ff8afa93          	andi	s5,s5,-8
   12528:	008a8793          	addi	a5,s5,8
   1252c:	00f12623          	sw	a5,12(sp)
   12530:	000aad03          	lw	s10,0(s5)
   12534:	004aac83          	lw	s9,4(s5)
   12538:	00100793          	li	a5,1
   1253c:	b41ff06f          	j	1207c <_vfprintf_r+0x4f4>
   12540:	02b00793          	li	a5,43
   12544:	0004c883          	lbu	a7,0(s1)
   12548:	0cf103a3          	sb	a5,199(sp)
   1254c:	fd8ff06f          	j	11d24 <_vfprintf_r+0x19c>
   12550:	00c12703          	lw	a4,12(sp)
   12554:	ffff87b7          	lui	a5,0xffff8
   12558:	8307c793          	xori	a5,a5,-2000
   1255c:	0cf11423          	sh	a5,200(sp)
   12560:	00470793          	addi	a5,a4,4
   12564:	00f12623          	sw	a5,12(sp)
   12568:	00010797          	auipc	a5,0x10
   1256c:	91078793          	addi	a5,a5,-1776 # 21e78 <__clzsi2+0x160>
   12570:	02f12623          	sw	a5,44(sp)
   12574:	00072d03          	lw	s10,0(a4)
   12578:	00000c93          	li	s9,0
   1257c:	002be613          	ori	a2,s7,2
   12580:	00200793          	li	a5,2
   12584:	07800893          	li	a7,120
   12588:	af5ff06f          	j	1207c <_vfprintf_r+0x4f4>
   1258c:	020bf793          	andi	a5,s7,32
   12590:	18078ae3          	beqz	a5,12f24 <_vfprintf_r+0x139c>
   12594:	00c12783          	lw	a5,12(sp)
   12598:	00412683          	lw	a3,4(sp)
   1259c:	0007a783          	lw	a5,0(a5)
   125a0:	41f6d713          	srai	a4,a3,0x1f
   125a4:	00d7a023          	sw	a3,0(a5)
   125a8:	00e7a223          	sw	a4,4(a5)
   125ac:	00c12783          	lw	a5,12(sp)
   125b0:	00048c13          	mv	s8,s1
   125b4:	00478793          	addi	a5,a5,4
   125b8:	00f12623          	sw	a5,12(sp)
   125bc:	909ff06f          	j	11ec4 <_vfprintf_r+0x33c>
   125c0:	0004c883          	lbu	a7,0(s1)
   125c4:	06c00793          	li	a5,108
   125c8:	22f884e3          	beq	a7,a5,12ff0 <_vfprintf_r+0x1468>
   125cc:	010beb93          	ori	s7,s7,16
   125d0:	f54ff06f          	j	11d24 <_vfprintf_r+0x19c>
   125d4:	0004c883          	lbu	a7,0(s1)
   125d8:	06800793          	li	a5,104
   125dc:	1ef882e3          	beq	a7,a5,12fc0 <_vfprintf_r+0x1438>
   125e0:	040beb93          	ori	s7,s7,64
   125e4:	f40ff06f          	j	11d24 <_vfprintf_r+0x19c>
   125e8:	0004c883          	lbu	a7,0(s1)
   125ec:	008beb93          	ori	s7,s7,8
   125f0:	f34ff06f          	j	11d24 <_vfprintf_r+0x19c>
   125f4:	0004c883          	lbu	a7,0(s1)
   125f8:	001beb93          	ori	s7,s7,1
   125fc:	f28ff06f          	j	11d24 <_vfprintf_r+0x19c>
   12600:	0c714783          	lbu	a5,199(sp)
   12604:	0004c883          	lbu	a7,0(s1)
   12608:	f0079e63          	bnez	a5,11d24 <_vfprintf_r+0x19c>
   1260c:	02000793          	li	a5,32
   12610:	0cf103a3          	sb	a5,199(sp)
   12614:	f10ff06f          	j	11d24 <_vfprintf_r+0x19c>
   12618:	0004c883          	lbu	a7,0(s1)
   1261c:	080beb93          	ori	s7,s7,128
   12620:	f04ff06f          	j	11d24 <_vfprintf_r+0x19c>
   12624:	0004c883          	lbu	a7,0(s1)
   12628:	02a00793          	li	a5,42
   1262c:	00148713          	addi	a4,s1,1
   12630:	00f89463          	bne	a7,a5,12638 <_vfprintf_r+0xab0>
   12634:	6a50106f          	j	144d8 <_vfprintf_r+0x2950>
   12638:	fd088793          	addi	a5,a7,-48
   1263c:	00900613          	li	a2,9
   12640:	00070493          	mv	s1,a4
   12644:	00000913          	li	s2,0
   12648:	00900693          	li	a3,9
   1264c:	ecf66e63          	bltu	a2,a5,11d28 <_vfprintf_r+0x1a0>
   12650:	0004c883          	lbu	a7,0(s1)
   12654:	00291713          	slli	a4,s2,0x2
   12658:	01270933          	add	s2,a4,s2
   1265c:	00191913          	slli	s2,s2,0x1
   12660:	00f90933          	add	s2,s2,a5
   12664:	fd088793          	addi	a5,a7,-48
   12668:	00148493          	addi	s1,s1,1
   1266c:	fef6f2e3          	bgeu	a3,a5,12650 <_vfprintf_r+0xac8>
   12670:	eb8ff06f          	j	11d28 <_vfprintf_r+0x1a0>
   12674:	06500693          	li	a3,101
   12678:	b916d6e3          	bge	a3,a7,12204 <_vfprintf_r+0x67c>
   1267c:	0f012683          	lw	a3,240(sp)
   12680:	0a010593          	addi	a1,sp,160
   12684:	0b010513          	addi	a0,sp,176
   12688:	0ad12823          	sw	a3,176(sp)
   1268c:	0f412683          	lw	a3,244(sp)
   12690:	02c12823          	sw	a2,48(sp)
   12694:	0a012023          	sw	zero,160(sp)
   12698:	0ad12a23          	sw	a3,180(sp)
   1269c:	0f812683          	lw	a3,248(sp)
   126a0:	0a012223          	sw	zero,164(sp)
   126a4:	0a012423          	sw	zero,168(sp)
   126a8:	0ad12c23          	sw	a3,184(sp)
   126ac:	0fc12683          	lw	a3,252(sp)
   126b0:	0a012623          	sw	zero,172(sp)
   126b4:	0ad12e23          	sw	a3,188(sp)
   126b8:	3f00c0ef          	jal	ra,1eaa8 <__eqtf2>
   126bc:	03012603          	lw	a2,48(sp)
   126c0:	52051a63          	bnez	a0,12bf4 <_vfprintf_r+0x106c>
   126c4:	0e812783          	lw	a5,232(sp)
   126c8:	0000f697          	auipc	a3,0xf
   126cc:	7e068693          	addi	a3,a3,2016 # 21ea8 <__clzsi2+0x190>
   126d0:	00d42023          	sw	a3,0(s0)
   126d4:	00160613          	addi	a2,a2,1
   126d8:	00100693          	li	a3,1
   126dc:	00178793          	addi	a5,a5,1
   126e0:	00d42223          	sw	a3,4(s0)
   126e4:	0ec12623          	sw	a2,236(sp)
   126e8:	0ef12423          	sw	a5,232(sp)
   126ec:	00700693          	li	a3,7
   126f0:	00840413          	addi	s0,s0,8
   126f4:	54f6cae3          	blt	a3,a5,13448 <_vfprintf_r+0x18c0>
   126f8:	0cc12783          	lw	a5,204(sp)
   126fc:	01412703          	lw	a4,20(sp)
   12700:	76e7de63          	bge	a5,a4,12e7c <_vfprintf_r+0x12f4>
   12704:	02812783          	lw	a5,40(sp)
   12708:	02412703          	lw	a4,36(sp)
   1270c:	00700693          	li	a3,7
   12710:	00f42023          	sw	a5,0(s0)
   12714:	0e812783          	lw	a5,232(sp)
   12718:	00e60633          	add	a2,a2,a4
   1271c:	00e42223          	sw	a4,4(s0)
   12720:	00178793          	addi	a5,a5,1
   12724:	0ec12623          	sw	a2,236(sp)
   12728:	0ef12423          	sw	a5,232(sp)
   1272c:	00840413          	addi	s0,s0,8
   12730:	0af6c0e3          	blt	a3,a5,12fd0 <_vfprintf_r+0x1448>
   12734:	01412783          	lw	a5,20(sp)
   12738:	fff78913          	addi	s2,a5,-1
   1273c:	f3205e63          	blez	s2,11e78 <_vfprintf_r+0x2f0>
   12740:	00010e17          	auipc	t3,0x10
   12744:	970e0e13          	addi	t3,t3,-1680 # 220b0 <zeroes.0>
   12748:	01000693          	li	a3,16
   1274c:	0e812783          	lw	a5,232(sp)
   12750:	01000d13          	li	s10,16
   12754:	00700a93          	li	s5,7
   12758:	000e0c13          	mv	s8,t3
   1275c:	0126c863          	blt	a3,s2,1276c <_vfprintf_r+0xbe4>
   12760:	5250006f          	j	13484 <_vfprintf_r+0x18fc>
   12764:	ff090913          	addi	s2,s2,-16
   12768:	512d5ce3          	bge	s10,s2,13480 <_vfprintf_r+0x18f8>
   1276c:	01060613          	addi	a2,a2,16
   12770:	00178793          	addi	a5,a5,1
   12774:	01842023          	sw	s8,0(s0)
   12778:	01a42223          	sw	s10,4(s0)
   1277c:	0ec12623          	sw	a2,236(sp)
   12780:	0ef12423          	sw	a5,232(sp)
   12784:	00840413          	addi	s0,s0,8
   12788:	fcfadee3          	bge	s5,a5,12764 <_vfprintf_r+0xbdc>
   1278c:	00012583          	lw	a1,0(sp)
   12790:	0e410613          	addi	a2,sp,228
   12794:	00098513          	mv	a0,s3
   12798:	765010ef          	jal	ra,146fc <__sprint_r>
   1279c:	24051463          	bnez	a0,129e4 <_vfprintf_r+0xe5c>
   127a0:	0ec12603          	lw	a2,236(sp)
   127a4:	0e812783          	lw	a5,232(sp)
   127a8:	000d8413          	mv	s0,s11
   127ac:	fb9ff06f          	j	12764 <_vfprintf_r+0xbdc>
   127b0:	000b8613          	mv	a2,s7
   127b4:	02c12683          	lw	a3,44(sp)
   127b8:	1b010c13          	addi	s8,sp,432
   127bc:	00fd7793          	andi	a5,s10,15
   127c0:	00f687b3          	add	a5,a3,a5
   127c4:	0007c703          	lbu	a4,0(a5)
   127c8:	004d5d13          	srli	s10,s10,0x4
   127cc:	01cc9793          	slli	a5,s9,0x1c
   127d0:	01a7ed33          	or	s10,a5,s10
   127d4:	004cdc93          	srli	s9,s9,0x4
   127d8:	feec0fa3          	sb	a4,-1(s8)
   127dc:	019d67b3          	or	a5,s10,s9
   127e0:	fffc0c13          	addi	s8,s8,-1
   127e4:	fc079ce3          	bnez	a5,127bc <_vfprintf_r+0xc34>
   127e8:	1b010793          	addi	a5,sp,432
   127ec:	41878d33          	sub	s10,a5,s8
   127f0:	00060b93          	mv	s7,a2
   127f4:	82dff06f          	j	12020 <_vfprintf_r+0x498>
   127f8:	419a0ab3          	sub	s5,s4,s9
   127fc:	e5505263          	blez	s5,11e40 <_vfprintf_r+0x2b8>
   12800:	01000513          	li	a0,16
   12804:	0e812583          	lw	a1,232(sp)
   12808:	00010e17          	auipc	t3,0x10
   1280c:	8a8e0e13          	addi	t3,t3,-1880 # 220b0 <zeroes.0>
   12810:	09555c63          	bge	a0,s5,128a8 <_vfprintf_r+0xd20>
   12814:	02912823          	sw	s1,48(sp)
   12818:	00040793          	mv	a5,s0
   1281c:	01000e93          	li	t4,16
   12820:	000a8413          	mv	s0,s5
   12824:	00700f93          	li	t6,7
   12828:	00090a93          	mv	s5,s2
   1282c:	000e0493          	mv	s1,t3
   12830:	00088913          	mv	s2,a7
   12834:	00c0006f          	j	12840 <_vfprintf_r+0xcb8>
   12838:	ff040413          	addi	s0,s0,-16
   1283c:	048eda63          	bge	t4,s0,12890 <_vfprintf_r+0xd08>
   12840:	01060613          	addi	a2,a2,16
   12844:	00158593          	addi	a1,a1,1
   12848:	0097a023          	sw	s1,0(a5)
   1284c:	01d7a223          	sw	t4,4(a5)
   12850:	0ec12623          	sw	a2,236(sp)
   12854:	0eb12423          	sw	a1,232(sp)
   12858:	00878793          	addi	a5,a5,8
   1285c:	fcbfdee3          	bge	t6,a1,12838 <_vfprintf_r+0xcb0>
   12860:	00012583          	lw	a1,0(sp)
   12864:	0e410613          	addi	a2,sp,228
   12868:	00098513          	mv	a0,s3
   1286c:	691010ef          	jal	ra,146fc <__sprint_r>
   12870:	16051a63          	bnez	a0,129e4 <_vfprintf_r+0xe5c>
   12874:	01000e93          	li	t4,16
   12878:	ff040413          	addi	s0,s0,-16
   1287c:	0ec12603          	lw	a2,236(sp)
   12880:	0e812583          	lw	a1,232(sp)
   12884:	000d8793          	mv	a5,s11
   12888:	00700f93          	li	t6,7
   1288c:	fa8ecae3          	blt	t4,s0,12840 <_vfprintf_r+0xcb8>
   12890:	00048e13          	mv	t3,s1
   12894:	03012483          	lw	s1,48(sp)
   12898:	00090893          	mv	a7,s2
   1289c:	000a8913          	mv	s2,s5
   128a0:	00040a93          	mv	s5,s0
   128a4:	00078413          	mv	s0,a5
   128a8:	01560633          	add	a2,a2,s5
   128ac:	00158593          	addi	a1,a1,1
   128b0:	01c42023          	sw	t3,0(s0)
   128b4:	01542223          	sw	s5,4(s0)
   128b8:	0ec12623          	sw	a2,236(sp)
   128bc:	0eb12423          	sw	a1,232(sp)
   128c0:	00700693          	li	a3,7
   128c4:	00840413          	addi	s0,s0,8
   128c8:	d6b6dc63          	bge	a3,a1,11e40 <_vfprintf_r+0x2b8>
   128cc:	00012583          	lw	a1,0(sp)
   128d0:	0e410613          	addi	a2,sp,228
   128d4:	00098513          	mv	a0,s3
   128d8:	03112823          	sw	a7,48(sp)
   128dc:	621010ef          	jal	ra,146fc <__sprint_r>
   128e0:	10051263          	bnez	a0,129e4 <_vfprintf_r+0xe5c>
   128e4:	0ec12603          	lw	a2,236(sp)
   128e8:	03012883          	lw	a7,48(sp)
   128ec:	000d8413          	mv	s0,s11
   128f0:	d50ff06f          	j	11e40 <_vfprintf_r+0x2b8>
   128f4:	0e812583          	lw	a1,232(sp)
   128f8:	0000fe17          	auipc	t3,0xf
   128fc:	7b8e0e13          	addi	t3,t3,1976 # 220b0 <zeroes.0>
   12900:	092b5263          	bge	s6,s2,12984 <_vfprintf_r+0xdfc>
   12904:	00040793          	mv	a5,s0
   12908:	00700a93          	li	s5,7
   1290c:	00090413          	mv	s0,s2
   12910:	03112823          	sw	a7,48(sp)
   12914:	000e0913          	mv	s2,t3
   12918:	00c0006f          	j	12924 <_vfprintf_r+0xd9c>
   1291c:	ff040413          	addi	s0,s0,-16
   12920:	048b5a63          	bge	s6,s0,12974 <_vfprintf_r+0xdec>
   12924:	01060613          	addi	a2,a2,16
   12928:	00158593          	addi	a1,a1,1
   1292c:	0000f717          	auipc	a4,0xf
   12930:	78470713          	addi	a4,a4,1924 # 220b0 <zeroes.0>
   12934:	00e7a023          	sw	a4,0(a5)
   12938:	0167a223          	sw	s6,4(a5)
   1293c:	0ec12623          	sw	a2,236(sp)
   12940:	0eb12423          	sw	a1,232(sp)
   12944:	00878793          	addi	a5,a5,8
   12948:	fcbadae3          	bge	s5,a1,1291c <_vfprintf_r+0xd94>
   1294c:	00012583          	lw	a1,0(sp)
   12950:	0e410613          	addi	a2,sp,228
   12954:	00098513          	mv	a0,s3
   12958:	5a5010ef          	jal	ra,146fc <__sprint_r>
   1295c:	08051463          	bnez	a0,129e4 <_vfprintf_r+0xe5c>
   12960:	ff040413          	addi	s0,s0,-16
   12964:	0ec12603          	lw	a2,236(sp)
   12968:	0e812583          	lw	a1,232(sp)
   1296c:	000d8793          	mv	a5,s11
   12970:	fa8b4ae3          	blt	s6,s0,12924 <_vfprintf_r+0xd9c>
   12974:	03012883          	lw	a7,48(sp)
   12978:	00090e13          	mv	t3,s2
   1297c:	00040913          	mv	s2,s0
   12980:	00078413          	mv	s0,a5
   12984:	01260633          	add	a2,a2,s2
   12988:	00158593          	addi	a1,a1,1
   1298c:	01c42023          	sw	t3,0(s0)
   12990:	01242223          	sw	s2,4(s0)
   12994:	0ec12623          	sw	a2,236(sp)
   12998:	0eb12423          	sw	a1,232(sp)
   1299c:	00700693          	li	a3,7
   129a0:	00840413          	addi	s0,s0,8
   129a4:	cab6d263          	bge	a3,a1,11e48 <_vfprintf_r+0x2c0>
   129a8:	00012583          	lw	a1,0(sp)
   129ac:	0e410613          	addi	a2,sp,228
   129b0:	00098513          	mv	a0,s3
   129b4:	03112823          	sw	a7,48(sp)
   129b8:	545010ef          	jal	ra,146fc <__sprint_r>
   129bc:	02051463          	bnez	a0,129e4 <_vfprintf_r+0xe5c>
   129c0:	0ec12603          	lw	a2,236(sp)
   129c4:	03012883          	lw	a7,48(sp)
   129c8:	000d8413          	mv	s0,s11
   129cc:	c7cff06f          	j	11e48 <_vfprintf_r+0x2c0>
   129d0:	00012583          	lw	a1,0(sp)
   129d4:	0e410613          	addi	a2,sp,228
   129d8:	00098513          	mv	a0,s3
   129dc:	521010ef          	jal	ra,146fc <__sprint_r>
   129e0:	cc050263          	beqz	a0,11ea4 <_vfprintf_r+0x31c>
   129e4:	00812583          	lw	a1,8(sp)
   129e8:	ce058863          	beqz	a1,11ed8 <_vfprintf_r+0x350>
   129ec:	02012503          	lw	a0,32(sp)
   129f0:	f00fe0ef          	jal	ra,110f0 <_free_r>
   129f4:	ce4ff06f          	j	11ed8 <_vfprintf_r+0x350>
   129f8:	000b8613          	mv	a2,s7
   129fc:	9bdff06f          	j	123b8 <_vfprintf_r+0x830>
   12a00:	01000513          	li	a0,16
   12a04:	0e812583          	lw	a1,232(sp)
   12a08:	0000fa97          	auipc	s5,0xf
   12a0c:	6b8a8a93          	addi	s5,s5,1720 # 220c0 <blanks.1>
   12a10:	0ad55463          	bge	a0,a3,12ab8 <_vfprintf_r+0xf30>
   12a14:	04912423          	sw	s1,72(sp)
   12a18:	00040793          	mv	a5,s0
   12a1c:	000a8493          	mv	s1,s5
   12a20:	01000e13          	li	t3,16
   12a24:	00090a93          	mv	s5,s2
   12a28:	00700393          	li	t2,7
   12a2c:	02512823          	sw	t0,48(sp)
   12a30:	05f12223          	sw	t6,68(sp)
   12a34:	00068413          	mv	s0,a3
   12a38:	00088913          	mv	s2,a7
   12a3c:	00c0006f          	j	12a48 <_vfprintf_r+0xec0>
   12a40:	ff040413          	addi	s0,s0,-16
   12a44:	048e5a63          	bge	t3,s0,12a98 <_vfprintf_r+0xf10>
   12a48:	01060613          	addi	a2,a2,16
   12a4c:	00158593          	addi	a1,a1,1
   12a50:	0097a023          	sw	s1,0(a5)
   12a54:	01c7a223          	sw	t3,4(a5)
   12a58:	0ec12623          	sw	a2,236(sp)
   12a5c:	0eb12423          	sw	a1,232(sp)
   12a60:	00878793          	addi	a5,a5,8
   12a64:	fcb3dee3          	bge	t2,a1,12a40 <_vfprintf_r+0xeb8>
   12a68:	00012583          	lw	a1,0(sp)
   12a6c:	0e410613          	addi	a2,sp,228
   12a70:	00098513          	mv	a0,s3
   12a74:	489010ef          	jal	ra,146fc <__sprint_r>
   12a78:	f60516e3          	bnez	a0,129e4 <_vfprintf_r+0xe5c>
   12a7c:	01000e13          	li	t3,16
   12a80:	ff040413          	addi	s0,s0,-16
   12a84:	0ec12603          	lw	a2,236(sp)
   12a88:	0e812583          	lw	a1,232(sp)
   12a8c:	000d8793          	mv	a5,s11
   12a90:	00700393          	li	t2,7
   12a94:	fa8e4ae3          	blt	t3,s0,12a48 <_vfprintf_r+0xec0>
   12a98:	00090893          	mv	a7,s2
   12a9c:	03012283          	lw	t0,48(sp)
   12aa0:	000a8913          	mv	s2,s5
   12aa4:	04412f83          	lw	t6,68(sp)
   12aa8:	00048a93          	mv	s5,s1
   12aac:	04812483          	lw	s1,72(sp)
   12ab0:	00040693          	mv	a3,s0
   12ab4:	00078413          	mv	s0,a5
   12ab8:	00d60633          	add	a2,a2,a3
   12abc:	00158593          	addi	a1,a1,1
   12ac0:	00d42223          	sw	a3,4(s0)
   12ac4:	01542023          	sw	s5,0(s0)
   12ac8:	0ec12623          	sw	a2,236(sp)
   12acc:	0eb12423          	sw	a1,232(sp)
   12ad0:	00700693          	li	a3,7
   12ad4:	00840413          	addi	s0,s0,8
   12ad8:	aeb6da63          	bge	a3,a1,11dcc <_vfprintf_r+0x244>
   12adc:	00012583          	lw	a1,0(sp)
   12ae0:	0e410613          	addi	a2,sp,228
   12ae4:	00098513          	mv	a0,s3
   12ae8:	05112423          	sw	a7,72(sp)
   12aec:	05f12223          	sw	t6,68(sp)
   12af0:	02512823          	sw	t0,48(sp)
   12af4:	409010ef          	jal	ra,146fc <__sprint_r>
   12af8:	ee0516e3          	bnez	a0,129e4 <_vfprintf_r+0xe5c>
   12afc:	0ec12603          	lw	a2,236(sp)
   12b00:	04812883          	lw	a7,72(sp)
   12b04:	04412f83          	lw	t6,68(sp)
   12b08:	03012283          	lw	t0,48(sp)
   12b0c:	000d8413          	mv	s0,s11
   12b10:	abcff06f          	j	11dcc <_vfprintf_r+0x244>
   12b14:	00012583          	lw	a1,0(sp)
   12b18:	0e410613          	addi	a2,sp,228
   12b1c:	00098513          	mv	a0,s3
   12b20:	05112223          	sw	a7,68(sp)
   12b24:	03f12823          	sw	t6,48(sp)
   12b28:	3d5010ef          	jal	ra,146fc <__sprint_r>
   12b2c:	ea051ce3          	bnez	a0,129e4 <_vfprintf_r+0xe5c>
   12b30:	0ec12603          	lw	a2,236(sp)
   12b34:	04412883          	lw	a7,68(sp)
   12b38:	03012f83          	lw	t6,48(sp)
   12b3c:	000d8413          	mv	s0,s11
   12b40:	af8ff06f          	j	11e38 <_vfprintf_r+0x2b0>
   12b44:	01000713          	li	a4,16
   12b48:	0e812783          	lw	a5,232(sp)
   12b4c:	0000fa97          	auipc	s5,0xf
   12b50:	574a8a93          	addi	s5,s5,1396 # 220c0 <blanks.1>
   12b54:	07275263          	bge	a4,s2,12bb8 <_vfprintf_r+0x1030>
   12b58:	00012c03          	lw	s8,0(sp)
   12b5c:	01000d13          	li	s10,16
   12b60:	00700b93          	li	s7,7
   12b64:	00c0006f          	j	12b70 <_vfprintf_r+0xfe8>
   12b68:	ff090913          	addi	s2,s2,-16
   12b6c:	052d5663          	bge	s10,s2,12bb8 <_vfprintf_r+0x1030>
   12b70:	01060613          	addi	a2,a2,16
   12b74:	00178793          	addi	a5,a5,1
   12b78:	01542023          	sw	s5,0(s0)
   12b7c:	01a42223          	sw	s10,4(s0)
   12b80:	0ec12623          	sw	a2,236(sp)
   12b84:	0ef12423          	sw	a5,232(sp)
   12b88:	00840413          	addi	s0,s0,8
   12b8c:	fcfbdee3          	bge	s7,a5,12b68 <_vfprintf_r+0xfe0>
   12b90:	0e410613          	addi	a2,sp,228
   12b94:	000c0593          	mv	a1,s8
   12b98:	00098513          	mv	a0,s3
   12b9c:	361010ef          	jal	ra,146fc <__sprint_r>
   12ba0:	e40512e3          	bnez	a0,129e4 <_vfprintf_r+0xe5c>
   12ba4:	ff090913          	addi	s2,s2,-16
   12ba8:	0ec12603          	lw	a2,236(sp)
   12bac:	0e812783          	lw	a5,232(sp)
   12bb0:	000d8413          	mv	s0,s11
   12bb4:	fb2d4ee3          	blt	s10,s2,12b70 <_vfprintf_r+0xfe8>
   12bb8:	01260633          	add	a2,a2,s2
   12bbc:	00178793          	addi	a5,a5,1
   12bc0:	01542023          	sw	s5,0(s0)
   12bc4:	01242223          	sw	s2,4(s0)
   12bc8:	0ec12623          	sw	a2,236(sp)
   12bcc:	0ef12423          	sw	a5,232(sp)
   12bd0:	00700713          	li	a4,7
   12bd4:	aaf75a63          	bge	a4,a5,11e88 <_vfprintf_r+0x300>
   12bd8:	00012583          	lw	a1,0(sp)
   12bdc:	0e410613          	addi	a2,sp,228
   12be0:	00098513          	mv	a0,s3
   12be4:	319010ef          	jal	ra,146fc <__sprint_r>
   12be8:	de051ee3          	bnez	a0,129e4 <_vfprintf_r+0xe5c>
   12bec:	0ec12603          	lw	a2,236(sp)
   12bf0:	a98ff06f          	j	11e88 <_vfprintf_r+0x300>
   12bf4:	0cc12583          	lw	a1,204(sp)
   12bf8:	7cb05263          	blez	a1,133bc <_vfprintf_r+0x1834>
   12bfc:	01412783          	lw	a5,20(sp)
   12c00:	00fc0733          	add	a4,s8,a5
   12c04:	02e12823          	sw	a4,48(sp)
   12c08:	01012703          	lw	a4,16(sp)
   12c0c:	00070913          	mv	s2,a4
   12c10:	34e7c063          	blt	a5,a4,12f50 <_vfprintf_r+0x13c8>
   12c14:	03205663          	blez	s2,12c40 <_vfprintf_r+0x10b8>
   12c18:	0e812583          	lw	a1,232(sp)
   12c1c:	01260633          	add	a2,a2,s2
   12c20:	01842023          	sw	s8,0(s0)
   12c24:	00158593          	addi	a1,a1,1
   12c28:	01242223          	sw	s2,4(s0)
   12c2c:	0ec12623          	sw	a2,236(sp)
   12c30:	0eb12423          	sw	a1,232(sp)
   12c34:	00700513          	li	a0,7
   12c38:	00840413          	addi	s0,s0,8
   12c3c:	4ab546e3          	blt	a0,a1,138e8 <_vfprintf_r+0x1d60>
   12c40:	fff94593          	not	a1,s2
   12c44:	01012783          	lw	a5,16(sp)
   12c48:	41f5d593          	srai	a1,a1,0x1f
   12c4c:	00b976b3          	and	a3,s2,a1
   12c50:	40d78933          	sub	s2,a5,a3
   12c54:	3d204e63          	bgtz	s2,13030 <_vfprintf_r+0x14a8>
   12c58:	01012783          	lw	a5,16(sp)
   12c5c:	400bf693          	andi	a3,s7,1024
   12c60:	00fc0c33          	add	s8,s8,a5
   12c64:	24069ee3          	bnez	a3,136c0 <_vfprintf_r+0x1b38>
   12c68:	0cc12683          	lw	a3,204(sp)
   12c6c:	01412783          	lw	a5,20(sp)
   12c70:	00f6c663          	blt	a3,a5,12c7c <_vfprintf_r+0x10f4>
   12c74:	001bf593          	andi	a1,s7,1
   12c78:	48058ce3          	beqz	a1,13910 <_vfprintf_r+0x1d88>
   12c7c:	02412783          	lw	a5,36(sp)
   12c80:	0e812583          	lw	a1,232(sp)
   12c84:	02812703          	lw	a4,40(sp)
   12c88:	00f60633          	add	a2,a2,a5
   12c8c:	00158593          	addi	a1,a1,1
   12c90:	00e42023          	sw	a4,0(s0)
   12c94:	00f42223          	sw	a5,4(s0)
   12c98:	0ec12623          	sw	a2,236(sp)
   12c9c:	0eb12423          	sw	a1,232(sp)
   12ca0:	00700513          	li	a0,7
   12ca4:	00840413          	addi	s0,s0,8
   12ca8:	00b55463          	bge	a0,a1,12cb0 <_vfprintf_r+0x1128>
   12cac:	38c0106f          	j	14038 <_vfprintf_r+0x24b0>
   12cb0:	01412783          	lw	a5,20(sp)
   12cb4:	40d786b3          	sub	a3,a5,a3
   12cb8:	03012783          	lw	a5,48(sp)
   12cbc:	41878933          	sub	s2,a5,s8
   12cc0:	0126d463          	bge	a3,s2,12cc8 <_vfprintf_r+0x1140>
   12cc4:	00068913          	mv	s2,a3
   12cc8:	03205863          	blez	s2,12cf8 <_vfprintf_r+0x1170>
   12ccc:	0e812783          	lw	a5,232(sp)
   12cd0:	01260633          	add	a2,a2,s2
   12cd4:	01842023          	sw	s8,0(s0)
   12cd8:	00178793          	addi	a5,a5,1
   12cdc:	01242223          	sw	s2,4(s0)
   12ce0:	0ec12623          	sw	a2,236(sp)
   12ce4:	0ef12423          	sw	a5,232(sp)
   12ce8:	00700593          	li	a1,7
   12cec:	00840413          	addi	s0,s0,8
   12cf0:	00f5d463          	bge	a1,a5,12cf8 <_vfprintf_r+0x1170>
   12cf4:	3980106f          	j	1408c <_vfprintf_r+0x2504>
   12cf8:	fff94793          	not	a5,s2
   12cfc:	41f7d793          	srai	a5,a5,0x1f
   12d00:	00f977b3          	and	a5,s2,a5
   12d04:	40f68933          	sub	s2,a3,a5
   12d08:	97205863          	blez	s2,11e78 <_vfprintf_r+0x2f0>
   12d0c:	0000fe17          	auipc	t3,0xf
   12d10:	3a4e0e13          	addi	t3,t3,932 # 220b0 <zeroes.0>
   12d14:	01000693          	li	a3,16
   12d18:	0e812783          	lw	a5,232(sp)
   12d1c:	01000d13          	li	s10,16
   12d20:	00700a93          	li	s5,7
   12d24:	000e0c13          	mv	s8,t3
   12d28:	0126c863          	blt	a3,s2,12d38 <_vfprintf_r+0x11b0>
   12d2c:	7580006f          	j	13484 <_vfprintf_r+0x18fc>
   12d30:	ff090913          	addi	s2,s2,-16
   12d34:	752d5663          	bge	s10,s2,13480 <_vfprintf_r+0x18f8>
   12d38:	01060613          	addi	a2,a2,16
   12d3c:	00178793          	addi	a5,a5,1
   12d40:	01842023          	sw	s8,0(s0)
   12d44:	01a42223          	sw	s10,4(s0)
   12d48:	0ec12623          	sw	a2,236(sp)
   12d4c:	0ef12423          	sw	a5,232(sp)
   12d50:	00840413          	addi	s0,s0,8
   12d54:	fcfadee3          	bge	s5,a5,12d30 <_vfprintf_r+0x11a8>
   12d58:	00012583          	lw	a1,0(sp)
   12d5c:	0e410613          	addi	a2,sp,228
   12d60:	00098513          	mv	a0,s3
   12d64:	199010ef          	jal	ra,146fc <__sprint_r>
   12d68:	c6051ee3          	bnez	a0,129e4 <_vfprintf_r+0xe5c>
   12d6c:	0ec12603          	lw	a2,236(sp)
   12d70:	0e812783          	lw	a5,232(sp)
   12d74:	000d8413          	mv	s0,s11
   12d78:	fb9ff06f          	j	12d30 <_vfprintf_r+0x11a8>
   12d7c:	001bf593          	andi	a1,s7,1
   12d80:	ca059263          	bnez	a1,12224 <_vfprintf_r+0x69c>
   12d84:	00d42223          	sw	a3,4(s0)
   12d88:	0f512623          	sw	s5,236(sp)
   12d8c:	0f212423          	sw	s2,232(sp)
   12d90:	00700793          	li	a5,7
   12d94:	d527d663          	bge	a5,s2,122e0 <_vfprintf_r+0x758>
   12d98:	00012583          	lw	a1,0(sp)
   12d9c:	0e410613          	addi	a2,sp,228
   12da0:	00098513          	mv	a0,s3
   12da4:	159010ef          	jal	ra,146fc <__sprint_r>
   12da8:	c2051ee3          	bnez	a0,129e4 <_vfprintf_r+0xe5c>
   12dac:	0ec12a83          	lw	s5,236(sp)
   12db0:	0e812903          	lw	s2,232(sp)
   12db4:	000d8d13          	mv	s10,s11
   12db8:	d28ff06f          	j	122e0 <_vfprintf_r+0x758>
   12dbc:	01412703          	lw	a4,20(sp)
   12dc0:	00100793          	li	a5,1
   12dc4:	d0e7de63          	bge	a5,a4,122e0 <_vfprintf_r+0x758>
   12dc8:	01100793          	li	a5,17
   12dcc:	0000fe17          	auipc	t3,0xf
   12dd0:	2e4e0e13          	addi	t3,t3,740 # 220b0 <zeroes.0>
   12dd4:	02e7d0e3          	bge	a5,a4,135f4 <_vfprintf_r+0x1a6c>
   12dd8:	00912823          	sw	s1,16(sp)
   12ddc:	01000793          	li	a5,16
   12de0:	00700c13          	li	s8,7
   12de4:	000e0493          	mv	s1,t3
   12de8:	00c0006f          	j	12df4 <_vfprintf_r+0x126c>
   12dec:	ff040413          	addi	s0,s0,-16
   12df0:	7e87de63          	bge	a5,s0,135ec <_vfprintf_r+0x1a64>
   12df4:	010a8a93          	addi	s5,s5,16
   12df8:	00190913          	addi	s2,s2,1
   12dfc:	009d2023          	sw	s1,0(s10)
   12e00:	00fd2223          	sw	a5,4(s10)
   12e04:	0f512623          	sw	s5,236(sp)
   12e08:	0f212423          	sw	s2,232(sp)
   12e0c:	008d0d13          	addi	s10,s10,8
   12e10:	fd2c5ee3          	bge	s8,s2,12dec <_vfprintf_r+0x1264>
   12e14:	00012583          	lw	a1,0(sp)
   12e18:	0e410613          	addi	a2,sp,228
   12e1c:	00098513          	mv	a0,s3
   12e20:	0dd010ef          	jal	ra,146fc <__sprint_r>
   12e24:	bc0510e3          	bnez	a0,129e4 <_vfprintf_r+0xe5c>
   12e28:	0ec12a83          	lw	s5,236(sp)
   12e2c:	0e812903          	lw	s2,232(sp)
   12e30:	000d8d13          	mv	s10,s11
   12e34:	01000793          	li	a5,16
   12e38:	fb5ff06f          	j	12dec <_vfprintf_r+0x1264>
   12e3c:	00c12703          	lw	a4,12(sp)
   12e40:	01067793          	andi	a5,a2,16
   12e44:	00072683          	lw	a3,0(a4)
   12e48:	00470713          	addi	a4,a4,4
   12e4c:	00e12623          	sw	a4,12(sp)
   12e50:	06079463          	bnez	a5,12eb8 <_vfprintf_r+0x1330>
   12e54:	04067793          	andi	a5,a2,64
   12e58:	04078c63          	beqz	a5,12eb0 <_vfprintf_r+0x1328>
   12e5c:	01069d13          	slli	s10,a3,0x10
   12e60:	010d5d13          	srli	s10,s10,0x10
   12e64:	00000c93          	li	s9,0
   12e68:	00100793          	li	a5,1
   12e6c:	a10ff06f          	j	1207c <_vfprintf_r+0x4f4>
   12e70:	00000d13          	li	s10,0
   12e74:	1b010c13          	addi	s8,sp,432
   12e78:	9a8ff06f          	j	12020 <_vfprintf_r+0x498>
   12e7c:	001bf793          	andi	a5,s7,1
   12e80:	00079463          	bnez	a5,12e88 <_vfprintf_r+0x1300>
   12e84:	ff5fe06f          	j	11e78 <_vfprintf_r+0x2f0>
   12e88:	87dff06f          	j	12704 <_vfprintf_r+0xb7c>
   12e8c:	0004c883          	lbu	a7,0(s1)
   12e90:	00f12623          	sw	a5,12(sp)
   12e94:	e91fe06f          	j	11d24 <_vfprintf_r+0x19c>
   12e98:	200bf793          	andi	a5,s7,512
   12e9c:	2a0790e3          	bnez	a5,1393c <_vfprintf_r+0x1db4>
   12ea0:	41f6dc93          	srai	s9,a3,0x1f
   12ea4:	00068d13          	mv	s10,a3
   12ea8:	000c8793          	mv	a5,s9
   12eac:	948ff06f          	j	11ff4 <_vfprintf_r+0x46c>
   12eb0:	20067793          	andi	a5,a2,512
   12eb4:	26079ce3          	bnez	a5,1392c <_vfprintf_r+0x1da4>
   12eb8:	00068d13          	mv	s10,a3
   12ebc:	00000c93          	li	s9,0
   12ec0:	00100793          	li	a5,1
   12ec4:	9b8ff06f          	j	1207c <_vfprintf_r+0x4f4>
   12ec8:	200bf793          	andi	a5,s7,512
   12ecc:	280792e3          	bnez	a5,13950 <_vfprintf_r+0x1dc8>
   12ed0:	00068d13          	mv	s10,a3
   12ed4:	00000c93          	li	s9,0
   12ed8:	99cff06f          	j	12074 <_vfprintf_r+0x4ec>
   12edc:	00c12783          	lw	a5,12(sp)
   12ee0:	0007a683          	lw	a3,0(a5)
   12ee4:	00478793          	addi	a5,a5,4
   12ee8:	00f12623          	sw	a5,12(sp)
   12eec:	0006a803          	lw	a6,0(a3)
   12ef0:	0046a583          	lw	a1,4(a3)
   12ef4:	0086a603          	lw	a2,8(a3)
   12ef8:	00c6a683          	lw	a3,12(a3)
   12efc:	a34ff06f          	j	12130 <_vfprintf_r+0x5a8>
   12f00:	03412783          	lw	a5,52(sp)
   12f04:	0004c883          	lbu	a7,0(s1)
   12f08:	00079463          	bnez	a5,12f10 <_vfprintf_r+0x1388>
   12f0c:	e19fe06f          	j	11d24 <_vfprintf_r+0x19c>
   12f10:	0007c783          	lbu	a5,0(a5)
   12f14:	00079463          	bnez	a5,12f1c <_vfprintf_r+0x1394>
   12f18:	e0dfe06f          	j	11d24 <_vfprintf_r+0x19c>
   12f1c:	400beb93          	ori	s7,s7,1024
   12f20:	e05fe06f          	j	11d24 <_vfprintf_r+0x19c>
   12f24:	010bf793          	andi	a5,s7,16
   12f28:	60079463          	bnez	a5,13530 <_vfprintf_r+0x19a8>
   12f2c:	040bf793          	andi	a5,s7,64
   12f30:	22079ce3          	bnez	a5,13968 <_vfprintf_r+0x1de0>
   12f34:	200bf713          	andi	a4,s7,512
   12f38:	5e070c63          	beqz	a4,13530 <_vfprintf_r+0x19a8>
   12f3c:	00c12783          	lw	a5,12(sp)
   12f40:	00412703          	lw	a4,4(sp)
   12f44:	0007a783          	lw	a5,0(a5)
   12f48:	00e78023          	sb	a4,0(a5)
   12f4c:	e60ff06f          	j	125ac <_vfprintf_r+0xa24>
   12f50:	00078913          	mv	s2,a5
   12f54:	cd2042e3          	bgtz	s2,12c18 <_vfprintf_r+0x1090>
   12f58:	ce9ff06f          	j	12c40 <_vfprintf_r+0x10b8>
   12f5c:	000b8613          	mv	a2,s7
   12f60:	db4ff06f          	j	12514 <_vfprintf_r+0x98c>
   12f64:	0000f797          	auipc	a5,0xf
   12f68:	f2878793          	addi	a5,a5,-216 # 21e8c <__clzsi2+0x174>
   12f6c:	02f12623          	sw	a5,44(sp)
   12f70:	020bf793          	andi	a5,s7,32
   12f74:	2e078863          	beqz	a5,13264 <_vfprintf_r+0x16dc>
   12f78:	00c12783          	lw	a5,12(sp)
   12f7c:	00778a93          	addi	s5,a5,7
   12f80:	ff8afa93          	andi	s5,s5,-8
   12f84:	000aad03          	lw	s10,0(s5)
   12f88:	004aac83          	lw	s9,4(s5)
   12f8c:	008a8793          	addi	a5,s5,8
   12f90:	00f12623          	sw	a5,12(sp)
   12f94:	001bf793          	andi	a5,s7,1
   12f98:	00078e63          	beqz	a5,12fb4 <_vfprintf_r+0x142c>
   12f9c:	019d67b3          	or	a5,s10,s9
   12fa0:	00078a63          	beqz	a5,12fb4 <_vfprintf_r+0x142c>
   12fa4:	03000793          	li	a5,48
   12fa8:	0cf10423          	sb	a5,200(sp)
   12fac:	0d1104a3          	sb	a7,201(sp)
   12fb0:	002beb93          	ori	s7,s7,2
   12fb4:	bffbf613          	andi	a2,s7,-1025
   12fb8:	00200793          	li	a5,2
   12fbc:	8c0ff06f          	j	1207c <_vfprintf_r+0x4f4>
   12fc0:	0014c883          	lbu	a7,1(s1)
   12fc4:	200beb93          	ori	s7,s7,512
   12fc8:	00148493          	addi	s1,s1,1
   12fcc:	d59fe06f          	j	11d24 <_vfprintf_r+0x19c>
   12fd0:	00012583          	lw	a1,0(sp)
   12fd4:	0e410613          	addi	a2,sp,228
   12fd8:	00098513          	mv	a0,s3
   12fdc:	720010ef          	jal	ra,146fc <__sprint_r>
   12fe0:	a00512e3          	bnez	a0,129e4 <_vfprintf_r+0xe5c>
   12fe4:	0ec12603          	lw	a2,236(sp)
   12fe8:	000d8413          	mv	s0,s11
   12fec:	f48ff06f          	j	12734 <_vfprintf_r+0xbac>
   12ff0:	0014c883          	lbu	a7,1(s1)
   12ff4:	020beb93          	ori	s7,s7,32
   12ff8:	00148493          	addi	s1,s1,1
   12ffc:	d29fe06f          	j	11d24 <_vfprintf_r+0x19c>
   13000:	0000f797          	auipc	a5,0xf
   13004:	e7878793          	addi	a5,a5,-392 # 21e78 <__clzsi2+0x160>
   13008:	02f12623          	sw	a5,44(sp)
   1300c:	f65ff06f          	j	12f70 <_vfprintf_r+0x13e8>
   13010:	00600793          	li	a5,6
   13014:	00090d13          	mv	s10,s2
   13018:	0f27e8e3          	bltu	a5,s2,13908 <_vfprintf_r+0x1d80>
   1301c:	000d0c93          	mv	s9,s10
   13020:	01512623          	sw	s5,12(sp)
   13024:	0000fc17          	auipc	s8,0xf
   13028:	e7cc0c13          	addi	s8,s8,-388 # 21ea0 <__clzsi2+0x188>
   1302c:	d6dfe06f          	j	11d98 <_vfprintf_r+0x210>
   13030:	01000513          	li	a0,16
   13034:	0e812583          	lw	a1,232(sp)
   13038:	0000fe17          	auipc	t3,0xf
   1303c:	078e0e13          	addi	t3,t3,120 # 220b0 <zeroes.0>
   13040:	5f255e63          	bge	a0,s2,1363c <_vfprintf_r+0x1ab4>
   13044:	00040793          	mv	a5,s0
   13048:	01000d13          	li	s10,16
   1304c:	00700a93          	li	s5,7
   13050:	000e0413          	mv	s0,t3
   13054:	00c0006f          	j	13060 <_vfprintf_r+0x14d8>
   13058:	ff090913          	addi	s2,s2,-16
   1305c:	5d2d5c63          	bge	s10,s2,13634 <_vfprintf_r+0x1aac>
   13060:	01060613          	addi	a2,a2,16
   13064:	00158593          	addi	a1,a1,1
   13068:	0087a023          	sw	s0,0(a5)
   1306c:	01a7a223          	sw	s10,4(a5)
   13070:	0ec12623          	sw	a2,236(sp)
   13074:	0eb12423          	sw	a1,232(sp)
   13078:	00878793          	addi	a5,a5,8
   1307c:	fcbadee3          	bge	s5,a1,13058 <_vfprintf_r+0x14d0>
   13080:	00012583          	lw	a1,0(sp)
   13084:	0e410613          	addi	a2,sp,228
   13088:	00098513          	mv	a0,s3
   1308c:	670010ef          	jal	ra,146fc <__sprint_r>
   13090:	94051ae3          	bnez	a0,129e4 <_vfprintf_r+0xe5c>
   13094:	0ec12603          	lw	a2,236(sp)
   13098:	0e812583          	lw	a1,232(sp)
   1309c:	000d8793          	mv	a5,s11
   130a0:	fb9ff06f          	j	13058 <_vfprintf_r+0x14d0>
   130a4:	07800793          	li	a5,120
   130a8:	03000693          	li	a3,48
   130ac:	0cf104a3          	sb	a5,201(sp)
   130b0:	002be793          	ori	a5,s7,2
   130b4:	0cd10423          	sb	a3,200(sp)
   130b8:	02f12823          	sw	a5,48(sp)
   130bc:	06300693          	li	a3,99
   130c0:	00012423          	sw	zero,8(sp)
   130c4:	14c10c13          	addi	s8,sp,332
   130c8:	1126cae3          	blt	a3,s2,139dc <_vfprintf_r+0x1e54>
   130cc:	0fc12e03          	lw	t3,252(sp)
   130d0:	102be793          	ori	a5,s7,258
   130d4:	04f12423          	sw	a5,72(sp)
   130d8:	06012023          	sw	zero,96(sp)
   130dc:	0f012f83          	lw	t6,240(sp)
   130e0:	0f412f03          	lw	t5,244(sp)
   130e4:	0f812e83          	lw	t4,248(sp)
   130e8:	0a0e4ae3          	bltz	t3,1399c <_vfprintf_r+0x1e14>
   130ec:	06100713          	li	a4,97
   130f0:	00e89463          	bne	a7,a4,130f8 <_vfprintf_r+0x1570>
   130f4:	1fc0106f          	j	142f0 <_vfprintf_r+0x2768>
   130f8:	fbf88713          	addi	a4,a7,-65
   130fc:	02500693          	li	a3,37
   13100:	02e6e063          	bltu	a3,a4,13120 <_vfprintf_r+0x1598>
   13104:	0000f697          	auipc	a3,0xf
   13108:	f1468693          	addi	a3,a3,-236 # 22018 <__clzsi2+0x300>
   1310c:	00271713          	slli	a4,a4,0x2
   13110:	00d70733          	add	a4,a4,a3
   13114:	00072703          	lw	a4,0(a4)
   13118:	00d70733          	add	a4,a4,a3
   1311c:	00070067          	jr	a4
   13120:	00090693          	mv	a3,s2
   13124:	00200613          	li	a2,2
   13128:	0b010b93          	addi	s7,sp,176
   1312c:	0cc10713          	addi	a4,sp,204
   13130:	0dc10813          	addi	a6,sp,220
   13134:	0d010793          	addi	a5,sp,208
   13138:	000b8593          	mv	a1,s7
   1313c:	00098513          	mv	a0,s3
   13140:	05112623          	sw	a7,76(sp)
   13144:	04d12223          	sw	a3,68(sp)
   13148:	0bf12823          	sw	t6,176(sp)
   1314c:	01f12e23          	sw	t6,28(sp)
   13150:	0be12a23          	sw	t5,180(sp)
   13154:	01e12c23          	sw	t5,24(sp)
   13158:	0bd12c23          	sw	t4,184(sp)
   1315c:	01d12a23          	sw	t4,20(sp)
   13160:	0bc12e23          	sw	t3,188(sp)
   13164:	01c12823          	sw	t3,16(sp)
   13168:	691030ef          	jal	ra,16ff8 <_ldtoa_r>
   1316c:	04c12883          	lw	a7,76(sp)
   13170:	06700713          	li	a4,103
   13174:	01012e03          	lw	t3,16(sp)
   13178:	01412e83          	lw	t4,20(sp)
   1317c:	01812f03          	lw	t5,24(sp)
   13180:	01c12f83          	lw	t6,28(sp)
   13184:	04412683          	lw	a3,68(sp)
   13188:	00050c13          	mv	s8,a0
   1318c:	06e88ae3          	beq	a7,a4,13a00 <_vfprintf_r+0x1e78>
   13190:	04700713          	li	a4,71
   13194:	06e886e3          	beq	a7,a4,13a00 <_vfprintf_r+0x1e78>
   13198:	fdf8fa93          	andi	s5,a7,-33
   1319c:	04600593          	li	a1,70
   131a0:	00d50cb3          	add	s9,a0,a3
   131a4:	0a010d13          	addi	s10,sp,160
   131a8:	00ba9c63          	bne	s5,a1,131c0 <_vfprintf_r+0x1638>
   131ac:	00054503          	lbu	a0,0(a0)
   131b0:	03000593          	li	a1,48
   131b4:	1ab50ee3          	beq	a0,a1,13b70 <_vfprintf_r+0x1fe8>
   131b8:	0cc12683          	lw	a3,204(sp)
   131bc:	00dc8cb3          	add	s9,s9,a3
   131c0:	000b8513          	mv	a0,s7
   131c4:	000d0593          	mv	a1,s10
   131c8:	01112823          	sw	a7,16(sp)
   131cc:	0bf12823          	sw	t6,176(sp)
   131d0:	0be12a23          	sw	t5,180(sp)
   131d4:	0bd12c23          	sw	t4,184(sp)
   131d8:	0bc12e23          	sw	t3,188(sp)
   131dc:	0a012023          	sw	zero,160(sp)
   131e0:	0a012223          	sw	zero,164(sp)
   131e4:	0a012423          	sw	zero,168(sp)
   131e8:	0a012623          	sw	zero,172(sp)
   131ec:	0bd0b0ef          	jal	ra,1eaa8 <__eqtf2>
   131f0:	01012883          	lw	a7,16(sp)
   131f4:	000c8b93          	mv	s7,s9
   131f8:	02050263          	beqz	a0,1321c <_vfprintf_r+0x1694>
   131fc:	0dc12b83          	lw	s7,220(sp)
   13200:	019bfe63          	bgeu	s7,s9,1321c <_vfprintf_r+0x1694>
   13204:	03000593          	li	a1,48
   13208:	001b8793          	addi	a5,s7,1
   1320c:	0cf12e23          	sw	a5,220(sp)
   13210:	00bb8023          	sb	a1,0(s7)
   13214:	0dc12b83          	lw	s7,220(sp)
   13218:	ff9be8e3          	bltu	s7,s9,13208 <_vfprintf_r+0x1680>
   1321c:	418b87b3          	sub	a5,s7,s8
   13220:	00f12a23          	sw	a5,20(sp)
   13224:	0cc12703          	lw	a4,204(sp)
   13228:	04700693          	li	a3,71
   1322c:	00e12823          	sw	a4,16(sp)
   13230:	7eda8663          	beq	s5,a3,13a1c <_vfprintf_r+0x1e94>
   13234:	04600693          	li	a3,70
   13238:	74da84e3          	beq	s5,a3,14180 <_vfprintf_r+0x25f8>
   1323c:	fff70d13          	addi	s10,a4,-1
   13240:	0da12623          	sw	s10,204(sp)
   13244:	06100693          	li	a3,97
   13248:	00d89463          	bne	a7,a3,13250 <_vfprintf_r+0x16c8>
   1324c:	2440106f          	j	14490 <_vfprintf_r+0x2908>
   13250:	04100613          	li	a2,65
   13254:	05000693          	li	a3,80
   13258:	7ec89063          	bne	a7,a2,13a38 <_vfprintf_r+0x1eb0>
   1325c:	00100613          	li	a2,1
   13260:	7e00006f          	j	13a40 <_vfprintf_r+0x1eb8>
   13264:	00c12703          	lw	a4,12(sp)
   13268:	010bf793          	andi	a5,s7,16
   1326c:	00072683          	lw	a3,0(a4)
   13270:	00470713          	addi	a4,a4,4
   13274:	00e12623          	sw	a4,12(sp)
   13278:	06079663          	bnez	a5,132e4 <_vfprintf_r+0x175c>
   1327c:	040bf793          	andi	a5,s7,64
   13280:	04078e63          	beqz	a5,132dc <_vfprintf_r+0x1754>
   13284:	01069d13          	slli	s10,a3,0x10
   13288:	010d5d13          	srli	s10,s10,0x10
   1328c:	00000c93          	li	s9,0
   13290:	d05ff06f          	j	12f94 <_vfprintf_r+0x140c>
   13294:	00012583          	lw	a1,0(sp)
   13298:	0e410613          	addi	a2,sp,228
   1329c:	00098513          	mv	a0,s3
   132a0:	45c010ef          	jal	ra,146fc <__sprint_r>
   132a4:	f4051063          	bnez	a0,129e4 <_vfprintf_r+0xe5c>
   132a8:	0ec12a83          	lw	s5,236(sp)
   132ac:	0e812903          	lw	s2,232(sp)
   132b0:	000d8d13          	mv	s10,s11
   132b4:	f8dfe06f          	j	12240 <_vfprintf_r+0x6b8>
   132b8:	00012583          	lw	a1,0(sp)
   132bc:	0e410613          	addi	a2,sp,228
   132c0:	00098513          	mv	a0,s3
   132c4:	438010ef          	jal	ra,146fc <__sprint_r>
   132c8:	f0051e63          	bnez	a0,129e4 <_vfprintf_r+0xe5c>
   132cc:	0ec12a83          	lw	s5,236(sp)
   132d0:	0e812903          	lw	s2,232(sp)
   132d4:	000d8d13          	mv	s10,s11
   132d8:	f99fe06f          	j	12270 <_vfprintf_r+0x6e8>
   132dc:	200bf793          	andi	a5,s7,512
   132e0:	66079e63          	bnez	a5,1395c <_vfprintf_r+0x1dd4>
   132e4:	00068d13          	mv	s10,a3
   132e8:	00000c93          	li	s9,0
   132ec:	ca9ff06f          	j	12f94 <_vfprintf_r+0x140c>
   132f0:	1b010c13          	addi	s8,sp,432
   132f4:	00000793          	li	a5,0
   132f8:	00912423          	sw	s1,8(sp)
   132fc:	01212e23          	sw	s2,28(sp)
   13300:	40067b93          	andi	s7,a2,1024
   13304:	000c0913          	mv	s2,s8
   13308:	0ff00a93          	li	s5,255
   1330c:	00098c13          	mv	s8,s3
   13310:	00078493          	mv	s1,a5
   13314:	00040993          	mv	s3,s0
   13318:	01112823          	sw	a7,16(sp)
   1331c:	03412403          	lw	s0,52(sp)
   13320:	00c12c23          	sw	a2,24(sp)
   13324:	0240006f          	j	13348 <_vfprintf_r+0x17c0>
   13328:	00a00613          	li	a2,10
   1332c:	00000693          	li	a3,0
   13330:	000d0513          	mv	a0,s10
   13334:	000c8593          	mv	a1,s9
   13338:	23d080ef          	jal	ra,1bd74 <__udivdi3>
   1333c:	4e0c80e3          	beqz	s9,1401c <_vfprintf_r+0x2494>
   13340:	00050d13          	mv	s10,a0
   13344:	00058c93          	mv	s9,a1
   13348:	00a00613          	li	a2,10
   1334c:	00000693          	li	a3,0
   13350:	000d0513          	mv	a0,s10
   13354:	000c8593          	mv	a1,s9
   13358:	7e1080ef          	jal	ra,1c338 <__umoddi3>
   1335c:	03050513          	addi	a0,a0,48
   13360:	fea90fa3          	sb	a0,-1(s2)
   13364:	00148493          	addi	s1,s1,1
   13368:	fff90913          	addi	s2,s2,-1
   1336c:	fa0b8ee3          	beqz	s7,13328 <_vfprintf_r+0x17a0>
   13370:	00044703          	lbu	a4,0(s0)
   13374:	fae49ae3          	bne	s1,a4,13328 <_vfprintf_r+0x17a0>
   13378:	fb5488e3          	beq	s1,s5,13328 <_vfprintf_r+0x17a0>
   1337c:	300c9263          	bnez	s9,13680 <_vfprintf_r+0x1af8>
   13380:	00900713          	li	a4,9
   13384:	2fa76e63          	bltu	a4,s10,13680 <_vfprintf_r+0x1af8>
   13388:	01812603          	lw	a2,24(sp)
   1338c:	02812a23          	sw	s0,52(sp)
   13390:	1b010793          	addi	a5,sp,432
   13394:	00098413          	mv	s0,s3
   13398:	000c0993          	mv	s3,s8
   1339c:	00090c13          	mv	s8,s2
   133a0:	00912a23          	sw	s1,20(sp)
   133a4:	01012883          	lw	a7,16(sp)
   133a8:	00812483          	lw	s1,8(sp)
   133ac:	01c12903          	lw	s2,28(sp)
   133b0:	41878d33          	sub	s10,a5,s8
   133b4:	00060b93          	mv	s7,a2
   133b8:	c69fe06f          	j	12020 <_vfprintf_r+0x498>
   133bc:	0e812683          	lw	a3,232(sp)
   133c0:	0000f517          	auipc	a0,0xf
   133c4:	ae850513          	addi	a0,a0,-1304 # 21ea8 <__clzsi2+0x190>
   133c8:	00a42023          	sw	a0,0(s0)
   133cc:	00160613          	addi	a2,a2,1
   133d0:	00100513          	li	a0,1
   133d4:	00168693          	addi	a3,a3,1
   133d8:	00a42223          	sw	a0,4(s0)
   133dc:	0ec12623          	sw	a2,236(sp)
   133e0:	0ed12423          	sw	a3,232(sp)
   133e4:	00700513          	li	a0,7
   133e8:	00840413          	addi	s0,s0,8
   133ec:	4cd54663          	blt	a0,a3,138b8 <_vfprintf_r+0x1d30>
   133f0:	14059a63          	bnez	a1,13544 <_vfprintf_r+0x19bc>
   133f4:	01412783          	lw	a5,20(sp)
   133f8:	001bf693          	andi	a3,s7,1
   133fc:	00f6e6b3          	or	a3,a3,a5
   13400:	00069463          	bnez	a3,13408 <_vfprintf_r+0x1880>
   13404:	a75fe06f          	j	11e78 <_vfprintf_r+0x2f0>
   13408:	02412783          	lw	a5,36(sp)
   1340c:	0e812683          	lw	a3,232(sp)
   13410:	02812703          	lw	a4,40(sp)
   13414:	00c78633          	add	a2,a5,a2
   13418:	00168693          	addi	a3,a3,1
   1341c:	00e42023          	sw	a4,0(s0)
   13420:	00f42223          	sw	a5,4(s0)
   13424:	0ec12623          	sw	a2,236(sp)
   13428:	0ed12423          	sw	a3,232(sp)
   1342c:	00700593          	li	a1,7
   13430:	58d5c063          	blt	a1,a3,139b0 <_vfprintf_r+0x1e28>
   13434:	00840413          	addi	s0,s0,8
   13438:	1400006f          	j	13578 <_vfprintf_r+0x19f0>
   1343c:	02012503          	lw	a0,32(sp)
   13440:	9f8fd0ef          	jal	ra,10638 <__sinit>
   13444:	fc8fe06f          	j	11c0c <_vfprintf_r+0x84>
   13448:	00012583          	lw	a1,0(sp)
   1344c:	0e410613          	addi	a2,sp,228
   13450:	00098513          	mv	a0,s3
   13454:	2a8010ef          	jal	ra,146fc <__sprint_r>
   13458:	d8051663          	bnez	a0,129e4 <_vfprintf_r+0xe5c>
   1345c:	0ec12603          	lw	a2,236(sp)
   13460:	000d8413          	mv	s0,s11
   13464:	a94ff06f          	j	126f8 <_vfprintf_r+0xb70>
   13468:	00100613          	li	a2,1
   1346c:	50c780e3          	beq	a5,a2,1416c <_vfprintf_r+0x25e4>
   13470:	00200613          	li	a2,2
   13474:	b2c78e63          	beq	a5,a2,127b0 <_vfprintf_r+0xc28>
   13478:	000b8613          	mv	a2,s7
   1347c:	f4dfe06f          	j	123c8 <_vfprintf_r+0x840>
   13480:	000c0e13          	mv	t3,s8
   13484:	01c42023          	sw	t3,0(s0)
   13488:	01242223          	sw	s2,4(s0)
   1348c:	01260633          	add	a2,a2,s2
   13490:	00178793          	addi	a5,a5,1
   13494:	0ec12623          	sw	a2,236(sp)
   13498:	0ef12423          	sw	a5,232(sp)
   1349c:	00700693          	li	a3,7
   134a0:	00f6c463          	blt	a3,a5,134a8 <_vfprintf_r+0x1920>
   134a4:	9d1fe06f          	j	11e74 <_vfprintf_r+0x2ec>
   134a8:	e65fe06f          	j	1230c <_vfprintf_r+0x784>
   134ac:	0f012783          	lw	a5,240(sp)
   134b0:	0a010593          	addi	a1,sp,160
   134b4:	0b010513          	addi	a0,sp,176
   134b8:	0af12823          	sw	a5,176(sp)
   134bc:	0f412783          	lw	a5,244(sp)
   134c0:	0a012023          	sw	zero,160(sp)
   134c4:	0a012223          	sw	zero,164(sp)
   134c8:	0af12a23          	sw	a5,180(sp)
   134cc:	0f812783          	lw	a5,248(sp)
   134d0:	0a012423          	sw	zero,168(sp)
   134d4:	0a012623          	sw	zero,172(sp)
   134d8:	0af12c23          	sw	a5,184(sp)
   134dc:	0fc12783          	lw	a5,252(sp)
   134e0:	0af12e23          	sw	a5,188(sp)
   134e4:	7fc0b0ef          	jal	ra,1ece0 <__letf2>
   134e8:	00812883          	lw	a7,8(sp)
   134ec:	32054ee3          	bltz	a0,14028 <_vfprintf_r+0x24a0>
   134f0:	0c714683          	lbu	a3,199(sp)
   134f4:	04700613          	li	a2,71
   134f8:	0000fc17          	auipc	s8,0xf
   134fc:	970c0c13          	addi	s8,s8,-1680 # 21e68 <__clzsi2+0x150>
   13500:	3d164e63          	blt	a2,a7,138dc <_vfprintf_r+0x1d54>
   13504:	00012423          	sw	zero,8(sp)
   13508:	00012e23          	sw	zero,28(sp)
   1350c:	00012c23          	sw	zero,24(sp)
   13510:	00012823          	sw	zero,16(sp)
   13514:	f7fbfb93          	andi	s7,s7,-129
   13518:	00300c93          	li	s9,3
   1351c:	00300d13          	li	s10,3
   13520:	00000913          	li	s2,0
   13524:	00068463          	beqz	a3,1352c <_vfprintf_r+0x19a4>
   13528:	b1dfe06f          	j	12044 <_vfprintf_r+0x4bc>
   1352c:	881fe06f          	j	11dac <_vfprintf_r+0x224>
   13530:	00c12783          	lw	a5,12(sp)
   13534:	00412703          	lw	a4,4(sp)
   13538:	0007a783          	lw	a5,0(a5)
   1353c:	00e7a023          	sw	a4,0(a5)
   13540:	86cff06f          	j	125ac <_vfprintf_r+0xa24>
   13544:	02412783          	lw	a5,36(sp)
   13548:	0e812683          	lw	a3,232(sp)
   1354c:	02812703          	lw	a4,40(sp)
   13550:	00c78633          	add	a2,a5,a2
   13554:	00168693          	addi	a3,a3,1
   13558:	00e42023          	sw	a4,0(s0)
   1355c:	00f42223          	sw	a5,4(s0)
   13560:	0ec12623          	sw	a2,236(sp)
   13564:	0ed12423          	sw	a3,232(sp)
   13568:	00700513          	li	a0,7
   1356c:	00840413          	addi	s0,s0,8
   13570:	44d54063          	blt	a0,a3,139b0 <_vfprintf_r+0x1e28>
   13574:	3805c0e3          	bltz	a1,140f4 <_vfprintf_r+0x256c>
   13578:	01412783          	lw	a5,20(sp)
   1357c:	00168693          	addi	a3,a3,1
   13580:	01842023          	sw	s8,0(s0)
   13584:	00c78633          	add	a2,a5,a2
   13588:	00f42223          	sw	a5,4(s0)
   1358c:	0ec12623          	sw	a2,236(sp)
   13590:	0ed12423          	sw	a3,232(sp)
   13594:	00700793          	li	a5,7
   13598:	00d7c463          	blt	a5,a3,135a0 <_vfprintf_r+0x1a18>
   1359c:	8d9fe06f          	j	11e74 <_vfprintf_r+0x2ec>
   135a0:	d6dfe06f          	j	1230c <_vfprintf_r+0x784>
   135a4:	000c0513          	mv	a0,s8
   135a8:	03112823          	sw	a7,48(sp)
   135ac:	61c030ef          	jal	ra,16bc8 <strlen>
   135b0:	0c714683          	lbu	a3,199(sp)
   135b4:	fff54813          	not	a6,a0
   135b8:	41f85813          	srai	a6,a6,0x1f
   135bc:	01512623          	sw	s5,12(sp)
   135c0:	00012423          	sw	zero,8(sp)
   135c4:	00012e23          	sw	zero,28(sp)
   135c8:	00012c23          	sw	zero,24(sp)
   135cc:	00012823          	sw	zero,16(sp)
   135d0:	03012883          	lw	a7,48(sp)
   135d4:	00050d13          	mv	s10,a0
   135d8:	01057cb3          	and	s9,a0,a6
   135dc:	00000913          	li	s2,0
   135e0:	00068463          	beqz	a3,135e8 <_vfprintf_r+0x1a60>
   135e4:	a61fe06f          	j	12044 <_vfprintf_r+0x4bc>
   135e8:	fc4fe06f          	j	11dac <_vfprintf_r+0x224>
   135ec:	00048e13          	mv	t3,s1
   135f0:	01012483          	lw	s1,16(sp)
   135f4:	008a8ab3          	add	s5,s5,s0
   135f8:	00190913          	addi	s2,s2,1
   135fc:	01cd2023          	sw	t3,0(s10)
   13600:	cc9fe06f          	j	122c8 <_vfprintf_r+0x740>
   13604:	0fc12783          	lw	a5,252(sp)
   13608:	3807d463          	bgez	a5,13990 <_vfprintf_r+0x1e08>
   1360c:	02d00793          	li	a5,45
   13610:	0cf103a3          	sb	a5,199(sp)
   13614:	02d00693          	li	a3,45
   13618:	04700613          	li	a2,71
   1361c:	0000fc17          	auipc	s8,0xf
   13620:	854c0c13          	addi	s8,s8,-1964 # 21e70 <__clzsi2+0x158>
   13624:	ef1650e3          	bge	a2,a7,13504 <_vfprintf_r+0x197c>
   13628:	0000fc17          	auipc	s8,0xf
   1362c:	84cc0c13          	addi	s8,s8,-1972 # 21e74 <__clzsi2+0x15c>
   13630:	ed5ff06f          	j	13504 <_vfprintf_r+0x197c>
   13634:	00040e13          	mv	t3,s0
   13638:	00078413          	mv	s0,a5
   1363c:	01260633          	add	a2,a2,s2
   13640:	00158593          	addi	a1,a1,1
   13644:	01c42023          	sw	t3,0(s0)
   13648:	01242223          	sw	s2,4(s0)
   1364c:	0ec12623          	sw	a2,236(sp)
   13650:	0eb12423          	sw	a1,232(sp)
   13654:	00700693          	li	a3,7
   13658:	00840413          	addi	s0,s0,8
   1365c:	deb6de63          	bge	a3,a1,12c58 <_vfprintf_r+0x10d0>
   13660:	00012583          	lw	a1,0(sp)
   13664:	0e410613          	addi	a2,sp,228
   13668:	00098513          	mv	a0,s3
   1366c:	090010ef          	jal	ra,146fc <__sprint_r>
   13670:	b6051a63          	bnez	a0,129e4 <_vfprintf_r+0xe5c>
   13674:	0ec12603          	lw	a2,236(sp)
   13678:	000d8413          	mv	s0,s11
   1367c:	ddcff06f          	j	12c58 <_vfprintf_r+0x10d0>
   13680:	04012783          	lw	a5,64(sp)
   13684:	03c12583          	lw	a1,60(sp)
   13688:	00000493          	li	s1,0
   1368c:	40f90933          	sub	s2,s2,a5
   13690:	00078613          	mv	a2,a5
   13694:	00090513          	mv	a0,s2
   13698:	1a4030ef          	jal	ra,1683c <strncpy>
   1369c:	00144703          	lbu	a4,1(s0)
   136a0:	00a00613          	li	a2,10
   136a4:	00000693          	li	a3,0
   136a8:	00e03733          	snez	a4,a4
   136ac:	000d0513          	mv	a0,s10
   136b0:	000c8593          	mv	a1,s9
   136b4:	00e40433          	add	s0,s0,a4
   136b8:	6bc080ef          	jal	ra,1bd74 <__udivdi3>
   136bc:	c85ff06f          	j	13340 <_vfprintf_r+0x17b8>
   136c0:	01812d03          	lw	s10,24(sp)
   136c4:	04912223          	sw	s1,68(sp)
   136c8:	05712423          	sw	s7,72(sp)
   136cc:	01912c23          	sw	s9,24(sp)
   136d0:	05412623          	sw	s4,76(sp)
   136d4:	00040693          	mv	a3,s0
   136d8:	03412b83          	lw	s7,52(sp)
   136dc:	01c12403          	lw	s0,28(sp)
   136e0:	04012c83          	lw	s9,64(sp)
   136e4:	00012483          	lw	s1,0(sp)
   136e8:	00700e13          	li	t3,7
   136ec:	01000913          	li	s2,16
   136f0:	0000fa97          	auipc	s5,0xf
   136f4:	9c0a8a93          	addi	s5,s5,-1600 # 220b0 <zeroes.0>
   136f8:	080d0863          	beqz	s10,13788 <_vfprintf_r+0x1c00>
   136fc:	16040263          	beqz	s0,13860 <_vfprintf_r+0x1cd8>
   13700:	fff40413          	addi	s0,s0,-1
   13704:	03c12783          	lw	a5,60(sp)
   13708:	01960633          	add	a2,a2,s9
   1370c:	0196a223          	sw	s9,4(a3)
   13710:	00f6a023          	sw	a5,0(a3)
   13714:	0e812783          	lw	a5,232(sp)
   13718:	0ec12623          	sw	a2,236(sp)
   1371c:	00868693          	addi	a3,a3,8
   13720:	00178793          	addi	a5,a5,1
   13724:	0ef12423          	sw	a5,232(sp)
   13728:	14fe4263          	blt	t3,a5,1386c <_vfprintf_r+0x1ce4>
   1372c:	03012783          	lw	a5,48(sp)
   13730:	000bc703          	lbu	a4,0(s7)
   13734:	41878a33          	sub	s4,a5,s8
   13738:	01475463          	bge	a4,s4,13740 <_vfprintf_r+0x1bb8>
   1373c:	00070a13          	mv	s4,a4
   13740:	03405663          	blez	s4,1376c <_vfprintf_r+0x1be4>
   13744:	0e812703          	lw	a4,232(sp)
   13748:	01460633          	add	a2,a2,s4
   1374c:	0186a023          	sw	s8,0(a3)
   13750:	00170713          	addi	a4,a4,1
   13754:	0146a223          	sw	s4,4(a3)
   13758:	0ec12623          	sw	a2,236(sp)
   1375c:	0ee12423          	sw	a4,232(sp)
   13760:	12ee4863          	blt	t3,a4,13890 <_vfprintf_r+0x1d08>
   13764:	000bc703          	lbu	a4,0(s7)
   13768:	00868693          	addi	a3,a3,8
   1376c:	fffa4593          	not	a1,s4
   13770:	41f5d593          	srai	a1,a1,0x1f
   13774:	00ba77b3          	and	a5,s4,a1
   13778:	40f70a33          	sub	s4,a4,a5
   1377c:	03404c63          	bgtz	s4,137b4 <_vfprintf_r+0x1c2c>
   13780:	00ec0c33          	add	s8,s8,a4
   13784:	f60d1ce3          	bnez	s10,136fc <_vfprintf_r+0x1b74>
   13788:	f6041ce3          	bnez	s0,13700 <_vfprintf_r+0x1b78>
   1378c:	03012783          	lw	a5,48(sp)
   13790:	03712a23          	sw	s7,52(sp)
   13794:	04412483          	lw	s1,68(sp)
   13798:	04812b83          	lw	s7,72(sp)
   1379c:	04c12a03          	lw	s4,76(sp)
   137a0:	01812c83          	lw	s9,24(sp)
   137a4:	00068413          	mv	s0,a3
   137a8:	cd87f063          	bgeu	a5,s8,12c68 <_vfprintf_r+0x10e0>
   137ac:	00078c13          	mv	s8,a5
   137b0:	cb8ff06f          	j	12c68 <_vfprintf_r+0x10e0>
   137b4:	0e812703          	lw	a4,232(sp)
   137b8:	0000f597          	auipc	a1,0xf
   137bc:	8f858593          	addi	a1,a1,-1800 # 220b0 <zeroes.0>
   137c0:	07495a63          	bge	s2,s4,13834 <_vfprintf_r+0x1cac>
   137c4:	00812823          	sw	s0,16(sp)
   137c8:	000a0413          	mv	s0,s4
   137cc:	000a8a13          	mv	s4,s5
   137d0:	00c0006f          	j	137dc <_vfprintf_r+0x1c54>
   137d4:	ff040413          	addi	s0,s0,-16
   137d8:	04895863          	bge	s2,s0,13828 <_vfprintf_r+0x1ca0>
   137dc:	01060613          	addi	a2,a2,16
   137e0:	00170713          	addi	a4,a4,1
   137e4:	0156a023          	sw	s5,0(a3)
   137e8:	0126a223          	sw	s2,4(a3)
   137ec:	0ec12623          	sw	a2,236(sp)
   137f0:	0ee12423          	sw	a4,232(sp)
   137f4:	00868693          	addi	a3,a3,8
   137f8:	fcee5ee3          	bge	t3,a4,137d4 <_vfprintf_r+0x1c4c>
   137fc:	0e410613          	addi	a2,sp,228
   13800:	00048593          	mv	a1,s1
   13804:	00098513          	mv	a0,s3
   13808:	6f5000ef          	jal	ra,146fc <__sprint_r>
   1380c:	9c051c63          	bnez	a0,129e4 <_vfprintf_r+0xe5c>
   13810:	ff040413          	addi	s0,s0,-16
   13814:	0ec12603          	lw	a2,236(sp)
   13818:	0e812703          	lw	a4,232(sp)
   1381c:	000d8693          	mv	a3,s11
   13820:	00700e13          	li	t3,7
   13824:	fa894ce3          	blt	s2,s0,137dc <_vfprintf_r+0x1c54>
   13828:	000a0593          	mv	a1,s4
   1382c:	00040a13          	mv	s4,s0
   13830:	01012403          	lw	s0,16(sp)
   13834:	01460633          	add	a2,a2,s4
   13838:	00170713          	addi	a4,a4,1
   1383c:	00b6a023          	sw	a1,0(a3)
   13840:	0146a223          	sw	s4,4(a3)
   13844:	0ec12623          	sw	a2,236(sp)
   13848:	0ee12423          	sw	a4,232(sp)
   1384c:	7aee4063          	blt	t3,a4,13fec <_vfprintf_r+0x2464>
   13850:	000bc703          	lbu	a4,0(s7)
   13854:	00868693          	addi	a3,a3,8
   13858:	00ec0c33          	add	s8,s8,a4
   1385c:	f29ff06f          	j	13784 <_vfprintf_r+0x1bfc>
   13860:	fffb8b93          	addi	s7,s7,-1
   13864:	fffd0d13          	addi	s10,s10,-1
   13868:	e9dff06f          	j	13704 <_vfprintf_r+0x1b7c>
   1386c:	0e410613          	addi	a2,sp,228
   13870:	00048593          	mv	a1,s1
   13874:	00098513          	mv	a0,s3
   13878:	685000ef          	jal	ra,146fc <__sprint_r>
   1387c:	96051463          	bnez	a0,129e4 <_vfprintf_r+0xe5c>
   13880:	0ec12603          	lw	a2,236(sp)
   13884:	000d8693          	mv	a3,s11
   13888:	00700e13          	li	t3,7
   1388c:	ea1ff06f          	j	1372c <_vfprintf_r+0x1ba4>
   13890:	0e410613          	addi	a2,sp,228
   13894:	00048593          	mv	a1,s1
   13898:	00098513          	mv	a0,s3
   1389c:	661000ef          	jal	ra,146fc <__sprint_r>
   138a0:	94051263          	bnez	a0,129e4 <_vfprintf_r+0xe5c>
   138a4:	000bc703          	lbu	a4,0(s7)
   138a8:	0ec12603          	lw	a2,236(sp)
   138ac:	000d8693          	mv	a3,s11
   138b0:	00700e13          	li	t3,7
   138b4:	eb9ff06f          	j	1376c <_vfprintf_r+0x1be4>
   138b8:	00012583          	lw	a1,0(sp)
   138bc:	0e410613          	addi	a2,sp,228
   138c0:	00098513          	mv	a0,s3
   138c4:	639000ef          	jal	ra,146fc <__sprint_r>
   138c8:	90051e63          	bnez	a0,129e4 <_vfprintf_r+0xe5c>
   138cc:	0cc12583          	lw	a1,204(sp)
   138d0:	0ec12603          	lw	a2,236(sp)
   138d4:	000d8413          	mv	s0,s11
   138d8:	b19ff06f          	j	133f0 <_vfprintf_r+0x1868>
   138dc:	0000ec17          	auipc	s8,0xe
   138e0:	590c0c13          	addi	s8,s8,1424 # 21e6c <__clzsi2+0x154>
   138e4:	c21ff06f          	j	13504 <_vfprintf_r+0x197c>
   138e8:	00012583          	lw	a1,0(sp)
   138ec:	0e410613          	addi	a2,sp,228
   138f0:	00098513          	mv	a0,s3
   138f4:	609000ef          	jal	ra,146fc <__sprint_r>
   138f8:	8e051663          	bnez	a0,129e4 <_vfprintf_r+0xe5c>
   138fc:	0ec12603          	lw	a2,236(sp)
   13900:	000d8413          	mv	s0,s11
   13904:	b3cff06f          	j	12c40 <_vfprintf_r+0x10b8>
   13908:	00600d13          	li	s10,6
   1390c:	f10ff06f          	j	1301c <_vfprintf_r+0x1494>
   13910:	01412783          	lw	a5,20(sp)
   13914:	40d786b3          	sub	a3,a5,a3
   13918:	03012783          	lw	a5,48(sp)
   1391c:	41878933          	sub	s2,a5,s8
   13920:	bd26dc63          	bge	a3,s2,12cf8 <_vfprintf_r+0x1170>
   13924:	00068913          	mv	s2,a3
   13928:	bd0ff06f          	j	12cf8 <_vfprintf_r+0x1170>
   1392c:	0ff6fd13          	zext.b	s10,a3
   13930:	00000c93          	li	s9,0
   13934:	00100793          	li	a5,1
   13938:	f44fe06f          	j	1207c <_vfprintf_r+0x4f4>
   1393c:	01869d13          	slli	s10,a3,0x18
   13940:	418d5d13          	srai	s10,s10,0x18
   13944:	41fd5c93          	srai	s9,s10,0x1f
   13948:	000c8793          	mv	a5,s9
   1394c:	ea8fe06f          	j	11ff4 <_vfprintf_r+0x46c>
   13950:	0ff6fd13          	zext.b	s10,a3
   13954:	00000c93          	li	s9,0
   13958:	f1cfe06f          	j	12074 <_vfprintf_r+0x4ec>
   1395c:	0ff6fd13          	zext.b	s10,a3
   13960:	00000c93          	li	s9,0
   13964:	e30ff06f          	j	12f94 <_vfprintf_r+0x140c>
   13968:	00c12783          	lw	a5,12(sp)
   1396c:	00412703          	lw	a4,4(sp)
   13970:	0007a783          	lw	a5,0(a5)
   13974:	00e79023          	sh	a4,0(a5)
   13978:	c35fe06f          	j	125ac <_vfprintf_r+0xa24>
   1397c:	00012583          	lw	a1,0(sp)
   13980:	02012503          	lw	a0,32(sp)
   13984:	0e410613          	addi	a2,sp,228
   13988:	575000ef          	jal	ra,146fc <__sprint_r>
   1398c:	d4cfe06f          	j	11ed8 <_vfprintf_r+0x350>
   13990:	0c714683          	lbu	a3,199(sp)
   13994:	c85ff06f          	j	13618 <_vfprintf_r+0x1a90>
   13998:	00012423          	sw	zero,8(sp)
   1399c:	80000737          	lui	a4,0x80000
   139a0:	02d00793          	li	a5,45
   139a4:	01c74e33          	xor	t3,a4,t3
   139a8:	06f12023          	sw	a5,96(sp)
   139ac:	f40ff06f          	j	130ec <_vfprintf_r+0x1564>
   139b0:	00012583          	lw	a1,0(sp)
   139b4:	0e410613          	addi	a2,sp,228
   139b8:	00098513          	mv	a0,s3
   139bc:	541000ef          	jal	ra,146fc <__sprint_r>
   139c0:	00050463          	beqz	a0,139c8 <_vfprintf_r+0x1e40>
   139c4:	820ff06f          	j	129e4 <_vfprintf_r+0xe5c>
   139c8:	0cc12583          	lw	a1,204(sp)
   139cc:	0ec12603          	lw	a2,236(sp)
   139d0:	0e812683          	lw	a3,232(sp)
   139d4:	000d8413          	mv	s0,s11
   139d8:	b9dff06f          	j	13574 <_vfprintf_r+0x19ec>
   139dc:	00190593          	addi	a1,s2,1
   139e0:	00098513          	mv	a0,s3
   139e4:	01112423          	sw	a7,8(sp)
   139e8:	a0dfd0ef          	jal	ra,113f4 <_malloc_r>
   139ec:	00812883          	lw	a7,8(sp)
   139f0:	00050c13          	mv	s8,a0
   139f4:	30050ae3          	beqz	a0,14508 <_vfprintf_r+0x2980>
   139f8:	00a12423          	sw	a0,8(sp)
   139fc:	ed0ff06f          	j	130cc <_vfprintf_r+0x1544>
   13a00:	03012783          	lw	a5,48(sp)
   13a04:	0017f713          	andi	a4,a5,1
   13a08:	78071e63          	bnez	a4,141a4 <_vfprintf_r+0x261c>
   13a0c:	0dc12b83          	lw	s7,220(sp)
   13a10:	0cc12703          	lw	a4,204(sp)
   13a14:	418b87b3          	sub	a5,s7,s8
   13a18:	00f12a23          	sw	a5,20(sp)
   13a1c:	ffd00693          	li	a3,-3
   13a20:	00e12823          	sw	a4,16(sp)
   13a24:	00d74463          	blt	a4,a3,13a2c <_vfprintf_r+0x1ea4>
   13a28:	56e95a63          	bge	s2,a4,13f9c <_vfprintf_r+0x2414>
   13a2c:	fff70d13          	addi	s10,a4,-1 # 7fffffff <__BSS_END__+0x7ffdc4fb>
   13a30:	ffe88893          	addi	a7,a7,-2
   13a34:	0da12623          	sw	s10,204(sp)
   13a38:	0ff8f693          	zext.b	a3,a7
   13a3c:	00000613          	li	a2,0
   13a40:	0cd10a23          	sb	a3,212(sp)
   13a44:	02b00693          	li	a3,43
   13a48:	000d5863          	bgez	s10,13a58 <_vfprintf_r+0x1ed0>
   13a4c:	00100d13          	li	s10,1
   13a50:	40ed0d33          	sub	s10,s10,a4
   13a54:	02d00693          	li	a3,45
   13a58:	0cd10aa3          	sb	a3,213(sp)
   13a5c:	00900713          	li	a4,9
   13a60:	75a75a63          	bge	a4,s10,141b4 <_vfprintf_r+0x262c>
   13a64:	0e310913          	addi	s2,sp,227
   13a68:	00098a93          	mv	s5,s3
   13a6c:	06300c93          	li	s9,99
   13a70:	00040993          	mv	s3,s0
   13a74:	00912823          	sw	s1,16(sp)
   13a78:	01112c23          	sw	a7,24(sp)
   13a7c:	00090413          	mv	s0,s2
   13a80:	00a00593          	li	a1,10
   13a84:	000d0513          	mv	a0,s10
   13a88:	2600e0ef          	jal	ra,21ce8 <__modsi3>
   13a8c:	03050793          	addi	a5,a0,48
   13a90:	fef40fa3          	sb	a5,-1(s0)
   13a94:	000d0513          	mv	a0,s10
   13a98:	00a00593          	li	a1,10
   13a9c:	000d0493          	mv	s1,s10
   13aa0:	1c40e0ef          	jal	ra,21c64 <__divsi3>
   13aa4:	00040b93          	mv	s7,s0
   13aa8:	00050d13          	mv	s10,a0
   13aac:	fff40413          	addi	s0,s0,-1
   13ab0:	fc9cc8e3          	blt	s9,s1,13a80 <_vfprintf_r+0x1ef8>
   13ab4:	000a8793          	mv	a5,s5
   13ab8:	03050d13          	addi	s10,a0,48
   13abc:	000b8a93          	mv	s5,s7
   13ac0:	00040b93          	mv	s7,s0
   13ac4:	ffea8713          	addi	a4,s5,-2
   13ac8:	ffab8fa3          	sb	s10,-1(s7)
   13acc:	00098413          	mv	s0,s3
   13ad0:	01012483          	lw	s1,16(sp)
   13ad4:	01812883          	lw	a7,24(sp)
   13ad8:	00078993          	mv	s3,a5
   13adc:	232770e3          	bgeu	a4,s2,144fc <_vfprintf_r+0x2974>
   13ae0:	0d610613          	addi	a2,sp,214
   13ae4:	00074783          	lbu	a5,0(a4)
   13ae8:	00170713          	addi	a4,a4,1
   13aec:	00160613          	addi	a2,a2,1
   13af0:	fef60fa3          	sb	a5,-1(a2)
   13af4:	ff2718e3          	bne	a4,s2,13ae4 <_vfprintf_r+0x1f5c>
   13af8:	0e510713          	addi	a4,sp,229
   13afc:	0d610793          	addi	a5,sp,214
   13b00:	41570733          	sub	a4,a4,s5
   13b04:	00e78733          	add	a4,a5,a4
   13b08:	0d410693          	addi	a3,sp,212
   13b0c:	40d707b3          	sub	a5,a4,a3
   13b10:	02f12c23          	sw	a5,56(sp)
   13b14:	03812683          	lw	a3,56(sp)
   13b18:	01412783          	lw	a5,20(sp)
   13b1c:	00100713          	li	a4,1
   13b20:	00f68d33          	add	s10,a3,a5
   13b24:	7af75263          	bge	a4,a5,142c8 <_vfprintf_r+0x2740>
   13b28:	02412783          	lw	a5,36(sp)
   13b2c:	00fd0d33          	add	s10,s10,a5
   13b30:	03012783          	lw	a5,48(sp)
   13b34:	fffd4813          	not	a6,s10
   13b38:	41f85813          	srai	a6,a6,0x1f
   13b3c:	bff7f713          	andi	a4,a5,-1025
   13b40:	10076b93          	ori	s7,a4,256
   13b44:	010d7cb3          	and	s9,s10,a6
   13b48:	00012e23          	sw	zero,28(sp)
   13b4c:	00012c23          	sw	zero,24(sp)
   13b50:	00012823          	sw	zero,16(sp)
   13b54:	06012783          	lw	a5,96(sp)
   13b58:	42078863          	beqz	a5,13f88 <_vfprintf_r+0x2400>
   13b5c:	02d00693          	li	a3,45
   13b60:	0cd103a3          	sb	a3,199(sp)
   13b64:	00000913          	li	s2,0
   13b68:	001c8c93          	addi	s9,s9,1
   13b6c:	a40fe06f          	j	11dac <_vfprintf_r+0x224>
   13b70:	000d0593          	mv	a1,s10
   13b74:	000b8513          	mv	a0,s7
   13b78:	05112223          	sw	a7,68(sp)
   13b7c:	0bf12823          	sw	t6,176(sp)
   13b80:	01f12e23          	sw	t6,28(sp)
   13b84:	0be12a23          	sw	t5,180(sp)
   13b88:	01e12c23          	sw	t5,24(sp)
   13b8c:	0bd12c23          	sw	t4,184(sp)
   13b90:	01d12a23          	sw	t4,20(sp)
   13b94:	0bc12e23          	sw	t3,188(sp)
   13b98:	01c12823          	sw	t3,16(sp)
   13b9c:	04d12623          	sw	a3,76(sp)
   13ba0:	0a012023          	sw	zero,160(sp)
   13ba4:	0a012223          	sw	zero,164(sp)
   13ba8:	0a012423          	sw	zero,168(sp)
   13bac:	0a012623          	sw	zero,172(sp)
   13bb0:	6f90a0ef          	jal	ra,1eaa8 <__eqtf2>
   13bb4:	01012e03          	lw	t3,16(sp)
   13bb8:	01412e83          	lw	t4,20(sp)
   13bbc:	01812f03          	lw	t5,24(sp)
   13bc0:	01c12f83          	lw	t6,28(sp)
   13bc4:	04412883          	lw	a7,68(sp)
   13bc8:	de050863          	beqz	a0,131b8 <_vfprintf_r+0x1630>
   13bcc:	04c12683          	lw	a3,76(sp)
   13bd0:	00100593          	li	a1,1
   13bd4:	40d586b3          	sub	a3,a1,a3
   13bd8:	0cd12623          	sw	a3,204(sp)
   13bdc:	de0ff06f          	j	131bc <_vfprintf_r+0x1634>
   13be0:	00190693          	addi	a3,s2,1
   13be4:	00200613          	li	a2,2
   13be8:	d40ff06f          	j	13128 <_vfprintf_r+0x15a0>
   13bec:	00090693          	mv	a3,s2
   13bf0:	00300613          	li	a2,3
   13bf4:	d34ff06f          	j	13128 <_vfprintf_r+0x15a0>
   13bf8:	0b010b93          	addi	s7,sp,176
   13bfc:	0a010d13          	addi	s10,sp,160
   13c00:	0cc10613          	addi	a2,sp,204
   13c04:	000d0593          	mv	a1,s10
   13c08:	000b8513          	mv	a0,s7
   13c0c:	05112223          	sw	a7,68(sp)
   13c10:	0bf12023          	sw	t6,160(sp)
   13c14:	0be12223          	sw	t5,164(sp)
   13c18:	0bd12423          	sw	t4,168(sp)
   13c1c:	0bc12623          	sw	t3,172(sp)
   13c20:	1b0030ef          	jal	ra,16dd0 <frexpl>
   13c24:	0b012e83          	lw	t4,176(sp)
   13c28:	0000e717          	auipc	a4,0xe
   13c2c:	4a870713          	addi	a4,a4,1192 # 220d0 <blanks.1+0x10>
   13c30:	00072e03          	lw	t3,0(a4)
   13c34:	0bd12023          	sw	t4,160(sp)
   13c38:	0b412e83          	lw	t4,180(sp)
   13c3c:	00472803          	lw	a6,4(a4)
   13c40:	00872683          	lw	a3,8(a4)
   13c44:	0bd12223          	sw	t4,164(sp)
   13c48:	0b812e83          	lw	t4,184(sp)
   13c4c:	00c72703          	lw	a4,12(a4)
   13c50:	09010793          	addi	a5,sp,144
   13c54:	0bd12423          	sw	t4,168(sp)
   13c58:	0bc12e83          	lw	t4,188(sp)
   13c5c:	00078613          	mv	a2,a5
   13c60:	000d0593          	mv	a1,s10
   13c64:	000b8513          	mv	a0,s7
   13c68:	00f12823          	sw	a5,16(sp)
   13c6c:	0bd12623          	sw	t4,172(sp)
   13c70:	09c12823          	sw	t3,144(sp)
   13c74:	09012a23          	sw	a6,148(sp)
   13c78:	08d12c23          	sw	a3,152(sp)
   13c7c:	08e12e23          	sw	a4,156(sp)
   13c80:	1c40b0ef          	jal	ra,1ee44 <__multf3>
   13c84:	0b412803          	lw	a6,180(sp)
   13c88:	0b812e03          	lw	t3,184(sp)
   13c8c:	0bc12e83          	lw	t4,188(sp)
   13c90:	000d0593          	mv	a1,s10
   13c94:	000b8513          	mv	a0,s7
   13c98:	01012e23          	sw	a6,28(sp)
   13c9c:	01c12c23          	sw	t3,24(sp)
   13ca0:	01d12a23          	sw	t4,20(sp)
   13ca4:	0a012023          	sw	zero,160(sp)
   13ca8:	0a012223          	sw	zero,164(sp)
   13cac:	0a012423          	sw	zero,168(sp)
   13cb0:	0a012623          	sw	zero,172(sp)
   13cb4:	5f50a0ef          	jal	ra,1eaa8 <__eqtf2>
   13cb8:	0b012c83          	lw	s9,176(sp)
   13cbc:	01412e83          	lw	t4,20(sp)
   13cc0:	01812e03          	lw	t3,24(sp)
   13cc4:	01c12803          	lw	a6,28(sp)
   13cc8:	04412883          	lw	a7,68(sp)
   13ccc:	00051e63          	bnez	a0,13ce8 <_vfprintf_r+0x2160>
   13cd0:	00100713          	li	a4,1
   13cd4:	0ce12623          	sw	a4,204(sp)
   13cd8:	06100713          	li	a4,97
   13cdc:	0000e317          	auipc	t1,0xe
   13ce0:	19c30313          	addi	t1,t1,412 # 21e78 <__clzsi2+0x160>
   13ce4:	00e88663          	beq	a7,a4,13cf0 <_vfprintf_r+0x2168>
   13ce8:	0000e317          	auipc	t1,0xe
   13cec:	1a430313          	addi	t1,t1,420 # 21e8c <__clzsi2+0x174>
   13cf0:	0000e717          	auipc	a4,0xe
   13cf4:	3f070713          	addi	a4,a4,1008 # 220e0 <blanks.1+0x20>
   13cf8:	00072783          	lw	a5,0(a4)
   13cfc:	fff90593          	addi	a1,s2,-1
   13d00:	06912223          	sw	s1,100(sp)
   13d04:	04f12823          	sw	a5,80(sp)
   13d08:	00472783          	lw	a5,4(a4)
   13d0c:	07412623          	sw	s4,108(sp)
   13d10:	07212823          	sw	s2,112(sp)
   13d14:	04f12a23          	sw	a5,84(sp)
   13d18:	00872783          	lw	a5,8(a4)
   13d1c:	000c0a13          	mv	s4,s8
   13d20:	07812e23          	sw	s8,124(sp)
   13d24:	04f12c23          	sw	a5,88(sp)
   13d28:	00c72783          	lw	a5,12(a4)
   13d2c:	000c8a93          	mv	s5,s9
   13d30:	00058493          	mv	s1,a1
   13d34:	04f12e23          	sw	a5,92(sp)
   13d38:	07112423          	sw	a7,104(sp)
   13d3c:	06812a23          	sw	s0,116(sp)
   13d40:	04612223          	sw	t1,68(sp)
   13d44:	07312c23          	sw	s3,120(sp)
   13d48:	00080c13          	mv	s8,a6
   13d4c:	000e0c93          	mv	s9,t3
   13d50:	000e8913          	mv	s2,t4
   13d54:	0540006f          	j	13da8 <_vfprintf_r+0x2220>
   13d58:	000d0593          	mv	a1,s10
   13d5c:	000b8513          	mv	a0,s7
   13d60:	00512e23          	sw	t0,28(sp)
   13d64:	01f12c23          	sw	t6,24(sp)
   13d68:	00c12a23          	sw	a2,20(sp)
   13d6c:	0ac12a23          	sw	a2,180(sp)
   13d70:	0bf12c23          	sw	t6,184(sp)
   13d74:	0a512e23          	sw	t0,188(sp)
   13d78:	0b312823          	sw	s3,176(sp)
   13d7c:	0a012023          	sw	zero,160(sp)
   13d80:	0a012223          	sw	zero,164(sp)
   13d84:	0a012423          	sw	zero,168(sp)
   13d88:	0a012623          	sw	zero,172(sp)
   13d8c:	51d0a0ef          	jal	ra,1eaa8 <__eqtf2>
   13d90:	fff48693          	addi	a3,s1,-1
   13d94:	000c0613          	mv	a2,s8
   13d98:	000c8f93          	mv	t6,s9
   13d9c:	00090293          	mv	t0,s2
   13da0:	4e050863          	beqz	a0,14290 <_vfprintf_r+0x2708>
   13da4:	00068493          	mv	s1,a3
   13da8:	05012783          	lw	a5,80(sp)
   13dac:	01012603          	lw	a2,16(sp)
   13db0:	000d0593          	mv	a1,s10
   13db4:	08f12823          	sw	a5,144(sp)
   13db8:	05412783          	lw	a5,84(sp)
   13dbc:	000b8513          	mv	a0,s7
   13dc0:	0b512023          	sw	s5,160(sp)
   13dc4:	08f12a23          	sw	a5,148(sp)
   13dc8:	05812783          	lw	a5,88(sp)
   13dcc:	0b812223          	sw	s8,164(sp)
   13dd0:	0b912423          	sw	s9,168(sp)
   13dd4:	08f12c23          	sw	a5,152(sp)
   13dd8:	05c12783          	lw	a5,92(sp)
   13ddc:	0b212623          	sw	s2,172(sp)
   13de0:	08f12e23          	sw	a5,156(sp)
   13de4:	0600b0ef          	jal	ra,1ee44 <__multf3>
   13de8:	000b8513          	mv	a0,s7
   13dec:	2050d0ef          	jal	ra,217f0 <__fixtfsi>
   13df0:	00050593          	mv	a1,a0
   13df4:	00050413          	mv	s0,a0
   13df8:	000b8513          	mv	a0,s7
   13dfc:	0b012a83          	lw	s5,176(sp)
   13e00:	0b412983          	lw	s3,180(sp)
   13e04:	0b812903          	lw	s2,184(sp)
   13e08:	0bc12c83          	lw	s9,188(sp)
   13e0c:	2d90d0ef          	jal	ra,218e4 <__floatsitf>
   13e10:	0b012703          	lw	a4,176(sp)
   13e14:	01012583          	lw	a1,16(sp)
   13e18:	08010613          	addi	a2,sp,128
   13e1c:	08e12023          	sw	a4,128(sp)
   13e20:	0b412703          	lw	a4,180(sp)
   13e24:	000d0513          	mv	a0,s10
   13e28:	09512823          	sw	s5,144(sp)
   13e2c:	08e12223          	sw	a4,132(sp)
   13e30:	0b812703          	lw	a4,184(sp)
   13e34:	09312a23          	sw	s3,148(sp)
   13e38:	09212c23          	sw	s2,152(sp)
   13e3c:	08e12423          	sw	a4,136(sp)
   13e40:	0bc12703          	lw	a4,188(sp)
   13e44:	09912e23          	sw	s9,156(sp)
   13e48:	08e12623          	sw	a4,140(sp)
   13e4c:	4240c0ef          	jal	ra,20270 <__subtf3>
   13e50:	04412783          	lw	a5,68(sp)
   13e54:	0a012983          	lw	s3,160(sp)
   13e58:	0a412603          	lw	a2,164(sp)
   13e5c:	00878733          	add	a4,a5,s0
   13e60:	00074703          	lbu	a4,0(a4)
   13e64:	0a812f83          	lw	t6,168(sp)
   13e68:	0ac12283          	lw	t0,172(sp)
   13e6c:	05412623          	sw	s4,76(sp)
   13e70:	00ea0023          	sb	a4,0(s4)
   13e74:	fff00793          	li	a5,-1
   13e78:	001a0a13          	addi	s4,s4,1
   13e7c:	00098a93          	mv	s5,s3
   13e80:	00060c13          	mv	s8,a2
   13e84:	000f8c93          	mv	s9,t6
   13e88:	00028913          	mv	s2,t0
   13e8c:	ecf496e3          	bne	s1,a5,13d58 <_vfprintf_r+0x21d0>
   13e90:	000a0a93          	mv	s5,s4
   13e94:	00812823          	sw	s0,16(sp)
   13e98:	00098f13          	mv	t5,s3
   13e9c:	06412483          	lw	s1,100(sp)
   13ea0:	06812883          	lw	a7,104(sp)
   13ea4:	07012903          	lw	s2,112(sp)
   13ea8:	06c12a03          	lw	s4,108(sp)
   13eac:	07412403          	lw	s0,116(sp)
   13eb0:	04412303          	lw	t1,68(sp)
   13eb4:	07c12c03          	lw	s8,124(sp)
   13eb8:	07812983          	lw	s3,120(sp)
   13ebc:	fff00c93          	li	s9,-1
   13ec0:	0000e597          	auipc	a1,0xe
   13ec4:	23058593          	addi	a1,a1,560 # 220f0 <blanks.1+0x30>
   13ec8:	0005a803          	lw	a6,0(a1)
   13ecc:	0045ae03          	lw	t3,4(a1)
   13ed0:	0085ae83          	lw	t4,8(a1)
   13ed4:	00c5a783          	lw	a5,12(a1)
   13ed8:	000b8513          	mv	a0,s7
   13edc:	000d0593          	mv	a1,s10
   13ee0:	00612c23          	sw	t1,24(sp)
   13ee4:	01112a23          	sw	a7,20(sp)
   13ee8:	0be12823          	sw	t5,176(sp)
   13eec:	07e12423          	sw	t5,104(sp)
   13ef0:	0ac12a23          	sw	a2,180(sp)
   13ef4:	06c12223          	sw	a2,100(sp)
   13ef8:	0bf12c23          	sw	t6,184(sp)
   13efc:	05f12e23          	sw	t6,92(sp)
   13f00:	0a512e23          	sw	t0,188(sp)
   13f04:	04512c23          	sw	t0,88(sp)
   13f08:	0b012023          	sw	a6,160(sp)
   13f0c:	05012a23          	sw	a6,84(sp)
   13f10:	0bc12223          	sw	t3,164(sp)
   13f14:	05c12823          	sw	t3,80(sp)
   13f18:	0bd12423          	sw	t4,168(sp)
   13f1c:	05d12223          	sw	t4,68(sp)
   13f20:	0af12623          	sw	a5,172(sp)
   13f24:	00f12e23          	sw	a5,28(sp)
   13f28:	4550a0ef          	jal	ra,1eb7c <__getf2>
   13f2c:	01412883          	lw	a7,20(sp)
   13f30:	01812303          	lw	t1,24(sp)
   13f34:	30a04063          	bgtz	a0,14234 <_vfprintf_r+0x26ac>
   13f38:	000d0593          	mv	a1,s10
   13f3c:	000b8513          	mv	a0,s7
   13f40:	3690a0ef          	jal	ra,1eaa8 <__eqtf2>
   13f44:	01412883          	lw	a7,20(sp)
   13f48:	01812303          	lw	t1,24(sp)
   13f4c:	00051863          	bnez	a0,13f5c <_vfprintf_r+0x23d4>
   13f50:	01012783          	lw	a5,16(sp)
   13f54:	0017f613          	andi	a2,a5,1
   13f58:	2c061e63          	bnez	a2,14234 <_vfprintf_r+0x26ac>
   13f5c:	001c8b93          	addi	s7,s9,1
   13f60:	017a8bb3          	add	s7,s5,s7
   13f64:	03000613          	li	a2,48
   13f68:	300cca63          	bltz	s9,1427c <_vfprintf_r+0x26f4>
   13f6c:	001a8a93          	addi	s5,s5,1
   13f70:	feca8fa3          	sb	a2,-1(s5)
   13f74:	ff5b9ce3          	bne	s7,s5,13f6c <_vfprintf_r+0x23e4>
   13f78:	418b87b3          	sub	a5,s7,s8
   13f7c:	00f12a23          	sw	a5,20(sp)
   13f80:	fdf8fa93          	andi	s5,a7,-33
   13f84:	aa0ff06f          	j	13224 <_vfprintf_r+0x169c>
   13f88:	0c714683          	lbu	a3,199(sp)
   13f8c:	00000913          	li	s2,0
   13f90:	00068463          	beqz	a3,13f98 <_vfprintf_r+0x2410>
   13f94:	8b0fe06f          	j	12044 <_vfprintf_r+0x4bc>
   13f98:	e15fd06f          	j	11dac <_vfprintf_r+0x224>
   13f9c:	01412783          	lw	a5,20(sp)
   13fa0:	10f74e63          	blt	a4,a5,140bc <_vfprintf_r+0x2534>
   13fa4:	03012783          	lw	a5,48(sp)
   13fa8:	00070d13          	mv	s10,a4
   13fac:	0017f693          	andi	a3,a5,1
   13fb0:	00068663          	beqz	a3,13fbc <_vfprintf_r+0x2434>
   13fb4:	02412783          	lw	a5,36(sp)
   13fb8:	00f70d33          	add	s10,a4,a5
   13fbc:	03012783          	lw	a5,48(sp)
   13fc0:	4007f693          	andi	a3,a5,1024
   13fc4:	00068463          	beqz	a3,13fcc <_vfprintf_r+0x2444>
   13fc8:	40e04663          	bgtz	a4,143d4 <_vfprintf_r+0x284c>
   13fcc:	fffd4813          	not	a6,s10
   13fd0:	04812b83          	lw	s7,72(sp)
   13fd4:	41f85813          	srai	a6,a6,0x1f
   13fd8:	010d7cb3          	and	s9,s10,a6
   13fdc:	06700893          	li	a7,103
   13fe0:	00012e23          	sw	zero,28(sp)
   13fe4:	00012c23          	sw	zero,24(sp)
   13fe8:	b6dff06f          	j	13b54 <_vfprintf_r+0x1fcc>
   13fec:	0e410613          	addi	a2,sp,228
   13ff0:	00048593          	mv	a1,s1
   13ff4:	00098513          	mv	a0,s3
   13ff8:	704000ef          	jal	ra,146fc <__sprint_r>
   13ffc:	00050463          	beqz	a0,14004 <_vfprintf_r+0x247c>
   14000:	9e5fe06f          	j	129e4 <_vfprintf_r+0xe5c>
   14004:	000bc703          	lbu	a4,0(s7)
   14008:	0ec12603          	lw	a2,236(sp)
   1400c:	000d8693          	mv	a3,s11
   14010:	00700e13          	li	t3,7
   14014:	00ec0c33          	add	s8,s8,a4
   14018:	f6cff06f          	j	13784 <_vfprintf_r+0x1bfc>
   1401c:	00900713          	li	a4,9
   14020:	b3a76063          	bltu	a4,s10,13340 <_vfprintf_r+0x17b8>
   14024:	b64ff06f          	j	13388 <_vfprintf_r+0x1800>
   14028:	02d00793          	li	a5,45
   1402c:	0cf103a3          	sb	a5,199(sp)
   14030:	02d00693          	li	a3,45
   14034:	cc0ff06f          	j	134f4 <_vfprintf_r+0x196c>
   14038:	00012583          	lw	a1,0(sp)
   1403c:	0e410613          	addi	a2,sp,228
   14040:	00098513          	mv	a0,s3
   14044:	6b8000ef          	jal	ra,146fc <__sprint_r>
   14048:	00050463          	beqz	a0,14050 <_vfprintf_r+0x24c8>
   1404c:	999fe06f          	j	129e4 <_vfprintf_r+0xe5c>
   14050:	0cc12683          	lw	a3,204(sp)
   14054:	0ec12603          	lw	a2,236(sp)
   14058:	000d8413          	mv	s0,s11
   1405c:	c55fe06f          	j	12cb0 <_vfprintf_r+0x1128>
   14060:	0c714683          	lbu	a3,199(sp)
   14064:	01512623          	sw	s5,12(sp)
   14068:	00012e23          	sw	zero,28(sp)
   1406c:	00012c23          	sw	zero,24(sp)
   14070:	00012823          	sw	zero,16(sp)
   14074:	00090c93          	mv	s9,s2
   14078:	00090d13          	mv	s10,s2
   1407c:	00000913          	li	s2,0
   14080:	00068463          	beqz	a3,14088 <_vfprintf_r+0x2500>
   14084:	fc1fd06f          	j	12044 <_vfprintf_r+0x4bc>
   14088:	d25fd06f          	j	11dac <_vfprintf_r+0x224>
   1408c:	00012583          	lw	a1,0(sp)
   14090:	0e410613          	addi	a2,sp,228
   14094:	00098513          	mv	a0,s3
   14098:	664000ef          	jal	ra,146fc <__sprint_r>
   1409c:	00050463          	beqz	a0,140a4 <_vfprintf_r+0x251c>
   140a0:	945fe06f          	j	129e4 <_vfprintf_r+0xe5c>
   140a4:	0cc12683          	lw	a3,204(sp)
   140a8:	01412783          	lw	a5,20(sp)
   140ac:	0ec12603          	lw	a2,236(sp)
   140b0:	000d8413          	mv	s0,s11
   140b4:	40d786b3          	sub	a3,a5,a3
   140b8:	c41fe06f          	j	12cf8 <_vfprintf_r+0x1170>
   140bc:	01412783          	lw	a5,20(sp)
   140c0:	02412703          	lw	a4,36(sp)
   140c4:	06700893          	li	a7,103
   140c8:	00e78d33          	add	s10,a5,a4
   140cc:	01012783          	lw	a5,16(sp)
   140d0:	38f05863          	blez	a5,14460 <_vfprintf_r+0x28d8>
   140d4:	03012783          	lw	a5,48(sp)
   140d8:	4007f713          	andi	a4,a5,1024
   140dc:	2e071e63          	bnez	a4,143d8 <_vfprintf_r+0x2850>
   140e0:	fffd4813          	not	a6,s10
   140e4:	41f85813          	srai	a6,a6,0x1f
   140e8:	04812b83          	lw	s7,72(sp)
   140ec:	010d7cb3          	and	s9,s10,a6
   140f0:	ef1ff06f          	j	13fe0 <_vfprintf_r+0x2458>
   140f4:	ff000513          	li	a0,-16
   140f8:	40b00933          	neg	s2,a1
   140fc:	0000ee17          	auipc	t3,0xe
   14100:	fb4e0e13          	addi	t3,t3,-76 # 220b0 <zeroes.0>
   14104:	0ea5d463          	bge	a1,a0,141ec <_vfprintf_r+0x2664>
   14108:	00912823          	sw	s1,16(sp)
   1410c:	01000d13          	li	s10,16
   14110:	00700a93          	li	s5,7
   14114:	000e0493          	mv	s1,t3
   14118:	00c0006f          	j	14124 <_vfprintf_r+0x259c>
   1411c:	ff090913          	addi	s2,s2,-16
   14120:	0d2d5263          	bge	s10,s2,141e4 <_vfprintf_r+0x265c>
   14124:	01060613          	addi	a2,a2,16
   14128:	00168693          	addi	a3,a3,1
   1412c:	00942023          	sw	s1,0(s0)
   14130:	01a42223          	sw	s10,4(s0)
   14134:	0ec12623          	sw	a2,236(sp)
   14138:	0ed12423          	sw	a3,232(sp)
   1413c:	00840413          	addi	s0,s0,8
   14140:	fcdadee3          	bge	s5,a3,1411c <_vfprintf_r+0x2594>
   14144:	00012583          	lw	a1,0(sp)
   14148:	0e410613          	addi	a2,sp,228
   1414c:	00098513          	mv	a0,s3
   14150:	5ac000ef          	jal	ra,146fc <__sprint_r>
   14154:	00050463          	beqz	a0,1415c <_vfprintf_r+0x25d4>
   14158:	88dfe06f          	j	129e4 <_vfprintf_r+0xe5c>
   1415c:	0ec12603          	lw	a2,236(sp)
   14160:	0e812683          	lw	a3,232(sp)
   14164:	000d8413          	mv	s0,s11
   14168:	fb5ff06f          	j	1411c <_vfprintf_r+0x2594>
   1416c:	000b8613          	mv	a2,s7
   14170:	b64fe06f          	j	124d4 <_vfprintf_r+0x94c>
   14174:	fff00793          	li	a5,-1
   14178:	00f12223          	sw	a5,4(sp)
   1417c:	d71fd06f          	j	11eec <_vfprintf_r+0x364>
   14180:	03012783          	lw	a5,48(sp)
   14184:	0017f713          	andi	a4,a5,1
   14188:	01012783          	lw	a5,16(sp)
   1418c:	01276733          	or	a4,a4,s2
   14190:	30f05663          	blez	a5,1449c <_vfprintf_r+0x2914>
   14194:	2e071463          	bnez	a4,1447c <_vfprintf_r+0x28f4>
   14198:	01012d03          	lw	s10,16(sp)
   1419c:	06600893          	li	a7,102
   141a0:	f35ff06f          	j	140d4 <_vfprintf_r+0x254c>
   141a4:	00dc0cb3          	add	s9,s8,a3
   141a8:	04700a93          	li	s5,71
   141ac:	0a010d13          	addi	s10,sp,160
   141b0:	810ff06f          	j	131c0 <_vfprintf_r+0x1638>
   141b4:	0d610713          	addi	a4,sp,214
   141b8:	00061863          	bnez	a2,141c8 <_vfprintf_r+0x2640>
   141bc:	03000713          	li	a4,48
   141c0:	0ce10b23          	sb	a4,214(sp)
   141c4:	0d710713          	addi	a4,sp,215
   141c8:	1b010793          	addi	a5,sp,432
   141cc:	40f706b3          	sub	a3,a4,a5
   141d0:	030d0d13          	addi	s10,s10,48
   141d4:	0dd68793          	addi	a5,a3,221
   141d8:	01a70023          	sb	s10,0(a4)
   141dc:	02f12c23          	sw	a5,56(sp)
   141e0:	935ff06f          	j	13b14 <_vfprintf_r+0x1f8c>
   141e4:	00048e13          	mv	t3,s1
   141e8:	01012483          	lw	s1,16(sp)
   141ec:	01260633          	add	a2,a2,s2
   141f0:	00168693          	addi	a3,a3,1
   141f4:	01c42023          	sw	t3,0(s0)
   141f8:	01242223          	sw	s2,4(s0)
   141fc:	0ec12623          	sw	a2,236(sp)
   14200:	0ed12423          	sw	a3,232(sp)
   14204:	00700593          	li	a1,7
   14208:	a2d5d663          	bge	a1,a3,13434 <_vfprintf_r+0x18ac>
   1420c:	00012583          	lw	a1,0(sp)
   14210:	0e410613          	addi	a2,sp,228
   14214:	00098513          	mv	a0,s3
   14218:	4e4000ef          	jal	ra,146fc <__sprint_r>
   1421c:	00050463          	beqz	a0,14224 <_vfprintf_r+0x269c>
   14220:	fc4fe06f          	j	129e4 <_vfprintf_r+0xe5c>
   14224:	0ec12603          	lw	a2,236(sp)
   14228:	0e812683          	lw	a3,232(sp)
   1422c:	000d8413          	mv	s0,s11
   14230:	b48ff06f          	j	13578 <_vfprintf_r+0x19f0>
   14234:	04c12783          	lw	a5,76(sp)
   14238:	00f34583          	lbu	a1,15(t1)
   1423c:	000a8693          	mv	a3,s5
   14240:	0cf12e23          	sw	a5,220(sp)
   14244:	fffac603          	lbu	a2,-1(s5)
   14248:	02b61063          	bne	a2,a1,14268 <_vfprintf_r+0x26e0>
   1424c:	03000513          	li	a0,48
   14250:	fea68fa3          	sb	a0,-1(a3)
   14254:	0dc12683          	lw	a3,220(sp)
   14258:	fff68793          	addi	a5,a3,-1
   1425c:	0cf12e23          	sw	a5,220(sp)
   14260:	fff6c603          	lbu	a2,-1(a3)
   14264:	fec586e3          	beq	a1,a2,14250 <_vfprintf_r+0x26c8>
   14268:	00160593          	addi	a1,a2,1
   1426c:	03900513          	li	a0,57
   14270:	0ff5f593          	zext.b	a1,a1
   14274:	00a60863          	beq	a2,a0,14284 <_vfprintf_r+0x26fc>
   14278:	feb68fa3          	sb	a1,-1(a3)
   1427c:	000a8b93          	mv	s7,s5
   14280:	cf9ff06f          	j	13f78 <_vfprintf_r+0x23f0>
   14284:	00a34583          	lbu	a1,10(t1)
   14288:	feb68fa3          	sb	a1,-1(a3)
   1428c:	ff1ff06f          	j	1427c <_vfprintf_r+0x26f4>
   14290:	00048593          	mv	a1,s1
   14294:	000a0a93          	mv	s5,s4
   14298:	00812823          	sw	s0,16(sp)
   1429c:	00098f13          	mv	t5,s3
   142a0:	06412483          	lw	s1,100(sp)
   142a4:	06812883          	lw	a7,104(sp)
   142a8:	07012903          	lw	s2,112(sp)
   142ac:	06c12a03          	lw	s4,108(sp)
   142b0:	07412403          	lw	s0,116(sp)
   142b4:	04412303          	lw	t1,68(sp)
   142b8:	07c12c03          	lw	s8,124(sp)
   142bc:	07812983          	lw	s3,120(sp)
   142c0:	00058c93          	mv	s9,a1
   142c4:	bfdff06f          	j	13ec0 <_vfprintf_r+0x2338>
   142c8:	03012783          	lw	a5,48(sp)
   142cc:	0017f713          	andi	a4,a5,1
   142d0:	860700e3          	beqz	a4,13b30 <_vfprintf_r+0x1fa8>
   142d4:	855ff06f          	j	13b28 <_vfprintf_r+0x1fa0>
   142d8:	00090463          	beqz	s2,142e0 <_vfprintf_r+0x2758>
   142dc:	ec1fd06f          	j	1219c <_vfprintf_r+0x614>
   142e0:	00100913          	li	s2,1
   142e4:	eb9fd06f          	j	1219c <_vfprintf_r+0x614>
   142e8:	00600913          	li	s2,6
   142ec:	eb1fd06f          	j	1219c <_vfprintf_r+0x614>
   142f0:	0b010b93          	addi	s7,sp,176
   142f4:	0a010d13          	addi	s10,sp,160
   142f8:	0cc10613          	addi	a2,sp,204
   142fc:	000d0593          	mv	a1,s10
   14300:	000b8513          	mv	a0,s7
   14304:	05112223          	sw	a7,68(sp)
   14308:	0bf12023          	sw	t6,160(sp)
   1430c:	0be12223          	sw	t5,164(sp)
   14310:	0bd12423          	sw	t4,168(sp)
   14314:	0bc12623          	sw	t3,172(sp)
   14318:	2b9020ef          	jal	ra,16dd0 <frexpl>
   1431c:	0b012e83          	lw	t4,176(sp)
   14320:	0000e717          	auipc	a4,0xe
   14324:	db070713          	addi	a4,a4,-592 # 220d0 <blanks.1+0x10>
   14328:	00072e03          	lw	t3,0(a4)
   1432c:	0bd12023          	sw	t4,160(sp)
   14330:	0b412e83          	lw	t4,180(sp)
   14334:	00472803          	lw	a6,4(a4)
   14338:	00872683          	lw	a3,8(a4)
   1433c:	0bd12223          	sw	t4,164(sp)
   14340:	0b812e83          	lw	t4,184(sp)
   14344:	00c72703          	lw	a4,12(a4)
   14348:	09010793          	addi	a5,sp,144
   1434c:	0bd12423          	sw	t4,168(sp)
   14350:	0bc12e83          	lw	t4,188(sp)
   14354:	00078613          	mv	a2,a5
   14358:	000d0593          	mv	a1,s10
   1435c:	000b8513          	mv	a0,s7
   14360:	00f12823          	sw	a5,16(sp)
   14364:	0bd12623          	sw	t4,172(sp)
   14368:	09c12823          	sw	t3,144(sp)
   1436c:	09012a23          	sw	a6,148(sp)
   14370:	08d12c23          	sw	a3,152(sp)
   14374:	08e12e23          	sw	a4,156(sp)
   14378:	2cd0a0ef          	jal	ra,1ee44 <__multf3>
   1437c:	0b412803          	lw	a6,180(sp)
   14380:	0b812e03          	lw	t3,184(sp)
   14384:	0bc12e83          	lw	t4,188(sp)
   14388:	000d0593          	mv	a1,s10
   1438c:	000b8513          	mv	a0,s7
   14390:	01012e23          	sw	a6,28(sp)
   14394:	01c12c23          	sw	t3,24(sp)
   14398:	01d12a23          	sw	t4,20(sp)
   1439c:	0a012023          	sw	zero,160(sp)
   143a0:	0a012223          	sw	zero,164(sp)
   143a4:	0a012423          	sw	zero,168(sp)
   143a8:	0a012623          	sw	zero,172(sp)
   143ac:	6fc0a0ef          	jal	ra,1eaa8 <__eqtf2>
   143b0:	0b012c83          	lw	s9,176(sp)
   143b4:	01412e83          	lw	t4,20(sp)
   143b8:	01812e03          	lw	t3,24(sp)
   143bc:	01c12803          	lw	a6,28(sp)
   143c0:	04412883          	lw	a7,68(sp)
   143c4:	0000e317          	auipc	t1,0xe
   143c8:	ab430313          	addi	t1,t1,-1356 # 21e78 <__clzsi2+0x160>
   143cc:	920512e3          	bnez	a0,13cf0 <_vfprintf_r+0x2168>
   143d0:	901ff06f          	j	13cd0 <_vfprintf_r+0x2148>
   143d4:	06700893          	li	a7,103
   143d8:	03412603          	lw	a2,52(sp)
   143dc:	0ff00693          	li	a3,255
   143e0:	00064703          	lbu	a4,0(a2)
   143e4:	12d70c63          	beq	a4,a3,1451c <_vfprintf_r+0x2994>
   143e8:	01012783          	lw	a5,16(sp)
   143ec:	00000513          	li	a0,0
   143f0:	00000593          	li	a1,0
   143f4:	00f75e63          	bge	a4,a5,14410 <_vfprintf_r+0x2888>
   143f8:	40e787b3          	sub	a5,a5,a4
   143fc:	00164703          	lbu	a4,1(a2)
   14400:	04070a63          	beqz	a4,14454 <_vfprintf_r+0x28cc>
   14404:	00158593          	addi	a1,a1,1
   14408:	00160613          	addi	a2,a2,1
   1440c:	fed714e3          	bne	a4,a3,143f4 <_vfprintf_r+0x286c>
   14410:	02c12a23          	sw	a2,52(sp)
   14414:	00f12823          	sw	a5,16(sp)
   14418:	00b12c23          	sw	a1,24(sp)
   1441c:	00a12e23          	sw	a0,28(sp)
   14420:	01c12783          	lw	a5,28(sp)
   14424:	01812703          	lw	a4,24(sp)
   14428:	04012583          	lw	a1,64(sp)
   1442c:	03112823          	sw	a7,48(sp)
   14430:	00e78533          	add	a0,a5,a4
   14434:	00d0d0ef          	jal	ra,21c40 <__mulsi3>
   14438:	01a50d33          	add	s10,a0,s10
   1443c:	fffd4813          	not	a6,s10
   14440:	41f85813          	srai	a6,a6,0x1f
   14444:	04812b83          	lw	s7,72(sp)
   14448:	03012883          	lw	a7,48(sp)
   1444c:	010d7cb3          	and	s9,s10,a6
   14450:	f04ff06f          	j	13b54 <_vfprintf_r+0x1fcc>
   14454:	00064703          	lbu	a4,0(a2)
   14458:	00150513          	addi	a0,a0,1
   1445c:	fb1ff06f          	j	1440c <_vfprintf_r+0x2884>
   14460:	40fd0f33          	sub	t5,s10,a5
   14464:	001f0d13          	addi	s10,t5,1
   14468:	fffd4813          	not	a6,s10
   1446c:	41f85813          	srai	a6,a6,0x1f
   14470:	04812b83          	lw	s7,72(sp)
   14474:	010d7cb3          	and	s9,s10,a6
   14478:	b69ff06f          	j	13fe0 <_vfprintf_r+0x2458>
   1447c:	02412703          	lw	a4,36(sp)
   14480:	06600893          	li	a7,102
   14484:	00e78f33          	add	t5,a5,a4
   14488:	012f0d33          	add	s10,t5,s2
   1448c:	c49ff06f          	j	140d4 <_vfprintf_r+0x254c>
   14490:	07000693          	li	a3,112
   14494:	00100613          	li	a2,1
   14498:	da8ff06f          	j	13a40 <_vfprintf_r+0x1eb8>
   1449c:	00071c63          	bnez	a4,144b4 <_vfprintf_r+0x292c>
   144a0:	04812b83          	lw	s7,72(sp)
   144a4:	00100c93          	li	s9,1
   144a8:	06600893          	li	a7,102
   144ac:	00100d13          	li	s10,1
   144b0:	b31ff06f          	j	13fe0 <_vfprintf_r+0x2458>
   144b4:	02412783          	lw	a5,36(sp)
   144b8:	04812b83          	lw	s7,72(sp)
   144bc:	06600893          	li	a7,102
   144c0:	00178f13          	addi	t5,a5,1
   144c4:	012f0d33          	add	s10,t5,s2
   144c8:	fffd4813          	not	a6,s10
   144cc:	41f85813          	srai	a6,a6,0x1f
   144d0:	010d7cb3          	and	s9,s10,a6
   144d4:	b0dff06f          	j	13fe0 <_vfprintf_r+0x2458>
   144d8:	00c12783          	lw	a5,12(sp)
   144dc:	0007a903          	lw	s2,0(a5)
   144e0:	00478793          	addi	a5,a5,4
   144e4:	00095463          	bgez	s2,144ec <_vfprintf_r+0x2964>
   144e8:	fff00913          	li	s2,-1
   144ec:	0014c883          	lbu	a7,1(s1)
   144f0:	00f12623          	sw	a5,12(sp)
   144f4:	00070493          	mv	s1,a4
   144f8:	82dfd06f          	j	11d24 <_vfprintf_r+0x19c>
   144fc:	00200793          	li	a5,2
   14500:	02f12c23          	sw	a5,56(sp)
   14504:	e10ff06f          	j	13b14 <_vfprintf_r+0x1f8c>
   14508:	00012703          	lw	a4,0(sp)
   1450c:	00c75783          	lhu	a5,12(a4)
   14510:	0407e793          	ori	a5,a5,64
   14514:	00f71623          	sh	a5,12(a4)
   14518:	9c1fd06f          	j	11ed8 <_vfprintf_r+0x350>
   1451c:	00012e23          	sw	zero,28(sp)
   14520:	00012c23          	sw	zero,24(sp)
   14524:	efdff06f          	j	14420 <_vfprintf_r+0x2898>

00014528 <vfprintf>:
   14528:	00060693          	mv	a3,a2
   1452c:	00058613          	mv	a2,a1
   14530:	00050593          	mv	a1,a0
   14534:	f0c1a503          	lw	a0,-244(gp) # 237cc <_impure_ptr>
   14538:	e50fd06f          	j	11b88 <_vfprintf_r>

0001453c <__sbprintf>:
   1453c:	00c59783          	lh	a5,12(a1)
   14540:	00e5d703          	lhu	a4,14(a1)
   14544:	0645a303          	lw	t1,100(a1)
   14548:	ffd7f793          	andi	a5,a5,-3
   1454c:	01079793          	slli	a5,a5,0x10
   14550:	01c5a883          	lw	a7,28(a1)
   14554:	0245a803          	lw	a6,36(a1)
   14558:	01071713          	slli	a4,a4,0x10
   1455c:	0107d793          	srli	a5,a5,0x10
   14560:	b8010113          	addi	sp,sp,-1152
   14564:	00e7e7b3          	or	a5,a5,a4
   14568:	46812c23          	sw	s0,1144(sp)
   1456c:	40000713          	li	a4,1024
   14570:	00f12a23          	sw	a5,20(sp)
   14574:	00058413          	mv	s0,a1
   14578:	07010793          	addi	a5,sp,112
   1457c:	00810593          	addi	a1,sp,8
   14580:	46912a23          	sw	s1,1140(sp)
   14584:	47212823          	sw	s2,1136(sp)
   14588:	46112e23          	sw	ra,1148(sp)
   1458c:	00050913          	mv	s2,a0
   14590:	06612623          	sw	t1,108(sp)
   14594:	03112223          	sw	a7,36(sp)
   14598:	03012623          	sw	a6,44(sp)
   1459c:	00f12423          	sw	a5,8(sp)
   145a0:	00f12c23          	sw	a5,24(sp)
   145a4:	00e12823          	sw	a4,16(sp)
   145a8:	00e12e23          	sw	a4,28(sp)
   145ac:	02012023          	sw	zero,32(sp)
   145b0:	dd8fd0ef          	jal	ra,11b88 <_vfprintf_r>
   145b4:	00050493          	mv	s1,a0
   145b8:	02055c63          	bgez	a0,145f0 <__sbprintf+0xb4>
   145bc:	01415783          	lhu	a5,20(sp)
   145c0:	0407f793          	andi	a5,a5,64
   145c4:	00078863          	beqz	a5,145d4 <__sbprintf+0x98>
   145c8:	00c45783          	lhu	a5,12(s0)
   145cc:	0407e793          	ori	a5,a5,64
   145d0:	00f41623          	sh	a5,12(s0)
   145d4:	47c12083          	lw	ra,1148(sp)
   145d8:	47812403          	lw	s0,1144(sp)
   145dc:	47012903          	lw	s2,1136(sp)
   145e0:	00048513          	mv	a0,s1
   145e4:	47412483          	lw	s1,1140(sp)
   145e8:	48010113          	addi	sp,sp,1152
   145ec:	00008067          	ret
   145f0:	00810593          	addi	a1,sp,8
   145f4:	00090513          	mv	a0,s2
   145f8:	129010ef          	jal	ra,15f20 <_fflush_r>
   145fc:	fc0500e3          	beqz	a0,145bc <__sbprintf+0x80>
   14600:	fff00493          	li	s1,-1
   14604:	fb9ff06f          	j	145bc <__sbprintf+0x80>

00014608 <__sprint_r.part.0>:
   14608:	0645a703          	lw	a4,100(a1)
   1460c:	fd010113          	addi	sp,sp,-48
   14610:	000027b7          	lui	a5,0x2
   14614:	01612823          	sw	s6,16(sp)
   14618:	02112623          	sw	ra,44(sp)
   1461c:	02812423          	sw	s0,40(sp)
   14620:	02912223          	sw	s1,36(sp)
   14624:	03212023          	sw	s2,32(sp)
   14628:	01312e23          	sw	s3,28(sp)
   1462c:	01412c23          	sw	s4,24(sp)
   14630:	01512a23          	sw	s5,20(sp)
   14634:	01712623          	sw	s7,12(sp)
   14638:	01812423          	sw	s8,8(sp)
   1463c:	00e7f7b3          	and	a5,a5,a4
   14640:	00060b13          	mv	s6,a2
   14644:	0a078863          	beqz	a5,146f4 <__sprint_r.part.0+0xec>
   14648:	00862783          	lw	a5,8(a2)
   1464c:	00062b83          	lw	s7,0(a2)
   14650:	00058913          	mv	s2,a1
   14654:	00050993          	mv	s3,a0
   14658:	fff00a93          	li	s5,-1
   1465c:	08078863          	beqz	a5,146ec <__sprint_r.part.0+0xe4>
   14660:	004bac03          	lw	s8,4(s7)
   14664:	000ba403          	lw	s0,0(s7)
   14668:	002c5a13          	srli	s4,s8,0x2
   1466c:	060a0663          	beqz	s4,146d8 <__sprint_r.part.0+0xd0>
   14670:	00000493          	li	s1,0
   14674:	00c0006f          	j	14680 <__sprint_r.part.0+0x78>
   14678:	00440413          	addi	s0,s0,4
   1467c:	049a0c63          	beq	s4,s1,146d4 <__sprint_r.part.0+0xcc>
   14680:	00042583          	lw	a1,0(s0)
   14684:	00090613          	mv	a2,s2
   14688:	00098513          	mv	a0,s3
   1468c:	044020ef          	jal	ra,166d0 <_fputwc_r>
   14690:	00148493          	addi	s1,s1,1
   14694:	ff5512e3          	bne	a0,s5,14678 <__sprint_r.part.0+0x70>
   14698:	fff00513          	li	a0,-1
   1469c:	02c12083          	lw	ra,44(sp)
   146a0:	02812403          	lw	s0,40(sp)
   146a4:	000b2423          	sw	zero,8(s6)
   146a8:	000b2223          	sw	zero,4(s6)
   146ac:	02412483          	lw	s1,36(sp)
   146b0:	02012903          	lw	s2,32(sp)
   146b4:	01c12983          	lw	s3,28(sp)
   146b8:	01812a03          	lw	s4,24(sp)
   146bc:	01412a83          	lw	s5,20(sp)
   146c0:	01012b03          	lw	s6,16(sp)
   146c4:	00c12b83          	lw	s7,12(sp)
   146c8:	00812c03          	lw	s8,8(sp)
   146cc:	03010113          	addi	sp,sp,48
   146d0:	00008067          	ret
   146d4:	008b2783          	lw	a5,8(s6)
   146d8:	ffcc7c13          	andi	s8,s8,-4
   146dc:	418787b3          	sub	a5,a5,s8
   146e0:	00fb2423          	sw	a5,8(s6)
   146e4:	008b8b93          	addi	s7,s7,8
   146e8:	f6079ce3          	bnez	a5,14660 <__sprint_r.part.0+0x58>
   146ec:	00000513          	li	a0,0
   146f0:	fadff06f          	j	1469c <__sprint_r.part.0+0x94>
   146f4:	111010ef          	jal	ra,16004 <__sfvwrite_r>
   146f8:	fa5ff06f          	j	1469c <__sprint_r.part.0+0x94>

000146fc <__sprint_r>:
   146fc:	00862703          	lw	a4,8(a2)
   14700:	00070463          	beqz	a4,14708 <__sprint_r+0xc>
   14704:	f05ff06f          	j	14608 <__sprint_r.part.0>
   14708:	00062223          	sw	zero,4(a2)
   1470c:	00000513          	li	a0,0
   14710:	00008067          	ret

00014714 <_vfiprintf_r>:
   14714:	ed010113          	addi	sp,sp,-304
   14718:	13212023          	sw	s2,288(sp)
   1471c:	11312e23          	sw	s3,284(sp)
   14720:	11412c23          	sw	s4,280(sp)
   14724:	11812423          	sw	s8,264(sp)
   14728:	12112623          	sw	ra,300(sp)
   1472c:	12812423          	sw	s0,296(sp)
   14730:	12912223          	sw	s1,292(sp)
   14734:	11512a23          	sw	s5,276(sp)
   14738:	11612823          	sw	s6,272(sp)
   1473c:	11712623          	sw	s7,268(sp)
   14740:	11912223          	sw	s9,260(sp)
   14744:	11a12023          	sw	s10,256(sp)
   14748:	0fb12e23          	sw	s11,252(sp)
   1474c:	00050a13          	mv	s4,a0
   14750:	00058913          	mv	s2,a1
   14754:	00060c13          	mv	s8,a2
   14758:	00068993          	mv	s3,a3
   1475c:	00050863          	beqz	a0,1476c <_vfiprintf_r+0x58>
   14760:	03452783          	lw	a5,52(a0)
   14764:	00079463          	bnez	a5,1476c <_vfiprintf_r+0x58>
   14768:	2280106f          	j	15990 <_vfiprintf_r+0x127c>
   1476c:	00c91783          	lh	a5,12(s2)
   14770:	01279713          	slli	a4,a5,0x12
   14774:	02074663          	bltz	a4,147a0 <_vfiprintf_r+0x8c>
   14778:	06492703          	lw	a4,100(s2)
   1477c:	000026b7          	lui	a3,0x2
   14780:	00d7e7b3          	or	a5,a5,a3
   14784:	ffffe6b7          	lui	a3,0xffffe
   14788:	01079793          	slli	a5,a5,0x10
   1478c:	fff68693          	addi	a3,a3,-1 # ffffdfff <__BSS_END__+0xfffda4fb>
   14790:	4107d793          	srai	a5,a5,0x10
   14794:	00d77733          	and	a4,a4,a3
   14798:	00f91623          	sh	a5,12(s2)
   1479c:	06e92223          	sw	a4,100(s2)
   147a0:	0087f713          	andi	a4,a5,8
   147a4:	12070463          	beqz	a4,148cc <_vfiprintf_r+0x1b8>
   147a8:	01092703          	lw	a4,16(s2)
   147ac:	12070063          	beqz	a4,148cc <_vfiprintf_r+0x1b8>
   147b0:	01a7f793          	andi	a5,a5,26
   147b4:	00a00713          	li	a4,10
   147b8:	12e78c63          	beq	a5,a4,148f0 <_vfiprintf_r+0x1dc>
   147bc:	04c10493          	addi	s1,sp,76
   147c0:	00000b93          	li	s7,0
   147c4:	000b8d13          	mv	s10,s7
   147c8:	04912023          	sw	s1,64(sp)
   147cc:	04012423          	sw	zero,72(sp)
   147d0:	04012223          	sw	zero,68(sp)
   147d4:	00048713          	mv	a4,s1
   147d8:	00012223          	sw	zero,4(sp)
   147dc:	00012e23          	sw	zero,28(sp)
   147e0:	02012023          	sw	zero,32(sp)
   147e4:	02012223          	sw	zero,36(sp)
   147e8:	0000eb17          	auipc	s6,0xe
   147ec:	918b0b13          	addi	s6,s6,-1768 # 22100 <blanks.1+0x40>
   147f0:	01000413          	li	s0,16
   147f4:	0000ea97          	auipc	s5,0xe
   147f8:	a78a8a93          	addi	s5,s5,-1416 # 2226c <zeroes.0>
   147fc:	000c0b93          	mv	s7,s8
   14800:	00098313          	mv	t1,s3
   14804:	000bc783          	lbu	a5,0(s7)
   14808:	36078a63          	beqz	a5,14b7c <_vfiprintf_r+0x468>
   1480c:	000b8c93          	mv	s9,s7
   14810:	02500693          	li	a3,37
   14814:	3ad78463          	beq	a5,a3,14bbc <_vfiprintf_r+0x4a8>
   14818:	001cc783          	lbu	a5,1(s9)
   1481c:	001c8c93          	addi	s9,s9,1
   14820:	fe079ae3          	bnez	a5,14814 <_vfiprintf_r+0x100>
   14824:	417c89b3          	sub	s3,s9,s7
   14828:	357c8a63          	beq	s9,s7,14b7c <_vfiprintf_r+0x468>
   1482c:	04812683          	lw	a3,72(sp)
   14830:	04412783          	lw	a5,68(sp)
   14834:	01772023          	sw	s7,0(a4)
   14838:	00d986b3          	add	a3,s3,a3
   1483c:	00178793          	addi	a5,a5,1 # 2001 <exit-0xe093>
   14840:	01372223          	sw	s3,4(a4)
   14844:	04d12423          	sw	a3,72(sp)
   14848:	04f12223          	sw	a5,68(sp)
   1484c:	00700613          	li	a2,7
   14850:	00870713          	addi	a4,a4,8
   14854:	02f65463          	bge	a2,a5,1487c <_vfiprintf_r+0x168>
   14858:	580688e3          	beqz	a3,155e8 <_vfiprintf_r+0xed4>
   1485c:	04010613          	addi	a2,sp,64
   14860:	00090593          	mv	a1,s2
   14864:	000a0513          	mv	a0,s4
   14868:	00612423          	sw	t1,8(sp)
   1486c:	d9dff0ef          	jal	ra,14608 <__sprint_r.part.0>
   14870:	00812303          	lw	t1,8(sp)
   14874:	0e051663          	bnez	a0,14960 <_vfiprintf_r+0x24c>
   14878:	00048713          	mv	a4,s1
   1487c:	000cc783          	lbu	a5,0(s9)
   14880:	013d0d33          	add	s10,s10,s3
   14884:	2e078c63          	beqz	a5,14b7c <_vfiprintf_r+0x468>
   14888:	00000693          	li	a3,0
   1488c:	00000813          	li	a6,0
   14890:	001cc603          	lbu	a2,1(s9)
   14894:	001c8b93          	addi	s7,s9,1
   14898:	02010da3          	sb	zero,59(sp)
   1489c:	fff00c93          	li	s9,-1
   148a0:	05a00993          	li	s3,90
   148a4:	00080c13          	mv	s8,a6
   148a8:	00068d93          	mv	s11,a3
   148ac:	001b8b93          	addi	s7,s7,1
   148b0:	fe060793          	addi	a5,a2,-32
   148b4:	12f9ea63          	bltu	s3,a5,149e8 <_vfiprintf_r+0x2d4>
   148b8:	00279793          	slli	a5,a5,0x2
   148bc:	016787b3          	add	a5,a5,s6
   148c0:	0007a783          	lw	a5,0(a5)
   148c4:	016787b3          	add	a5,a5,s6
   148c8:	00078067          	jr	a5
   148cc:	00090593          	mv	a1,s2
   148d0:	000a0513          	mv	a0,s4
   148d4:	3d1010ef          	jal	ra,164a4 <__swsetup_r>
   148d8:	00050463          	beqz	a0,148e0 <_vfiprintf_r+0x1cc>
   148dc:	1d00106f          	j	15aac <_vfiprintf_r+0x1398>
   148e0:	00c91783          	lh	a5,12(s2)
   148e4:	00a00713          	li	a4,10
   148e8:	01a7f793          	andi	a5,a5,26
   148ec:	ece798e3          	bne	a5,a4,147bc <_vfiprintf_r+0xa8>
   148f0:	00e91783          	lh	a5,14(s2)
   148f4:	ec07c4e3          	bltz	a5,147bc <_vfiprintf_r+0xa8>
   148f8:	12812403          	lw	s0,296(sp)
   148fc:	12c12083          	lw	ra,300(sp)
   14900:	12412483          	lw	s1,292(sp)
   14904:	11412a83          	lw	s5,276(sp)
   14908:	11012b03          	lw	s6,272(sp)
   1490c:	10c12b83          	lw	s7,268(sp)
   14910:	10412c83          	lw	s9,260(sp)
   14914:	10012d03          	lw	s10,256(sp)
   14918:	0fc12d83          	lw	s11,252(sp)
   1491c:	00098693          	mv	a3,s3
   14920:	000c0613          	mv	a2,s8
   14924:	11c12983          	lw	s3,284(sp)
   14928:	10812c03          	lw	s8,264(sp)
   1492c:	00090593          	mv	a1,s2
   14930:	000a0513          	mv	a0,s4
   14934:	12012903          	lw	s2,288(sp)
   14938:	11812a03          	lw	s4,280(sp)
   1493c:	13010113          	addi	sp,sp,304
   14940:	1b40106f          	j	15af4 <__sbprintf>
   14944:	04010613          	addi	a2,sp,64
   14948:	00090593          	mv	a1,s2
   1494c:	000a0513          	mv	a0,s4
   14950:	00612423          	sw	t1,8(sp)
   14954:	cb5ff0ef          	jal	ra,14608 <__sprint_r.part.0>
   14958:	00812303          	lw	t1,8(sp)
   1495c:	20050863          	beqz	a0,14b6c <_vfiprintf_r+0x458>
   14960:	000d0b93          	mv	s7,s10
   14964:	00c95783          	lhu	a5,12(s2)
   14968:	0407f793          	andi	a5,a5,64
   1496c:	00078463          	beqz	a5,14974 <_vfiprintf_r+0x260>
   14970:	13c0106f          	j	15aac <_vfiprintf_r+0x1398>
   14974:	12c12083          	lw	ra,300(sp)
   14978:	12812403          	lw	s0,296(sp)
   1497c:	12412483          	lw	s1,292(sp)
   14980:	12012903          	lw	s2,288(sp)
   14984:	11c12983          	lw	s3,284(sp)
   14988:	11812a03          	lw	s4,280(sp)
   1498c:	11412a83          	lw	s5,276(sp)
   14990:	11012b03          	lw	s6,272(sp)
   14994:	10812c03          	lw	s8,264(sp)
   14998:	10412c83          	lw	s9,260(sp)
   1499c:	10012d03          	lw	s10,256(sp)
   149a0:	0fc12d83          	lw	s11,252(sp)
   149a4:	000b8513          	mv	a0,s7
   149a8:	10c12b83          	lw	s7,268(sp)
   149ac:	13010113          	addi	sp,sp,304
   149b0:	00008067          	ret
   149b4:	00000d93          	li	s11,0
   149b8:	fd060793          	addi	a5,a2,-48
   149bc:	00900513          	li	a0,9
   149c0:	000bc603          	lbu	a2,0(s7)
   149c4:	002d9593          	slli	a1,s11,0x2
   149c8:	01b586b3          	add	a3,a1,s11
   149cc:	00169693          	slli	a3,a3,0x1
   149d0:	00d78db3          	add	s11,a5,a3
   149d4:	fd060793          	addi	a5,a2,-48
   149d8:	001b8b93          	addi	s7,s7,1
   149dc:	fef572e3          	bgeu	a0,a5,149c0 <_vfiprintf_r+0x2ac>
   149e0:	fe060793          	addi	a5,a2,-32
   149e4:	ecf9fae3          	bgeu	s3,a5,148b8 <_vfiprintf_r+0x1a4>
   149e8:	000c0813          	mv	a6,s8
   149ec:	000d8693          	mv	a3,s11
   149f0:	18060663          	beqz	a2,14b7c <_vfiprintf_r+0x468>
   149f4:	08c10623          	sb	a2,140(sp)
   149f8:	02010da3          	sb	zero,59(sp)
   149fc:	00100993          	li	s3,1
   14a00:	00100893          	li	a7,1
   14a04:	08c10c13          	addi	s8,sp,140
   14a08:	00000c93          	li	s9,0
   14a0c:	00287f93          	andi	t6,a6,2
   14a10:	000f8463          	beqz	t6,14a18 <_vfiprintf_r+0x304>
   14a14:	00298993          	addi	s3,s3,2
   14a18:	04412603          	lw	a2,68(sp)
   14a1c:	08487293          	andi	t0,a6,132
   14a20:	04812783          	lw	a5,72(sp)
   14a24:	00160593          	addi	a1,a2,1
   14a28:	00058e93          	mv	t4,a1
   14a2c:	00029663          	bnez	t0,14a38 <_vfiprintf_r+0x324>
   14a30:	41368db3          	sub	s11,a3,s3
   14a34:	25b044e3          	bgtz	s11,1547c <_vfiprintf_r+0xd68>
   14a38:	03b14583          	lbu	a1,59(sp)
   14a3c:	02058a63          	beqz	a1,14a70 <_vfiprintf_r+0x35c>
   14a40:	03b10613          	addi	a2,sp,59
   14a44:	00178793          	addi	a5,a5,1
   14a48:	00c72023          	sw	a2,0(a4)
   14a4c:	00100613          	li	a2,1
   14a50:	00c72223          	sw	a2,4(a4)
   14a54:	04f12423          	sw	a5,72(sp)
   14a58:	05d12223          	sw	t4,68(sp)
   14a5c:	00700613          	li	a2,7
   14a60:	13d64ee3          	blt	a2,t4,1539c <_vfiprintf_r+0xc88>
   14a64:	000e8613          	mv	a2,t4
   14a68:	00870713          	addi	a4,a4,8
   14a6c:	001e8e93          	addi	t4,t4,1
   14a70:	060f8c63          	beqz	t6,14ae8 <_vfiprintf_r+0x3d4>
   14a74:	03c10613          	addi	a2,sp,60
   14a78:	00278793          	addi	a5,a5,2
   14a7c:	00c72023          	sw	a2,0(a4)
   14a80:	00200613          	li	a2,2
   14a84:	00c72223          	sw	a2,4(a4)
   14a88:	04f12423          	sw	a5,72(sp)
   14a8c:	05d12223          	sw	t4,68(sp)
   14a90:	00700613          	li	a2,7
   14a94:	19d650e3          	bge	a2,t4,15414 <_vfiprintf_r+0xd00>
   14a98:	3e0784e3          	beqz	a5,15680 <_vfiprintf_r+0xf6c>
   14a9c:	04010613          	addi	a2,sp,64
   14aa0:	00090593          	mv	a1,s2
   14aa4:	000a0513          	mv	a0,s4
   14aa8:	00612c23          	sw	t1,24(sp)
   14aac:	00d12a23          	sw	a3,20(sp)
   14ab0:	01012823          	sw	a6,16(sp)
   14ab4:	01112623          	sw	a7,12(sp)
   14ab8:	00512423          	sw	t0,8(sp)
   14abc:	b4dff0ef          	jal	ra,14608 <__sprint_r.part.0>
   14ac0:	ea0510e3          	bnez	a0,14960 <_vfiprintf_r+0x24c>
   14ac4:	04412603          	lw	a2,68(sp)
   14ac8:	04812783          	lw	a5,72(sp)
   14acc:	01812303          	lw	t1,24(sp)
   14ad0:	01412683          	lw	a3,20(sp)
   14ad4:	01012803          	lw	a6,16(sp)
   14ad8:	00c12883          	lw	a7,12(sp)
   14adc:	00812283          	lw	t0,8(sp)
   14ae0:	00048713          	mv	a4,s1
   14ae4:	00160e93          	addi	t4,a2,1
   14ae8:	08000593          	li	a1,128
   14aec:	68b28263          	beq	t0,a1,15170 <_vfiprintf_r+0xa5c>
   14af0:	411c8cb3          	sub	s9,s9,a7
   14af4:	7b904a63          	bgtz	s9,152a8 <_vfiprintf_r+0xb94>
   14af8:	00f887b3          	add	a5,a7,a5
   14afc:	01872023          	sw	s8,0(a4)
   14b00:	01172223          	sw	a7,4(a4)
   14b04:	04f12423          	sw	a5,72(sp)
   14b08:	05d12223          	sw	t4,68(sp)
   14b0c:	00700613          	li	a2,7
   14b10:	65d65463          	bge	a2,t4,15158 <_vfiprintf_r+0xa44>
   14b14:	0a078c63          	beqz	a5,14bcc <_vfiprintf_r+0x4b8>
   14b18:	04010613          	addi	a2,sp,64
   14b1c:	00090593          	mv	a1,s2
   14b20:	000a0513          	mv	a0,s4
   14b24:	00612823          	sw	t1,16(sp)
   14b28:	00d12623          	sw	a3,12(sp)
   14b2c:	01012423          	sw	a6,8(sp)
   14b30:	ad9ff0ef          	jal	ra,14608 <__sprint_r.part.0>
   14b34:	e20516e3          	bnez	a0,14960 <_vfiprintf_r+0x24c>
   14b38:	04812783          	lw	a5,72(sp)
   14b3c:	01012303          	lw	t1,16(sp)
   14b40:	00c12683          	lw	a3,12(sp)
   14b44:	00812803          	lw	a6,8(sp)
   14b48:	00048713          	mv	a4,s1
   14b4c:	00487813          	andi	a6,a6,4
   14b50:	00080663          	beqz	a6,14b5c <_vfiprintf_r+0x448>
   14b54:	41368c33          	sub	s8,a3,s3
   14b58:	09804663          	bgtz	s8,14be4 <_vfiprintf_r+0x4d0>
   14b5c:	0136d463          	bge	a3,s3,14b64 <_vfiprintf_r+0x450>
   14b60:	00098693          	mv	a3,s3
   14b64:	00dd0d33          	add	s10,s10,a3
   14b68:	dc079ee3          	bnez	a5,14944 <_vfiprintf_r+0x230>
   14b6c:	000bc783          	lbu	a5,0(s7)
   14b70:	04012223          	sw	zero,68(sp)
   14b74:	00048713          	mv	a4,s1
   14b78:	c8079ae3          	bnez	a5,1480c <_vfiprintf_r+0xf8>
   14b7c:	04812783          	lw	a5,72(sp)
   14b80:	000d0b93          	mv	s7,s10
   14b84:	de0780e3          	beqz	a5,14964 <_vfiprintf_r+0x250>
   14b88:	04010613          	addi	a2,sp,64
   14b8c:	00090593          	mv	a1,s2
   14b90:	000a0513          	mv	a0,s4
   14b94:	a75ff0ef          	jal	ra,14608 <__sprint_r.part.0>
   14b98:	dcdff06f          	j	14964 <_vfiprintf_r+0x250>
   14b9c:	00032d83          	lw	s11,0(t1)
   14ba0:	00430313          	addi	t1,t1,4
   14ba4:	220dc063          	bltz	s11,14dc4 <_vfiprintf_r+0x6b0>
   14ba8:	000bc603          	lbu	a2,0(s7)
   14bac:	d01ff06f          	j	148ac <_vfiprintf_r+0x198>
   14bb0:	000bc603          	lbu	a2,0(s7)
   14bb4:	020c6c13          	ori	s8,s8,32
   14bb8:	cf5ff06f          	j	148ac <_vfiprintf_r+0x198>
   14bbc:	417c89b3          	sub	s3,s9,s7
   14bc0:	c77c96e3          	bne	s9,s7,1482c <_vfiprintf_r+0x118>
   14bc4:	000cc783          	lbu	a5,0(s9)
   14bc8:	cbdff06f          	j	14884 <_vfiprintf_r+0x170>
   14bcc:	04012223          	sw	zero,68(sp)
   14bd0:	00487813          	andi	a6,a6,4
   14bd4:	1a080ce3          	beqz	a6,1558c <_vfiprintf_r+0xe78>
   14bd8:	41368c33          	sub	s8,a3,s3
   14bdc:	1b8058e3          	blez	s8,1558c <_vfiprintf_r+0xe78>
   14be0:	00048713          	mv	a4,s1
   14be4:	01000613          	li	a2,16
   14be8:	04412583          	lw	a1,68(sp)
   14bec:	6b8658e3          	bge	a2,s8,15a9c <_vfiprintf_r+0x1388>
   14bf0:	0000de97          	auipc	t4,0xd
   14bf4:	68ce8e93          	addi	t4,t4,1676 # 2227c <blanks.1>
   14bf8:	01312623          	sw	s3,12(sp)
   14bfc:	01712823          	sw	s7,16(sp)
   14c00:	000c0993          	mv	s3,s8
   14c04:	01000c93          	li	s9,16
   14c08:	00700d93          	li	s11,7
   14c0c:	00d12423          	sw	a3,8(sp)
   14c10:	00030c13          	mv	s8,t1
   14c14:	000e8b93          	mv	s7,t4
   14c18:	0180006f          	j	14c30 <_vfiprintf_r+0x51c>
   14c1c:	00258513          	addi	a0,a1,2
   14c20:	00870713          	addi	a4,a4,8
   14c24:	00068593          	mv	a1,a3
   14c28:	ff098993          	addi	s3,s3,-16
   14c2c:	053cd863          	bge	s9,s3,14c7c <_vfiprintf_r+0x568>
   14c30:	01078793          	addi	a5,a5,16
   14c34:	00158693          	addi	a3,a1,1
   14c38:	01772023          	sw	s7,0(a4)
   14c3c:	01972223          	sw	s9,4(a4)
   14c40:	04f12423          	sw	a5,72(sp)
   14c44:	04d12223          	sw	a3,68(sp)
   14c48:	fcdddae3          	bge	s11,a3,14c1c <_vfiprintf_r+0x508>
   14c4c:	50078a63          	beqz	a5,15160 <_vfiprintf_r+0xa4c>
   14c50:	04010613          	addi	a2,sp,64
   14c54:	00090593          	mv	a1,s2
   14c58:	000a0513          	mv	a0,s4
   14c5c:	9adff0ef          	jal	ra,14608 <__sprint_r.part.0>
   14c60:	d00510e3          	bnez	a0,14960 <_vfiprintf_r+0x24c>
   14c64:	04412583          	lw	a1,68(sp)
   14c68:	ff098993          	addi	s3,s3,-16
   14c6c:	04812783          	lw	a5,72(sp)
   14c70:	00048713          	mv	a4,s1
   14c74:	00158513          	addi	a0,a1,1
   14c78:	fb3ccce3          	blt	s9,s3,14c30 <_vfiprintf_r+0x51c>
   14c7c:	000c0313          	mv	t1,s8
   14c80:	000b8e93          	mv	t4,s7
   14c84:	00098c13          	mv	s8,s3
   14c88:	00812683          	lw	a3,8(sp)
   14c8c:	00c12983          	lw	s3,12(sp)
   14c90:	01012b83          	lw	s7,16(sp)
   14c94:	018787b3          	add	a5,a5,s8
   14c98:	01d72023          	sw	t4,0(a4)
   14c9c:	01872223          	sw	s8,4(a4)
   14ca0:	04f12423          	sw	a5,72(sp)
   14ca4:	04a12223          	sw	a0,68(sp)
   14ca8:	00700713          	li	a4,7
   14cac:	eaa758e3          	bge	a4,a0,14b5c <_vfiprintf_r+0x448>
   14cb0:	0c078ee3          	beqz	a5,1558c <_vfiprintf_r+0xe78>
   14cb4:	04010613          	addi	a2,sp,64
   14cb8:	00090593          	mv	a1,s2
   14cbc:	000a0513          	mv	a0,s4
   14cc0:	00612623          	sw	t1,12(sp)
   14cc4:	00d12423          	sw	a3,8(sp)
   14cc8:	941ff0ef          	jal	ra,14608 <__sprint_r.part.0>
   14ccc:	c8051ae3          	bnez	a0,14960 <_vfiprintf_r+0x24c>
   14cd0:	04812783          	lw	a5,72(sp)
   14cd4:	00c12303          	lw	t1,12(sp)
   14cd8:	00812683          	lw	a3,8(sp)
   14cdc:	e81ff06f          	j	14b5c <_vfiprintf_r+0x448>
   14ce0:	000c0813          	mv	a6,s8
   14ce4:	00032c03          	lw	s8,0(t1)
   14ce8:	02010da3          	sb	zero,59(sp)
   14cec:	000d8693          	mv	a3,s11
   14cf0:	00430d93          	addi	s11,t1,4
   14cf4:	4c0c0ae3          	beqz	s8,159c8 <_vfiprintf_r+0x12b4>
   14cf8:	fff00793          	li	a5,-1
   14cfc:	00e12823          	sw	a4,16(sp)
   14d00:	00d12623          	sw	a3,12(sp)
   14d04:	01012423          	sw	a6,8(sp)
   14d08:	3cfc8ae3          	beq	s9,a5,158dc <_vfiprintf_r+0x11c8>
   14d0c:	000c8613          	mv	a2,s9
   14d10:	00000593          	li	a1,0
   14d14:	000c0513          	mv	a0,s8
   14d18:	261010ef          	jal	ra,16778 <memchr>
   14d1c:	00812803          	lw	a6,8(sp)
   14d20:	00c12683          	lw	a3,12(sp)
   14d24:	01012703          	lw	a4,16(sp)
   14d28:	540508e3          	beqz	a0,15a78 <_vfiprintf_r+0x1364>
   14d2c:	418508b3          	sub	a7,a0,s8
   14d30:	fff8c993          	not	s3,a7
   14d34:	41f9d993          	srai	s3,s3,0x1f
   14d38:	0138f9b3          	and	s3,a7,s3
   14d3c:	000d8313          	mv	t1,s11
   14d40:	00000c93          	li	s9,0
   14d44:	16c0006f          	j	14eb0 <_vfiprintf_r+0x79c>
   14d48:	00032783          	lw	a5,0(t1)
   14d4c:	000c0813          	mv	a6,s8
   14d50:	000d8693          	mv	a3,s11
   14d54:	02010da3          	sb	zero,59(sp)
   14d58:	00430313          	addi	t1,t1,4
   14d5c:	08f10623          	sb	a5,140(sp)
   14d60:	00100993          	li	s3,1
   14d64:	00100893          	li	a7,1
   14d68:	08c10c13          	addi	s8,sp,140
   14d6c:	c9dff06f          	j	14a08 <_vfiprintf_r+0x2f4>
   14d70:	000c0813          	mv	a6,s8
   14d74:	02087793          	andi	a5,a6,32
   14d78:	000d8693          	mv	a3,s11
   14d7c:	26078263          	beqz	a5,14fe0 <_vfiprintf_r+0x8cc>
   14d80:	00730313          	addi	t1,t1,7
   14d84:	ff837313          	andi	t1,t1,-8
   14d88:	00432603          	lw	a2,4(t1)
   14d8c:	00032983          	lw	s3,0(t1)
   14d90:	00830313          	addi	t1,t1,8
   14d94:	00060d93          	mv	s11,a2
   14d98:	0c064463          	bltz	a2,14e60 <_vfiprintf_r+0x74c>
   14d9c:	fff00613          	li	a2,-1
   14da0:	0ecc8263          	beq	s9,a2,14e84 <_vfiprintf_r+0x770>
   14da4:	01b9e633          	or	a2,s3,s11
   14da8:	f7f87813          	andi	a6,a6,-129
   14dac:	0c061c63          	bnez	a2,14e84 <_vfiprintf_r+0x770>
   14db0:	4c0c90e3          	bnez	s9,15a70 <_vfiprintf_r+0x135c>
   14db4:	00000993          	li	s3,0
   14db8:	00000893          	li	a7,0
   14dbc:	0f010c13          	addi	s8,sp,240
   14dc0:	0f00006f          	j	14eb0 <_vfiprintf_r+0x79c>
   14dc4:	41b00db3          	neg	s11,s11
   14dc8:	000bc603          	lbu	a2,0(s7)
   14dcc:	004c6c13          	ori	s8,s8,4
   14dd0:	addff06f          	j	148ac <_vfiprintf_r+0x198>
   14dd4:	02b00793          	li	a5,43
   14dd8:	000bc603          	lbu	a2,0(s7)
   14ddc:	02f10da3          	sb	a5,59(sp)
   14de0:	acdff06f          	j	148ac <_vfiprintf_r+0x198>
   14de4:	000bc603          	lbu	a2,0(s7)
   14de8:	06800793          	li	a5,104
   14dec:	3af606e3          	beq	a2,a5,15998 <_vfiprintf_r+0x1284>
   14df0:	040c6c13          	ori	s8,s8,64
   14df4:	ab9ff06f          	j	148ac <_vfiprintf_r+0x198>
   14df8:	000d8693          	mv	a3,s11
   14dfc:	010c6893          	ori	a7,s8,16
   14e00:	0208f793          	andi	a5,a7,32
   14e04:	000784e3          	beqz	a5,1560c <_vfiprintf_r+0xef8>
   14e08:	00730313          	addi	t1,t1,7
   14e0c:	ff837313          	andi	t1,t1,-8
   14e10:	00032983          	lw	s3,0(t1)
   14e14:	00432d83          	lw	s11,4(t1)
   14e18:	00830313          	addi	t1,t1,8
   14e1c:	02010da3          	sb	zero,59(sp)
   14e20:	fff00613          	li	a2,-1
   14e24:	00088813          	mv	a6,a7
   14e28:	04cc8e63          	beq	s9,a2,14e84 <_vfiprintf_r+0x770>
   14e2c:	01b9e633          	or	a2,s3,s11
   14e30:	f7f8f813          	andi	a6,a7,-129
   14e34:	00100793          	li	a5,1
   14e38:	04061663          	bnez	a2,14e84 <_vfiprintf_r+0x770>
   14e3c:	0c0c9c63          	bnez	s9,14f14 <_vfiprintf_r+0x800>
   14e40:	f6079ae3          	bnez	a5,14db4 <_vfiprintf_r+0x6a0>
   14e44:	0018f893          	andi	a7,a7,1
   14e48:	180888e3          	beqz	a7,157d8 <_vfiprintf_r+0x10c4>
   14e4c:	03000793          	li	a5,48
   14e50:	0ef107a3          	sb	a5,239(sp)
   14e54:	00088993          	mv	s3,a7
   14e58:	0ef10c13          	addi	s8,sp,239
   14e5c:	0540006f          	j	14eb0 <_vfiprintf_r+0x79c>
   14e60:	02d00593          	li	a1,45
   14e64:	01303633          	snez	a2,s3
   14e68:	41b00eb3          	neg	t4,s11
   14e6c:	02b10da3          	sb	a1,59(sp)
   14e70:	fff00593          	li	a1,-1
   14e74:	40ce8db3          	sub	s11,t4,a2
   14e78:	413009b3          	neg	s3,s3
   14e7c:	00bc8463          	beq	s9,a1,14e84 <_vfiprintf_r+0x770>
   14e80:	f7f87813          	andi	a6,a6,-129
   14e84:	060d94e3          	bnez	s11,156ec <_vfiprintf_r+0xfd8>
   14e88:	00900613          	li	a2,9
   14e8c:	073660e3          	bltu	a2,s3,156ec <_vfiprintf_r+0xfd8>
   14e90:	03098793          	addi	a5,s3,48
   14e94:	0ff7f793          	zext.b	a5,a5
   14e98:	0ef107a3          	sb	a5,239(sp)
   14e9c:	000c8993          	mv	s3,s9
   14ea0:	01904463          	bgtz	s9,14ea8 <_vfiprintf_r+0x794>
   14ea4:	00100993          	li	s3,1
   14ea8:	00100893          	li	a7,1
   14eac:	0ef10c13          	addi	s8,sp,239
   14eb0:	03b14783          	lbu	a5,59(sp)
   14eb4:	00f037b3          	snez	a5,a5
   14eb8:	00f989b3          	add	s3,s3,a5
   14ebc:	b51ff06f          	j	14a0c <_vfiprintf_r+0x2f8>
   14ec0:	ffff8637          	lui	a2,0xffff8
   14ec4:	83064613          	xori	a2,a2,-2000
   14ec8:	02c11e23          	sh	a2,60(sp)
   14ecc:	0000d617          	auipc	a2,0xd
   14ed0:	fac60613          	addi	a2,a2,-84 # 21e78 <__clzsi2+0x160>
   14ed4:	00032783          	lw	a5,0(t1)
   14ed8:	000d8693          	mv	a3,s11
   14edc:	00000513          	li	a0,0
   14ee0:	002c6813          	ori	a6,s8,2
   14ee4:	00430313          	addi	t1,t1,4
   14ee8:	00c12223          	sw	a2,4(sp)
   14eec:	02010da3          	sb	zero,59(sp)
   14ef0:	fff00613          	li	a2,-1
   14ef4:	52cc8e63          	beq	s9,a2,15430 <_vfiprintf_r+0xd1c>
   14ef8:	00a7e633          	or	a2,a5,a0
   14efc:	f7f87593          	andi	a1,a6,-129
   14f00:	52061263          	bnez	a2,15424 <_vfiprintf_r+0xd10>
   14f04:	00080893          	mv	a7,a6
   14f08:	00200793          	li	a5,2
   14f0c:	00058813          	mv	a6,a1
   14f10:	f20c88e3          	beqz	s9,14e40 <_vfiprintf_r+0x72c>
   14f14:	00100613          	li	a2,1
   14f18:	34c78ce3          	beq	a5,a2,15a70 <_vfiprintf_r+0x135c>
   14f1c:	00200613          	li	a2,2
   14f20:	2cc784e3          	beq	a5,a2,159e8 <_vfiprintf_r+0x12d4>
   14f24:	00000793          	li	a5,0
   14f28:	00000513          	li	a0,0
   14f2c:	0f010c13          	addi	s8,sp,240
   14f30:	01d51593          	slli	a1,a0,0x1d
   14f34:	0077f613          	andi	a2,a5,7
   14f38:	0037d793          	srli	a5,a5,0x3
   14f3c:	03060613          	addi	a2,a2,48
   14f40:	00f5e7b3          	or	a5,a1,a5
   14f44:	00355513          	srli	a0,a0,0x3
   14f48:	fecc0fa3          	sb	a2,-1(s8)
   14f4c:	00a7e5b3          	or	a1,a5,a0
   14f50:	000c0893          	mv	a7,s8
   14f54:	fffc0c13          	addi	s8,s8,-1
   14f58:	fc059ce3          	bnez	a1,14f30 <_vfiprintf_r+0x81c>
   14f5c:	00187793          	andi	a5,a6,1
   14f60:	50078263          	beqz	a5,15464 <_vfiprintf_r+0xd50>
   14f64:	03000593          	li	a1,48
   14f68:	4eb60e63          	beq	a2,a1,15464 <_vfiprintf_r+0xd50>
   14f6c:	ffe88793          	addi	a5,a7,-2
   14f70:	0f010613          	addi	a2,sp,240
   14f74:	40f608b3          	sub	a7,a2,a5
   14f78:	febc0fa3          	sb	a1,-1(s8)
   14f7c:	00088993          	mv	s3,a7
   14f80:	0998cee3          	blt	a7,s9,1581c <_vfiprintf_r+0x1108>
   14f84:	00078c13          	mv	s8,a5
   14f88:	f29ff06f          	j	14eb0 <_vfiprintf_r+0x79c>
   14f8c:	020c7793          	andi	a5,s8,32
   14f90:	060792e3          	bnez	a5,157f4 <_vfiprintf_r+0x10e0>
   14f94:	010c7793          	andi	a5,s8,16
   14f98:	220790e3          	bnez	a5,159b8 <_vfiprintf_r+0x12a4>
   14f9c:	040c7793          	andi	a5,s8,64
   14fa0:	2c0790e3          	bnez	a5,15a60 <_vfiprintf_r+0x134c>
   14fa4:	200c7813          	andi	a6,s8,512
   14fa8:	200808e3          	beqz	a6,159b8 <_vfiprintf_r+0x12a4>
   14fac:	00032783          	lw	a5,0(t1)
   14fb0:	00430313          	addi	t1,t1,4
   14fb4:	01a78023          	sb	s10,0(a5)
   14fb8:	84dff06f          	j	14804 <_vfiprintf_r+0xf0>
   14fbc:	000bc603          	lbu	a2,0(s7)
   14fc0:	06c00793          	li	a5,108
   14fc4:	1ef602e3          	beq	a2,a5,159a8 <_vfiprintf_r+0x1294>
   14fc8:	010c6c13          	ori	s8,s8,16
   14fcc:	8e1ff06f          	j	148ac <_vfiprintf_r+0x198>
   14fd0:	010c6813          	ori	a6,s8,16
   14fd4:	02087793          	andi	a5,a6,32
   14fd8:	000d8693          	mv	a3,s11
   14fdc:	da0792e3          	bnez	a5,14d80 <_vfiprintf_r+0x66c>
   14fe0:	01087613          	andi	a2,a6,16
   14fe4:	00032783          	lw	a5,0(t1)
   14fe8:	00430313          	addi	t1,t1,4
   14fec:	60061863          	bnez	a2,155fc <_vfiprintf_r+0xee8>
   14ff0:	04087613          	andi	a2,a6,64
   14ff4:	60060063          	beqz	a2,155f4 <_vfiprintf_r+0xee0>
   14ff8:	01079993          	slli	s3,a5,0x10
   14ffc:	4109d993          	srai	s3,s3,0x10
   15000:	41f9dd93          	srai	s11,s3,0x1f
   15004:	000d8613          	mv	a2,s11
   15008:	d91ff06f          	j	14d98 <_vfiprintf_r+0x684>
   1500c:	000d8693          	mv	a3,s11
   15010:	010c6613          	ori	a2,s8,16
   15014:	02067793          	andi	a5,a2,32
   15018:	62078863          	beqz	a5,15648 <_vfiprintf_r+0xf34>
   1501c:	00730313          	addi	t1,t1,7
   15020:	ff837313          	andi	t1,t1,-8
   15024:	00032783          	lw	a5,0(t1)
   15028:	00432503          	lw	a0,4(t1)
   1502c:	00830313          	addi	t1,t1,8
   15030:	02010da3          	sb	zero,59(sp)
   15034:	fff00593          	li	a1,-1
   15038:	bff67813          	andi	a6,a2,-1025
   1503c:	eebc88e3          	beq	s9,a1,14f2c <_vfiprintf_r+0x818>
   15040:	00a7e5b3          	or	a1,a5,a0
   15044:	b7f67613          	andi	a2,a2,-1153
   15048:	12059ce3          	bnez	a1,15980 <_vfiprintf_r+0x126c>
   1504c:	00080893          	mv	a7,a6
   15050:	00000793          	li	a5,0
   15054:	00060813          	mv	a6,a2
   15058:	de5ff06f          	j	14e3c <_vfiprintf_r+0x728>
   1505c:	000a0513          	mv	a0,s4
   15060:	00612623          	sw	t1,12(sp)
   15064:	00e12423          	sw	a4,8(sp)
   15068:	189010ef          	jal	ra,169f0 <_localeconv_r>
   1506c:	00452783          	lw	a5,4(a0)
   15070:	00078513          	mv	a0,a5
   15074:	02f12223          	sw	a5,36(sp)
   15078:	351010ef          	jal	ra,16bc8 <strlen>
   1507c:	00050793          	mv	a5,a0
   15080:	000a0513          	mv	a0,s4
   15084:	02f12023          	sw	a5,32(sp)
   15088:	169010ef          	jal	ra,169f0 <_localeconv_r>
   1508c:	00852703          	lw	a4,8(a0)
   15090:	02012783          	lw	a5,32(sp)
   15094:	00c12303          	lw	t1,12(sp)
   15098:	00e12e23          	sw	a4,28(sp)
   1509c:	00812703          	lw	a4,8(sp)
   150a0:	b00784e3          	beqz	a5,14ba8 <_vfiprintf_r+0x494>
   150a4:	01c12783          	lw	a5,28(sp)
   150a8:	000bc603          	lbu	a2,0(s7)
   150ac:	800780e3          	beqz	a5,148ac <_vfiprintf_r+0x198>
   150b0:	0007c783          	lbu	a5,0(a5)
   150b4:	fe078c63          	beqz	a5,148ac <_vfiprintf_r+0x198>
   150b8:	400c6c13          	ori	s8,s8,1024
   150bc:	ff0ff06f          	j	148ac <_vfiprintf_r+0x198>
   150c0:	000bc603          	lbu	a2,0(s7)
   150c4:	080c6c13          	ori	s8,s8,128
   150c8:	fe4ff06f          	j	148ac <_vfiprintf_r+0x198>
   150cc:	000bc603          	lbu	a2,0(s7)
   150d0:	02a00793          	li	a5,42
   150d4:	001b8593          	addi	a1,s7,1
   150d8:	1ef606e3          	beq	a2,a5,15ac4 <_vfiprintf_r+0x13b0>
   150dc:	fd060793          	addi	a5,a2,-48
   150e0:	00900893          	li	a7,9
   150e4:	00058b93          	mv	s7,a1
   150e8:	00000c93          	li	s9,0
   150ec:	00900513          	li	a0,9
   150f0:	fcf8e063          	bltu	a7,a5,148b0 <_vfiprintf_r+0x19c>
   150f4:	000bc603          	lbu	a2,0(s7)
   150f8:	002c9593          	slli	a1,s9,0x2
   150fc:	01958cb3          	add	s9,a1,s9
   15100:	001c9c93          	slli	s9,s9,0x1
   15104:	00fc8cb3          	add	s9,s9,a5
   15108:	fd060793          	addi	a5,a2,-48
   1510c:	001b8b93          	addi	s7,s7,1
   15110:	fef572e3          	bgeu	a0,a5,150f4 <_vfiprintf_r+0x9e0>
   15114:	f9cff06f          	j	148b0 <_vfiprintf_r+0x19c>
   15118:	000bc603          	lbu	a2,0(s7)
   1511c:	001c6c13          	ori	s8,s8,1
   15120:	f8cff06f          	j	148ac <_vfiprintf_r+0x198>
   15124:	03b14783          	lbu	a5,59(sp)
   15128:	000bc603          	lbu	a2,0(s7)
   1512c:	f8079063          	bnez	a5,148ac <_vfiprintf_r+0x198>
   15130:	02000793          	li	a5,32
   15134:	02f10da3          	sb	a5,59(sp)
   15138:	f74ff06f          	j	148ac <_vfiprintf_r+0x198>
   1513c:	00100713          	li	a4,1
   15140:	04e12223          	sw	a4,68(sp)
   15144:	00088793          	mv	a5,a7
   15148:	05812623          	sw	s8,76(sp)
   1514c:	05112823          	sw	a7,80(sp)
   15150:	05112423          	sw	a7,72(sp)
   15154:	00048713          	mv	a4,s1
   15158:	00870713          	addi	a4,a4,8
   1515c:	9f1ff06f          	j	14b4c <_vfiprintf_r+0x438>
   15160:	00100513          	li	a0,1
   15164:	00000593          	li	a1,0
   15168:	00048713          	mv	a4,s1
   1516c:	abdff06f          	j	14c28 <_vfiprintf_r+0x514>
   15170:	41368db3          	sub	s11,a3,s3
   15174:	97b05ee3          	blez	s11,14af0 <_vfiprintf_r+0x3dc>
   15178:	01000593          	li	a1,16
   1517c:	13b5dce3          	bge	a1,s11,15ab4 <_vfiprintf_r+0x13a0>
   15180:	0000df17          	auipc	t5,0xd
   15184:	0ecf0f13          	addi	t5,t5,236 # 2226c <zeroes.0>
   15188:	01312a23          	sw	s3,20(sp)
   1518c:	01712c23          	sw	s7,24(sp)
   15190:	000d8993          	mv	s3,s11
   15194:	01000e93          	li	t4,16
   15198:	00700f93          	li	t6,7
   1519c:	01112423          	sw	a7,8(sp)
   151a0:	01012623          	sw	a6,12(sp)
   151a4:	00d12823          	sw	a3,16(sp)
   151a8:	00030d93          	mv	s11,t1
   151ac:	000f0b93          	mv	s7,t5
   151b0:	0180006f          	j	151c8 <_vfiprintf_r+0xab4>
   151b4:	00260513          	addi	a0,a2,2
   151b8:	00870713          	addi	a4,a4,8
   151bc:	00068613          	mv	a2,a3
   151c0:	ff098993          	addi	s3,s3,-16
   151c4:	053edc63          	bge	t4,s3,1521c <_vfiprintf_r+0xb08>
   151c8:	01078793          	addi	a5,a5,16
   151cc:	00160693          	addi	a3,a2,1
   151d0:	01772023          	sw	s7,0(a4)
   151d4:	01d72223          	sw	t4,4(a4)
   151d8:	04f12423          	sw	a5,72(sp)
   151dc:	04d12223          	sw	a3,68(sp)
   151e0:	fcdfdae3          	bge	t6,a3,151b4 <_vfiprintf_r+0xaa0>
   151e4:	1a078463          	beqz	a5,1538c <_vfiprintf_r+0xc78>
   151e8:	04010613          	addi	a2,sp,64
   151ec:	00090593          	mv	a1,s2
   151f0:	000a0513          	mv	a0,s4
   151f4:	c14ff0ef          	jal	ra,14608 <__sprint_r.part.0>
   151f8:	f6051463          	bnez	a0,14960 <_vfiprintf_r+0x24c>
   151fc:	04412603          	lw	a2,68(sp)
   15200:	01000e93          	li	t4,16
   15204:	ff098993          	addi	s3,s3,-16
   15208:	04812783          	lw	a5,72(sp)
   1520c:	00048713          	mv	a4,s1
   15210:	00160513          	addi	a0,a2,1
   15214:	00700f93          	li	t6,7
   15218:	fb3ec8e3          	blt	t4,s3,151c8 <_vfiprintf_r+0xab4>
   1521c:	000d8313          	mv	t1,s11
   15220:	000b8f13          	mv	t5,s7
   15224:	00098d93          	mv	s11,s3
   15228:	00812883          	lw	a7,8(sp)
   1522c:	00c12803          	lw	a6,12(sp)
   15230:	01012683          	lw	a3,16(sp)
   15234:	01412983          	lw	s3,20(sp)
   15238:	01812b83          	lw	s7,24(sp)
   1523c:	01b787b3          	add	a5,a5,s11
   15240:	01e72023          	sw	t5,0(a4)
   15244:	01b72223          	sw	s11,4(a4)
   15248:	04f12423          	sw	a5,72(sp)
   1524c:	04a12223          	sw	a0,68(sp)
   15250:	00700613          	li	a2,7
   15254:	58a65863          	bge	a2,a0,157e4 <_vfiprintf_r+0x10d0>
   15258:	78078e63          	beqz	a5,159f4 <_vfiprintf_r+0x12e0>
   1525c:	04010613          	addi	a2,sp,64
   15260:	00090593          	mv	a1,s2
   15264:	000a0513          	mv	a0,s4
   15268:	00612a23          	sw	t1,20(sp)
   1526c:	00d12823          	sw	a3,16(sp)
   15270:	01012623          	sw	a6,12(sp)
   15274:	01112423          	sw	a7,8(sp)
   15278:	b90ff0ef          	jal	ra,14608 <__sprint_r.part.0>
   1527c:	ee051263          	bnez	a0,14960 <_vfiprintf_r+0x24c>
   15280:	00812883          	lw	a7,8(sp)
   15284:	04412603          	lw	a2,68(sp)
   15288:	04812783          	lw	a5,72(sp)
   1528c:	411c8cb3          	sub	s9,s9,a7
   15290:	01412303          	lw	t1,20(sp)
   15294:	01012683          	lw	a3,16(sp)
   15298:	00c12803          	lw	a6,12(sp)
   1529c:	00048713          	mv	a4,s1
   152a0:	00160e93          	addi	t4,a2,1
   152a4:	85905ae3          	blez	s9,14af8 <_vfiprintf_r+0x3e4>
   152a8:	0000df17          	auipc	t5,0xd
   152ac:	fc4f0f13          	addi	t5,t5,-60 # 2226c <zeroes.0>
   152b0:	0b945263          	bge	s0,s9,15354 <_vfiprintf_r+0xc40>
   152b4:	01312a23          	sw	s3,20(sp)
   152b8:	00700d93          	li	s11,7
   152bc:	000c8993          	mv	s3,s9
   152c0:	01112423          	sw	a7,8(sp)
   152c4:	01012623          	sw	a6,12(sp)
   152c8:	00d12823          	sw	a3,16(sp)
   152cc:	00612c23          	sw	t1,24(sp)
   152d0:	000a8c93          	mv	s9,s5
   152d4:	0180006f          	j	152ec <_vfiprintf_r+0xbd8>
   152d8:	00260e93          	addi	t4,a2,2
   152dc:	00870713          	addi	a4,a4,8
   152e0:	00068613          	mv	a2,a3
   152e4:	ff098993          	addi	s3,s3,-16
   152e8:	05345863          	bge	s0,s3,15338 <_vfiprintf_r+0xc24>
   152ec:	01078793          	addi	a5,a5,16
   152f0:	00160693          	addi	a3,a2,1
   152f4:	01572023          	sw	s5,0(a4)
   152f8:	00872223          	sw	s0,4(a4)
   152fc:	04f12423          	sw	a5,72(sp)
   15300:	04d12223          	sw	a3,68(sp)
   15304:	fcdddae3          	bge	s11,a3,152d8 <_vfiprintf_r+0xbc4>
   15308:	06078a63          	beqz	a5,1537c <_vfiprintf_r+0xc68>
   1530c:	04010613          	addi	a2,sp,64
   15310:	00090593          	mv	a1,s2
   15314:	000a0513          	mv	a0,s4
   15318:	af0ff0ef          	jal	ra,14608 <__sprint_r.part.0>
   1531c:	e4051263          	bnez	a0,14960 <_vfiprintf_r+0x24c>
   15320:	04412603          	lw	a2,68(sp)
   15324:	ff098993          	addi	s3,s3,-16
   15328:	04812783          	lw	a5,72(sp)
   1532c:	00048713          	mv	a4,s1
   15330:	00160e93          	addi	t4,a2,1
   15334:	fb344ce3          	blt	s0,s3,152ec <_vfiprintf_r+0xbd8>
   15338:	000c8f13          	mv	t5,s9
   1533c:	00812883          	lw	a7,8(sp)
   15340:	00098c93          	mv	s9,s3
   15344:	00c12803          	lw	a6,12(sp)
   15348:	01012683          	lw	a3,16(sp)
   1534c:	01812303          	lw	t1,24(sp)
   15350:	01412983          	lw	s3,20(sp)
   15354:	019787b3          	add	a5,a5,s9
   15358:	01e72023          	sw	t5,0(a4)
   1535c:	01972223          	sw	s9,4(a4)
   15360:	04f12423          	sw	a5,72(sp)
   15364:	05d12223          	sw	t4,68(sp)
   15368:	00700613          	li	a2,7
   1536c:	23d64863          	blt	a2,t4,1559c <_vfiprintf_r+0xe88>
   15370:	00870713          	addi	a4,a4,8
   15374:	001e8e93          	addi	t4,t4,1
   15378:	f80ff06f          	j	14af8 <_vfiprintf_r+0x3e4>
   1537c:	00100e93          	li	t4,1
   15380:	00000613          	li	a2,0
   15384:	00048713          	mv	a4,s1
   15388:	f5dff06f          	j	152e4 <_vfiprintf_r+0xbd0>
   1538c:	00100513          	li	a0,1
   15390:	00000613          	li	a2,0
   15394:	00048713          	mv	a4,s1
   15398:	e29ff06f          	j	151c0 <_vfiprintf_r+0xaac>
   1539c:	04078e63          	beqz	a5,153f8 <_vfiprintf_r+0xce4>
   153a0:	04010613          	addi	a2,sp,64
   153a4:	00090593          	mv	a1,s2
   153a8:	000a0513          	mv	a0,s4
   153ac:	02612423          	sw	t1,40(sp)
   153b0:	00d12c23          	sw	a3,24(sp)
   153b4:	01012a23          	sw	a6,20(sp)
   153b8:	01112823          	sw	a7,16(sp)
   153bc:	00512623          	sw	t0,12(sp)
   153c0:	01f12423          	sw	t6,8(sp)
   153c4:	a44ff0ef          	jal	ra,14608 <__sprint_r.part.0>
   153c8:	d8051c63          	bnez	a0,14960 <_vfiprintf_r+0x24c>
   153cc:	04412603          	lw	a2,68(sp)
   153d0:	04812783          	lw	a5,72(sp)
   153d4:	02812303          	lw	t1,40(sp)
   153d8:	01812683          	lw	a3,24(sp)
   153dc:	01412803          	lw	a6,20(sp)
   153e0:	01012883          	lw	a7,16(sp)
   153e4:	00c12283          	lw	t0,12(sp)
   153e8:	00812f83          	lw	t6,8(sp)
   153ec:	00048713          	mv	a4,s1
   153f0:	00160e93          	addi	t4,a2,1
   153f4:	e7cff06f          	j	14a70 <_vfiprintf_r+0x35c>
   153f8:	400f8a63          	beqz	t6,1580c <_vfiprintf_r+0x10f8>
   153fc:	03c10793          	addi	a5,sp,60
   15400:	04f12623          	sw	a5,76(sp)
   15404:	00200793          	li	a5,2
   15408:	04f12823          	sw	a5,80(sp)
   1540c:	00100e93          	li	t4,1
   15410:	00048713          	mv	a4,s1
   15414:	000e8613          	mv	a2,t4
   15418:	00870713          	addi	a4,a4,8
   1541c:	001e8e93          	addi	t4,t4,1
   15420:	ec8ff06f          	j	14ae8 <_vfiprintf_r+0x3d4>
   15424:	00200613          	li	a2,2
   15428:	00058813          	mv	a6,a1
   1542c:	b00600e3          	beqz	a2,14f2c <_vfiprintf_r+0x818>
   15430:	00412883          	lw	a7,4(sp)
   15434:	0f010c13          	addi	s8,sp,240
   15438:	00f7f613          	andi	a2,a5,15
   1543c:	00c88633          	add	a2,a7,a2
   15440:	00064583          	lbu	a1,0(a2)
   15444:	0047d793          	srli	a5,a5,0x4
   15448:	01c51613          	slli	a2,a0,0x1c
   1544c:	00f667b3          	or	a5,a2,a5
   15450:	00455513          	srli	a0,a0,0x4
   15454:	febc0fa3          	sb	a1,-1(s8)
   15458:	00a7e633          	or	a2,a5,a0
   1545c:	fffc0c13          	addi	s8,s8,-1
   15460:	fc061ce3          	bnez	a2,15438 <_vfiprintf_r+0xd24>
   15464:	0f010793          	addi	a5,sp,240
   15468:	418788b3          	sub	a7,a5,s8
   1546c:	00088993          	mv	s3,a7
   15470:	a598d0e3          	bge	a7,s9,14eb0 <_vfiprintf_r+0x79c>
   15474:	000c8993          	mv	s3,s9
   15478:	a39ff06f          	j	14eb0 <_vfiprintf_r+0x79c>
   1547c:	01000513          	li	a0,16
   15480:	61b55663          	bge	a0,s11,15a8c <_vfiprintf_r+0x1378>
   15484:	0000de97          	auipc	t4,0xd
   15488:	df8e8e93          	addi	t4,t4,-520 # 2227c <blanks.1>
   1548c:	03312423          	sw	s3,40(sp)
   15490:	03712623          	sw	s7,44(sp)
   15494:	000d8993          	mv	s3,s11
   15498:	01000f13          	li	t5,16
   1549c:	00700393          	li	t2,7
   154a0:	01f12423          	sw	t6,8(sp)
   154a4:	00512623          	sw	t0,12(sp)
   154a8:	01112823          	sw	a7,16(sp)
   154ac:	01012a23          	sw	a6,20(sp)
   154b0:	00d12c23          	sw	a3,24(sp)
   154b4:	00030d93          	mv	s11,t1
   154b8:	000e8b93          	mv	s7,t4
   154bc:	01c0006f          	j	154d8 <_vfiprintf_r+0xdc4>
   154c0:	00260513          	addi	a0,a2,2
   154c4:	00870713          	addi	a4,a4,8
   154c8:	00058613          	mv	a2,a1
   154cc:	ff098993          	addi	s3,s3,-16
   154d0:	053f5c63          	bge	t5,s3,15528 <_vfiprintf_r+0xe14>
   154d4:	00160593          	addi	a1,a2,1
   154d8:	01078793          	addi	a5,a5,16
   154dc:	01772023          	sw	s7,0(a4)
   154e0:	01e72223          	sw	t5,4(a4)
   154e4:	04f12423          	sw	a5,72(sp)
   154e8:	04b12223          	sw	a1,68(sp)
   154ec:	fcb3dae3          	bge	t2,a1,154c0 <_vfiprintf_r+0xdac>
   154f0:	08078663          	beqz	a5,1557c <_vfiprintf_r+0xe68>
   154f4:	04010613          	addi	a2,sp,64
   154f8:	00090593          	mv	a1,s2
   154fc:	000a0513          	mv	a0,s4
   15500:	908ff0ef          	jal	ra,14608 <__sprint_r.part.0>
   15504:	c4051e63          	bnez	a0,14960 <_vfiprintf_r+0x24c>
   15508:	04412603          	lw	a2,68(sp)
   1550c:	01000f13          	li	t5,16
   15510:	ff098993          	addi	s3,s3,-16
   15514:	04812783          	lw	a5,72(sp)
   15518:	00048713          	mv	a4,s1
   1551c:	00160513          	addi	a0,a2,1
   15520:	00700393          	li	t2,7
   15524:	fb3f48e3          	blt	t5,s3,154d4 <_vfiprintf_r+0xdc0>
   15528:	000d8313          	mv	t1,s11
   1552c:	000b8e93          	mv	t4,s7
   15530:	00098d93          	mv	s11,s3
   15534:	00812f83          	lw	t6,8(sp)
   15538:	00c12283          	lw	t0,12(sp)
   1553c:	01012883          	lw	a7,16(sp)
   15540:	01412803          	lw	a6,20(sp)
   15544:	01812683          	lw	a3,24(sp)
   15548:	02812983          	lw	s3,40(sp)
   1554c:	02c12b83          	lw	s7,44(sp)
   15550:	01b787b3          	add	a5,a5,s11
   15554:	01d72023          	sw	t4,0(a4)
   15558:	01b72223          	sw	s11,4(a4)
   1555c:	04f12423          	sw	a5,72(sp)
   15560:	04a12223          	sw	a0,68(sp)
   15564:	00700613          	li	a2,7
   15568:	12a64463          	blt	a2,a0,15690 <_vfiprintf_r+0xf7c>
   1556c:	00870713          	addi	a4,a4,8
   15570:	00150e93          	addi	t4,a0,1
   15574:	00050613          	mv	a2,a0
   15578:	cc0ff06f          	j	14a38 <_vfiprintf_r+0x324>
   1557c:	00000613          	li	a2,0
   15580:	00100513          	li	a0,1
   15584:	00048713          	mv	a4,s1
   15588:	f45ff06f          	j	154cc <_vfiprintf_r+0xdb8>
   1558c:	0136d463          	bge	a3,s3,15594 <_vfiprintf_r+0xe80>
   15590:	00098693          	mv	a3,s3
   15594:	00dd0d33          	add	s10,s10,a3
   15598:	dd4ff06f          	j	14b6c <_vfiprintf_r+0x458>
   1559c:	ba0780e3          	beqz	a5,1513c <_vfiprintf_r+0xa28>
   155a0:	04010613          	addi	a2,sp,64
   155a4:	00090593          	mv	a1,s2
   155a8:	000a0513          	mv	a0,s4
   155ac:	00612a23          	sw	t1,20(sp)
   155b0:	00d12823          	sw	a3,16(sp)
   155b4:	01012623          	sw	a6,12(sp)
   155b8:	01112423          	sw	a7,8(sp)
   155bc:	84cff0ef          	jal	ra,14608 <__sprint_r.part.0>
   155c0:	ba051063          	bnez	a0,14960 <_vfiprintf_r+0x24c>
   155c4:	04412e83          	lw	t4,68(sp)
   155c8:	04812783          	lw	a5,72(sp)
   155cc:	01412303          	lw	t1,20(sp)
   155d0:	01012683          	lw	a3,16(sp)
   155d4:	00c12803          	lw	a6,12(sp)
   155d8:	00812883          	lw	a7,8(sp)
   155dc:	00048713          	mv	a4,s1
   155e0:	001e8e93          	addi	t4,t4,1
   155e4:	d14ff06f          	j	14af8 <_vfiprintf_r+0x3e4>
   155e8:	04012223          	sw	zero,68(sp)
   155ec:	00048713          	mv	a4,s1
   155f0:	a8cff06f          	j	1487c <_vfiprintf_r+0x168>
   155f4:	20087613          	andi	a2,a6,512
   155f8:	44061a63          	bnez	a2,15a4c <_vfiprintf_r+0x1338>
   155fc:	41f7dd93          	srai	s11,a5,0x1f
   15600:	00078993          	mv	s3,a5
   15604:	000d8613          	mv	a2,s11
   15608:	f90ff06f          	j	14d98 <_vfiprintf_r+0x684>
   1560c:	0108f613          	andi	a2,a7,16
   15610:	00032783          	lw	a5,0(t1)
   15614:	00430313          	addi	t1,t1,4
   15618:	02061263          	bnez	a2,1563c <_vfiprintf_r+0xf28>
   1561c:	0408f613          	andi	a2,a7,64
   15620:	00060a63          	beqz	a2,15634 <_vfiprintf_r+0xf20>
   15624:	01079993          	slli	s3,a5,0x10
   15628:	0109d993          	srli	s3,s3,0x10
   1562c:	00000d93          	li	s11,0
   15630:	fecff06f          	j	14e1c <_vfiprintf_r+0x708>
   15634:	2008f613          	andi	a2,a7,512
   15638:	40061463          	bnez	a2,15a40 <_vfiprintf_r+0x132c>
   1563c:	00078993          	mv	s3,a5
   15640:	00000d93          	li	s11,0
   15644:	fd8ff06f          	j	14e1c <_vfiprintf_r+0x708>
   15648:	01067593          	andi	a1,a2,16
   1564c:	00032783          	lw	a5,0(t1)
   15650:	00430313          	addi	t1,t1,4
   15654:	02059263          	bnez	a1,15678 <_vfiprintf_r+0xf64>
   15658:	04067593          	andi	a1,a2,64
   1565c:	00058a63          	beqz	a1,15670 <_vfiprintf_r+0xf5c>
   15660:	01079793          	slli	a5,a5,0x10
   15664:	0107d793          	srli	a5,a5,0x10
   15668:	00000513          	li	a0,0
   1566c:	9c5ff06f          	j	15030 <_vfiprintf_r+0x91c>
   15670:	20067593          	andi	a1,a2,512
   15674:	3c059063          	bnez	a1,15a34 <_vfiprintf_r+0x1320>
   15678:	00000513          	li	a0,0
   1567c:	9b5ff06f          	j	15030 <_vfiprintf_r+0x91c>
   15680:	00100e93          	li	t4,1
   15684:	00000613          	li	a2,0
   15688:	00048713          	mv	a4,s1
   1568c:	c5cff06f          	j	14ae8 <_vfiprintf_r+0x3d4>
   15690:	26078e63          	beqz	a5,1590c <_vfiprintf_r+0x11f8>
   15694:	04010613          	addi	a2,sp,64
   15698:	00090593          	mv	a1,s2
   1569c:	000a0513          	mv	a0,s4
   156a0:	02612423          	sw	t1,40(sp)
   156a4:	00d12c23          	sw	a3,24(sp)
   156a8:	01012a23          	sw	a6,20(sp)
   156ac:	01112823          	sw	a7,16(sp)
   156b0:	00512623          	sw	t0,12(sp)
   156b4:	01f12423          	sw	t6,8(sp)
   156b8:	f51fe0ef          	jal	ra,14608 <__sprint_r.part.0>
   156bc:	aa051263          	bnez	a0,14960 <_vfiprintf_r+0x24c>
   156c0:	04412603          	lw	a2,68(sp)
   156c4:	04812783          	lw	a5,72(sp)
   156c8:	02812303          	lw	t1,40(sp)
   156cc:	01812683          	lw	a3,24(sp)
   156d0:	01412803          	lw	a6,20(sp)
   156d4:	01012883          	lw	a7,16(sp)
   156d8:	00c12283          	lw	t0,12(sp)
   156dc:	00812f83          	lw	t6,8(sp)
   156e0:	00048713          	mv	a4,s1
   156e4:	00160e93          	addi	t4,a2,1
   156e8:	b50ff06f          	j	14a38 <_vfiprintf_r+0x324>
   156ec:	0f010c13          	addi	s8,sp,240
   156f0:	40087793          	andi	a5,a6,1024
   156f4:	00000613          	li	a2,0
   156f8:	01912823          	sw	s9,16(sp)
   156fc:	01a12c23          	sw	s10,24(sp)
   15700:	03412423          	sw	s4,40(sp)
   15704:	01012423          	sw	a6,8(sp)
   15708:	000c0a13          	mv	s4,s8
   1570c:	00d12623          	sw	a3,12(sp)
   15710:	000b8c13          	mv	s8,s7
   15714:	00e12a23          	sw	a4,20(sp)
   15718:	00090b93          	mv	s7,s2
   1571c:	00060c93          	mv	s9,a2
   15720:	01c12903          	lw	s2,28(sp)
   15724:	00078d13          	mv	s10,a5
   15728:	02612623          	sw	t1,44(sp)
   1572c:	0240006f          	j	15750 <_vfiprintf_r+0x103c>
   15730:	00a00613          	li	a2,10
   15734:	00000693          	li	a3,0
   15738:	00098513          	mv	a0,s3
   1573c:	000d8593          	mv	a1,s11
   15740:	634060ef          	jal	ra,1bd74 <__udivdi3>
   15744:	2c0d8063          	beqz	s11,15a04 <_vfiprintf_r+0x12f0>
   15748:	00050993          	mv	s3,a0
   1574c:	00058d93          	mv	s11,a1
   15750:	00a00613          	li	a2,10
   15754:	00000693          	li	a3,0
   15758:	00098513          	mv	a0,s3
   1575c:	000d8593          	mv	a1,s11
   15760:	3d9060ef          	jal	ra,1c338 <__umoddi3>
   15764:	03050513          	addi	a0,a0,48
   15768:	feaa0fa3          	sb	a0,-1(s4)
   1576c:	001c8c93          	addi	s9,s9,1
   15770:	fffa0a13          	addi	s4,s4,-1
   15774:	fa0d0ee3          	beqz	s10,15730 <_vfiprintf_r+0x101c>
   15778:	00094703          	lbu	a4,0(s2)
   1577c:	fb971ae3          	bne	a4,s9,15730 <_vfiprintf_r+0x101c>
   15780:	0ff00793          	li	a5,255
   15784:	fafc86e3          	beq	s9,a5,15730 <_vfiprintf_r+0x101c>
   15788:	1a0d9463          	bnez	s11,15930 <_vfiprintf_r+0x121c>
   1578c:	00900713          	li	a4,9
   15790:	1b376063          	bltu	a4,s3,15930 <_vfiprintf_r+0x121c>
   15794:	01012c83          	lw	s9,16(sp)
   15798:	01212e23          	sw	s2,28(sp)
   1579c:	0f010793          	addi	a5,sp,240
   157a0:	000b8913          	mv	s2,s7
   157a4:	000c0b93          	mv	s7,s8
   157a8:	000a0c13          	mv	s8,s4
   157ac:	418788b3          	sub	a7,a5,s8
   157b0:	00812803          	lw	a6,8(sp)
   157b4:	00c12683          	lw	a3,12(sp)
   157b8:	01412703          	lw	a4,20(sp)
   157bc:	01812d03          	lw	s10,24(sp)
   157c0:	02812a03          	lw	s4,40(sp)
   157c4:	02c12303          	lw	t1,44(sp)
   157c8:	00088993          	mv	s3,a7
   157cc:	ef98d263          	bge	a7,s9,14eb0 <_vfiprintf_r+0x79c>
   157d0:	000c8993          	mv	s3,s9
   157d4:	edcff06f          	j	14eb0 <_vfiprintf_r+0x79c>
   157d8:	00000993          	li	s3,0
   157dc:	0f010c13          	addi	s8,sp,240
   157e0:	ed0ff06f          	j	14eb0 <_vfiprintf_r+0x79c>
   157e4:	00870713          	addi	a4,a4,8
   157e8:	00150e93          	addi	t4,a0,1
   157ec:	00050613          	mv	a2,a0
   157f0:	b00ff06f          	j	14af0 <_vfiprintf_r+0x3dc>
   157f4:	00032783          	lw	a5,0(t1)
   157f8:	41fd5693          	srai	a3,s10,0x1f
   157fc:	00430313          	addi	t1,t1,4
   15800:	01a7a023          	sw	s10,0(a5)
   15804:	00d7a223          	sw	a3,4(a5)
   15808:	ffdfe06f          	j	14804 <_vfiprintf_r+0xf0>
   1580c:	00000613          	li	a2,0
   15810:	00100e93          	li	t4,1
   15814:	00048713          	mv	a4,s1
   15818:	ad0ff06f          	j	14ae8 <_vfiprintf_r+0x3d4>
   1581c:	000c8993          	mv	s3,s9
   15820:	00078c13          	mv	s8,a5
   15824:	e8cff06f          	j	14eb0 <_vfiprintf_r+0x79c>
   15828:	000d8693          	mv	a3,s11
   1582c:	000c0893          	mv	a7,s8
   15830:	dd0ff06f          	j	14e00 <_vfiprintf_r+0x6ec>
   15834:	0000c797          	auipc	a5,0xc
   15838:	65878793          	addi	a5,a5,1624 # 21e8c <__clzsi2+0x174>
   1583c:	000c0813          	mv	a6,s8
   15840:	00f12223          	sw	a5,4(sp)
   15844:	02087793          	andi	a5,a6,32
   15848:	000d8693          	mv	a3,s11
   1584c:	06078463          	beqz	a5,158b4 <_vfiprintf_r+0x11a0>
   15850:	00730313          	addi	t1,t1,7
   15854:	ff837313          	andi	t1,t1,-8
   15858:	00032783          	lw	a5,0(t1)
   1585c:	00432503          	lw	a0,4(t1)
   15860:	00830313          	addi	t1,t1,8
   15864:	00187593          	andi	a1,a6,1
   15868:	00058e63          	beqz	a1,15884 <_vfiprintf_r+0x1170>
   1586c:	00a7e5b3          	or	a1,a5,a0
   15870:	00058a63          	beqz	a1,15884 <_vfiprintf_r+0x1170>
   15874:	03000593          	li	a1,48
   15878:	02b10e23          	sb	a1,60(sp)
   1587c:	02c10ea3          	sb	a2,61(sp)
   15880:	00286813          	ori	a6,a6,2
   15884:	bff87813          	andi	a6,a6,-1025
   15888:	e64ff06f          	j	14eec <_vfiprintf_r+0x7d8>
   1588c:	000d8693          	mv	a3,s11
   15890:	000c0613          	mv	a2,s8
   15894:	f80ff06f          	j	15014 <_vfiprintf_r+0x900>
   15898:	0000c797          	auipc	a5,0xc
   1589c:	5e078793          	addi	a5,a5,1504 # 21e78 <__clzsi2+0x160>
   158a0:	000c0813          	mv	a6,s8
   158a4:	00f12223          	sw	a5,4(sp)
   158a8:	02087793          	andi	a5,a6,32
   158ac:	000d8693          	mv	a3,s11
   158b0:	fa0790e3          	bnez	a5,15850 <_vfiprintf_r+0x113c>
   158b4:	01087593          	andi	a1,a6,16
   158b8:	00032783          	lw	a5,0(t1)
   158bc:	00430313          	addi	t1,t1,4
   158c0:	0a059c63          	bnez	a1,15978 <_vfiprintf_r+0x1264>
   158c4:	04087593          	andi	a1,a6,64
   158c8:	0a058463          	beqz	a1,15970 <_vfiprintf_r+0x125c>
   158cc:	01079793          	slli	a5,a5,0x10
   158d0:	0107d793          	srli	a5,a5,0x10
   158d4:	00000513          	li	a0,0
   158d8:	f8dff06f          	j	15864 <_vfiprintf_r+0x1150>
   158dc:	000c0513          	mv	a0,s8
   158e0:	2e8010ef          	jal	ra,16bc8 <strlen>
   158e4:	fff54993          	not	s3,a0
   158e8:	41f9d993          	srai	s3,s3,0x1f
   158ec:	00812803          	lw	a6,8(sp)
   158f0:	00c12683          	lw	a3,12(sp)
   158f4:	01012703          	lw	a4,16(sp)
   158f8:	00050893          	mv	a7,a0
   158fc:	013579b3          	and	s3,a0,s3
   15900:	000d8313          	mv	t1,s11
   15904:	00000c93          	li	s9,0
   15908:	da8ff06f          	j	14eb0 <_vfiprintf_r+0x79c>
   1590c:	03b14703          	lbu	a4,59(sp)
   15910:	10070463          	beqz	a4,15a18 <_vfiprintf_r+0x1304>
   15914:	03b10793          	addi	a5,sp,59
   15918:	04f12623          	sw	a5,76(sp)
   1591c:	00100793          	li	a5,1
   15920:	04f12823          	sw	a5,80(sp)
   15924:	00100e93          	li	t4,1
   15928:	00048713          	mv	a4,s1
   1592c:	938ff06f          	j	14a64 <_vfiprintf_r+0x350>
   15930:	02012783          	lw	a5,32(sp)
   15934:	02412583          	lw	a1,36(sp)
   15938:	00000c93          	li	s9,0
   1593c:	40fa0a33          	sub	s4,s4,a5
   15940:	00078613          	mv	a2,a5
   15944:	000a0513          	mv	a0,s4
   15948:	6f5000ef          	jal	ra,1683c <strncpy>
   1594c:	00194703          	lbu	a4,1(s2)
   15950:	00a00613          	li	a2,10
   15954:	00000693          	li	a3,0
   15958:	00e03733          	snez	a4,a4
   1595c:	00098513          	mv	a0,s3
   15960:	000d8593          	mv	a1,s11
   15964:	00e90933          	add	s2,s2,a4
   15968:	40c060ef          	jal	ra,1bd74 <__udivdi3>
   1596c:	dddff06f          	j	15748 <_vfiprintf_r+0x1034>
   15970:	20087593          	andi	a1,a6,512
   15974:	0a059a63          	bnez	a1,15a28 <_vfiprintf_r+0x1314>
   15978:	00000513          	li	a0,0
   1597c:	ee9ff06f          	j	15864 <_vfiprintf_r+0x1150>
   15980:	00060813          	mv	a6,a2
   15984:	00000613          	li	a2,0
   15988:	da060263          	beqz	a2,14f2c <_vfiprintf_r+0x818>
   1598c:	aa5ff06f          	j	15430 <_vfiprintf_r+0xd1c>
   15990:	ca9fa0ef          	jal	ra,10638 <__sinit>
   15994:	dd9fe06f          	j	1476c <_vfiprintf_r+0x58>
   15998:	001bc603          	lbu	a2,1(s7)
   1599c:	200c6c13          	ori	s8,s8,512
   159a0:	001b8b93          	addi	s7,s7,1
   159a4:	f09fe06f          	j	148ac <_vfiprintf_r+0x198>
   159a8:	001bc603          	lbu	a2,1(s7)
   159ac:	020c6c13          	ori	s8,s8,32
   159b0:	001b8b93          	addi	s7,s7,1
   159b4:	ef9fe06f          	j	148ac <_vfiprintf_r+0x198>
   159b8:	00032783          	lw	a5,0(t1)
   159bc:	00430313          	addi	t1,t1,4
   159c0:	01a7a023          	sw	s10,0(a5)
   159c4:	e41fe06f          	j	14804 <_vfiprintf_r+0xf0>
   159c8:	00600793          	li	a5,6
   159cc:	000c8893          	mv	a7,s9
   159d0:	0597e063          	bltu	a5,s9,15a10 <_vfiprintf_r+0x12fc>
   159d4:	00088993          	mv	s3,a7
   159d8:	000d8313          	mv	t1,s11
   159dc:	0000cc17          	auipc	s8,0xc
   159e0:	4c4c0c13          	addi	s8,s8,1220 # 21ea0 <__clzsi2+0x188>
   159e4:	824ff06f          	j	14a08 <_vfiprintf_r+0x2f4>
   159e8:	00000793          	li	a5,0
   159ec:	00000513          	li	a0,0
   159f0:	a41ff06f          	j	15430 <_vfiprintf_r+0xd1c>
   159f4:	00100e93          	li	t4,1
   159f8:	00000613          	li	a2,0
   159fc:	00048713          	mv	a4,s1
   15a00:	8f0ff06f          	j	14af0 <_vfiprintf_r+0x3dc>
   15a04:	00900713          	li	a4,9
   15a08:	d53760e3          	bltu	a4,s3,15748 <_vfiprintf_r+0x1034>
   15a0c:	d89ff06f          	j	15794 <_vfiprintf_r+0x1080>
   15a10:	00600893          	li	a7,6
   15a14:	fc1ff06f          	j	159d4 <_vfiprintf_r+0x12c0>
   15a18:	00000613          	li	a2,0
   15a1c:	00100e93          	li	t4,1
   15a20:	00048713          	mv	a4,s1
   15a24:	84cff06f          	j	14a70 <_vfiprintf_r+0x35c>
   15a28:	0ff7f793          	zext.b	a5,a5
   15a2c:	00000513          	li	a0,0
   15a30:	e35ff06f          	j	15864 <_vfiprintf_r+0x1150>
   15a34:	0ff7f793          	zext.b	a5,a5
   15a38:	00000513          	li	a0,0
   15a3c:	df4ff06f          	j	15030 <_vfiprintf_r+0x91c>
   15a40:	0ff7f993          	zext.b	s3,a5
   15a44:	00000d93          	li	s11,0
   15a48:	bd4ff06f          	j	14e1c <_vfiprintf_r+0x708>
   15a4c:	01879993          	slli	s3,a5,0x18
   15a50:	4189d993          	srai	s3,s3,0x18
   15a54:	41f9dd93          	srai	s11,s3,0x1f
   15a58:	000d8613          	mv	a2,s11
   15a5c:	b3cff06f          	j	14d98 <_vfiprintf_r+0x684>
   15a60:	00032783          	lw	a5,0(t1)
   15a64:	00430313          	addi	t1,t1,4
   15a68:	01a79023          	sh	s10,0(a5)
   15a6c:	d99fe06f          	j	14804 <_vfiprintf_r+0xf0>
   15a70:	03000793          	li	a5,48
   15a74:	c24ff06f          	j	14e98 <_vfiprintf_r+0x784>
   15a78:	000c8993          	mv	s3,s9
   15a7c:	000c8893          	mv	a7,s9
   15a80:	000d8313          	mv	t1,s11
   15a84:	00000c93          	li	s9,0
   15a88:	c28ff06f          	j	14eb0 <_vfiprintf_r+0x79c>
   15a8c:	00058513          	mv	a0,a1
   15a90:	0000ce97          	auipc	t4,0xc
   15a94:	7ece8e93          	addi	t4,t4,2028 # 2227c <blanks.1>
   15a98:	ab9ff06f          	j	15550 <_vfiprintf_r+0xe3c>
   15a9c:	00158513          	addi	a0,a1,1
   15aa0:	0000ce97          	auipc	t4,0xc
   15aa4:	7dce8e93          	addi	t4,t4,2012 # 2227c <blanks.1>
   15aa8:	9ecff06f          	j	14c94 <_vfiprintf_r+0x580>
   15aac:	fff00b93          	li	s7,-1
   15ab0:	ec5fe06f          	j	14974 <_vfiprintf_r+0x260>
   15ab4:	000e8513          	mv	a0,t4
   15ab8:	0000cf17          	auipc	t5,0xc
   15abc:	7b4f0f13          	addi	t5,t5,1972 # 2226c <zeroes.0>
   15ac0:	f7cff06f          	j	1523c <_vfiprintf_r+0xb28>
   15ac4:	00032c83          	lw	s9,0(t1)
   15ac8:	00430313          	addi	t1,t1,4
   15acc:	000cd463          	bgez	s9,15ad4 <_vfiprintf_r+0x13c0>
   15ad0:	fff00c93          	li	s9,-1
   15ad4:	001bc603          	lbu	a2,1(s7)
   15ad8:	00058b93          	mv	s7,a1
   15adc:	dd1fe06f          	j	148ac <_vfiprintf_r+0x198>

00015ae0 <vfiprintf>:
   15ae0:	00060693          	mv	a3,a2
   15ae4:	00058613          	mv	a2,a1
   15ae8:	00050593          	mv	a1,a0
   15aec:	f0c1a503          	lw	a0,-244(gp) # 237cc <_impure_ptr>
   15af0:	c25fe06f          	j	14714 <_vfiprintf_r>

00015af4 <__sbprintf>:
   15af4:	00c59783          	lh	a5,12(a1)
   15af8:	00e5d703          	lhu	a4,14(a1)
   15afc:	0645a303          	lw	t1,100(a1)
   15b00:	ffd7f793          	andi	a5,a5,-3
   15b04:	01079793          	slli	a5,a5,0x10
   15b08:	01c5a883          	lw	a7,28(a1)
   15b0c:	0245a803          	lw	a6,36(a1)
   15b10:	01071713          	slli	a4,a4,0x10
   15b14:	0107d793          	srli	a5,a5,0x10
   15b18:	b8010113          	addi	sp,sp,-1152
   15b1c:	00e7e7b3          	or	a5,a5,a4
   15b20:	46812c23          	sw	s0,1144(sp)
   15b24:	40000713          	li	a4,1024
   15b28:	00f12a23          	sw	a5,20(sp)
   15b2c:	00058413          	mv	s0,a1
   15b30:	07010793          	addi	a5,sp,112
   15b34:	00810593          	addi	a1,sp,8
   15b38:	46912a23          	sw	s1,1140(sp)
   15b3c:	47212823          	sw	s2,1136(sp)
   15b40:	46112e23          	sw	ra,1148(sp)
   15b44:	00050913          	mv	s2,a0
   15b48:	06612623          	sw	t1,108(sp)
   15b4c:	03112223          	sw	a7,36(sp)
   15b50:	03012623          	sw	a6,44(sp)
   15b54:	00f12423          	sw	a5,8(sp)
   15b58:	00f12c23          	sw	a5,24(sp)
   15b5c:	00e12823          	sw	a4,16(sp)
   15b60:	00e12e23          	sw	a4,28(sp)
   15b64:	02012023          	sw	zero,32(sp)
   15b68:	badfe0ef          	jal	ra,14714 <_vfiprintf_r>
   15b6c:	00050493          	mv	s1,a0
   15b70:	02055c63          	bgez	a0,15ba8 <__sbprintf+0xb4>
   15b74:	01415783          	lhu	a5,20(sp)
   15b78:	0407f793          	andi	a5,a5,64
   15b7c:	00078863          	beqz	a5,15b8c <__sbprintf+0x98>
   15b80:	00c45783          	lhu	a5,12(s0)
   15b84:	0407e793          	ori	a5,a5,64
   15b88:	00f41623          	sh	a5,12(s0)
   15b8c:	47c12083          	lw	ra,1148(sp)
   15b90:	47812403          	lw	s0,1144(sp)
   15b94:	47012903          	lw	s2,1136(sp)
   15b98:	00048513          	mv	a0,s1
   15b9c:	47412483          	lw	s1,1140(sp)
   15ba0:	48010113          	addi	sp,sp,1152
   15ba4:	00008067          	ret
   15ba8:	00810593          	addi	a1,sp,8
   15bac:	00090513          	mv	a0,s2
   15bb0:	370000ef          	jal	ra,15f20 <_fflush_r>
   15bb4:	fc0500e3          	beqz	a0,15b74 <__sbprintf+0x80>
   15bb8:	fff00493          	li	s1,-1
   15bbc:	fb9ff06f          	j	15b74 <__sbprintf+0x80>

00015bc0 <_fclose_r>:
   15bc0:	ff010113          	addi	sp,sp,-16
   15bc4:	00112623          	sw	ra,12(sp)
   15bc8:	00812423          	sw	s0,8(sp)
   15bcc:	00912223          	sw	s1,4(sp)
   15bd0:	01212023          	sw	s2,0(sp)
   15bd4:	02058063          	beqz	a1,15bf4 <_fclose_r+0x34>
   15bd8:	00058413          	mv	s0,a1
   15bdc:	00050493          	mv	s1,a0
   15be0:	00050663          	beqz	a0,15bec <_fclose_r+0x2c>
   15be4:	03452783          	lw	a5,52(a0)
   15be8:	0c078c63          	beqz	a5,15cc0 <_fclose_r+0x100>
   15bec:	00c41783          	lh	a5,12(s0)
   15bf0:	02079263          	bnez	a5,15c14 <_fclose_r+0x54>
   15bf4:	00c12083          	lw	ra,12(sp)
   15bf8:	00812403          	lw	s0,8(sp)
   15bfc:	00000913          	li	s2,0
   15c00:	00412483          	lw	s1,4(sp)
   15c04:	00090513          	mv	a0,s2
   15c08:	00012903          	lw	s2,0(sp)
   15c0c:	01010113          	addi	sp,sp,16
   15c10:	00008067          	ret
   15c14:	00040593          	mv	a1,s0
   15c18:	00048513          	mv	a0,s1
   15c1c:	0b8000ef          	jal	ra,15cd4 <__sflush_r>
   15c20:	02c42783          	lw	a5,44(s0)
   15c24:	00050913          	mv	s2,a0
   15c28:	00078a63          	beqz	a5,15c3c <_fclose_r+0x7c>
   15c2c:	01c42583          	lw	a1,28(s0)
   15c30:	00048513          	mv	a0,s1
   15c34:	000780e7          	jalr	a5
   15c38:	06054463          	bltz	a0,15ca0 <_fclose_r+0xe0>
   15c3c:	00c45783          	lhu	a5,12(s0)
   15c40:	0807f793          	andi	a5,a5,128
   15c44:	06079663          	bnez	a5,15cb0 <_fclose_r+0xf0>
   15c48:	03042583          	lw	a1,48(s0)
   15c4c:	00058c63          	beqz	a1,15c64 <_fclose_r+0xa4>
   15c50:	04040793          	addi	a5,s0,64
   15c54:	00f58663          	beq	a1,a5,15c60 <_fclose_r+0xa0>
   15c58:	00048513          	mv	a0,s1
   15c5c:	c94fb0ef          	jal	ra,110f0 <_free_r>
   15c60:	02042823          	sw	zero,48(s0)
   15c64:	04442583          	lw	a1,68(s0)
   15c68:	00058863          	beqz	a1,15c78 <_fclose_r+0xb8>
   15c6c:	00048513          	mv	a0,s1
   15c70:	c80fb0ef          	jal	ra,110f0 <_free_r>
   15c74:	04042223          	sw	zero,68(s0)
   15c78:	9e5fa0ef          	jal	ra,1065c <__sfp_lock_acquire>
   15c7c:	00041623          	sh	zero,12(s0)
   15c80:	9e1fa0ef          	jal	ra,10660 <__sfp_lock_release>
   15c84:	00c12083          	lw	ra,12(sp)
   15c88:	00812403          	lw	s0,8(sp)
   15c8c:	00412483          	lw	s1,4(sp)
   15c90:	00090513          	mv	a0,s2
   15c94:	00012903          	lw	s2,0(sp)
   15c98:	01010113          	addi	sp,sp,16
   15c9c:	00008067          	ret
   15ca0:	00c45783          	lhu	a5,12(s0)
   15ca4:	fff00913          	li	s2,-1
   15ca8:	0807f793          	andi	a5,a5,128
   15cac:	f8078ee3          	beqz	a5,15c48 <_fclose_r+0x88>
   15cb0:	01042583          	lw	a1,16(s0)
   15cb4:	00048513          	mv	a0,s1
   15cb8:	c38fb0ef          	jal	ra,110f0 <_free_r>
   15cbc:	f8dff06f          	j	15c48 <_fclose_r+0x88>
   15cc0:	979fa0ef          	jal	ra,10638 <__sinit>
   15cc4:	f29ff06f          	j	15bec <_fclose_r+0x2c>

00015cc8 <fclose>:
   15cc8:	00050593          	mv	a1,a0
   15ccc:	f0c1a503          	lw	a0,-244(gp) # 237cc <_impure_ptr>
   15cd0:	ef1ff06f          	j	15bc0 <_fclose_r>

00015cd4 <__sflush_r>:
   15cd4:	00c59783          	lh	a5,12(a1)
   15cd8:	fe010113          	addi	sp,sp,-32
   15cdc:	00812c23          	sw	s0,24(sp)
   15ce0:	01312623          	sw	s3,12(sp)
   15ce4:	00112e23          	sw	ra,28(sp)
   15ce8:	00912a23          	sw	s1,20(sp)
   15cec:	01212823          	sw	s2,16(sp)
   15cf0:	0087f713          	andi	a4,a5,8
   15cf4:	00058413          	mv	s0,a1
   15cf8:	00050993          	mv	s3,a0
   15cfc:	12071263          	bnez	a4,15e20 <__sflush_r+0x14c>
   15d00:	00001737          	lui	a4,0x1
   15d04:	80070713          	addi	a4,a4,-2048 # 800 <exit-0xf894>
   15d08:	0045a683          	lw	a3,4(a1)
   15d0c:	00e7e733          	or	a4,a5,a4
   15d10:	00e59623          	sh	a4,12(a1)
   15d14:	18d05863          	blez	a3,15ea4 <__sflush_r+0x1d0>
   15d18:	02842803          	lw	a6,40(s0)
   15d1c:	0e080263          	beqz	a6,15e00 <__sflush_r+0x12c>
   15d20:	00c7d793          	srli	a5,a5,0xc
   15d24:	0009a483          	lw	s1,0(s3)
   15d28:	0017f793          	andi	a5,a5,1
   15d2c:	0009a023          	sw	zero,0(s3)
   15d30:	01c42583          	lw	a1,28(s0)
   15d34:	18079063          	bnez	a5,15eb4 <__sflush_r+0x1e0>
   15d38:	00000613          	li	a2,0
   15d3c:	00100693          	li	a3,1
   15d40:	00098513          	mv	a0,s3
   15d44:	000800e7          	jalr	a6
   15d48:	fff00793          	li	a5,-1
   15d4c:	00050613          	mv	a2,a0
   15d50:	1af50063          	beq	a0,a5,15ef0 <__sflush_r+0x21c>
   15d54:	00c41703          	lh	a4,12(s0)
   15d58:	02842803          	lw	a6,40(s0)
   15d5c:	01c42583          	lw	a1,28(s0)
   15d60:	00477713          	andi	a4,a4,4
   15d64:	00070e63          	beqz	a4,15d80 <__sflush_r+0xac>
   15d68:	00442703          	lw	a4,4(s0)
   15d6c:	03042783          	lw	a5,48(s0)
   15d70:	40e60633          	sub	a2,a2,a4
   15d74:	00078663          	beqz	a5,15d80 <__sflush_r+0xac>
   15d78:	03c42783          	lw	a5,60(s0)
   15d7c:	40f60633          	sub	a2,a2,a5
   15d80:	00000693          	li	a3,0
   15d84:	00098513          	mv	a0,s3
   15d88:	000800e7          	jalr	a6
   15d8c:	fff00793          	li	a5,-1
   15d90:	12f51663          	bne	a0,a5,15ebc <__sflush_r+0x1e8>
   15d94:	0009a683          	lw	a3,0(s3)
   15d98:	01d00793          	li	a5,29
   15d9c:	0cd7ee63          	bltu	a5,a3,15e78 <__sflush_r+0x1a4>
   15da0:	dfc00737          	lui	a4,0xdfc00
   15da4:	ffe70713          	addi	a4,a4,-2 # dfbffffe <__BSS_END__+0xdfbdc4fa>
   15da8:	40d75733          	sra	a4,a4,a3
   15dac:	00177713          	andi	a4,a4,1
   15db0:	00c41783          	lh	a5,12(s0)
   15db4:	0c071463          	bnez	a4,15e7c <__sflush_r+0x1a8>
   15db8:	01042603          	lw	a2,16(s0)
   15dbc:	fffff737          	lui	a4,0xfffff
   15dc0:	7ff70713          	addi	a4,a4,2047 # fffff7ff <__BSS_END__+0xfffdbcfb>
   15dc4:	00e7f733          	and	a4,a5,a4
   15dc8:	00c7d793          	srli	a5,a5,0xc
   15dcc:	00e41623          	sh	a4,12(s0)
   15dd0:	00042223          	sw	zero,4(s0)
   15dd4:	00c42023          	sw	a2,0(s0)
   15dd8:	0017f793          	andi	a5,a5,1
   15ddc:	12079c63          	bnez	a5,15f14 <__sflush_r+0x240>
   15de0:	03042583          	lw	a1,48(s0)
   15de4:	0099a023          	sw	s1,0(s3)
   15de8:	00058c63          	beqz	a1,15e00 <__sflush_r+0x12c>
   15dec:	04040793          	addi	a5,s0,64
   15df0:	00f58663          	beq	a1,a5,15dfc <__sflush_r+0x128>
   15df4:	00098513          	mv	a0,s3
   15df8:	af8fb0ef          	jal	ra,110f0 <_free_r>
   15dfc:	02042823          	sw	zero,48(s0)
   15e00:	00000513          	li	a0,0
   15e04:	01c12083          	lw	ra,28(sp)
   15e08:	01812403          	lw	s0,24(sp)
   15e0c:	01412483          	lw	s1,20(sp)
   15e10:	01012903          	lw	s2,16(sp)
   15e14:	00c12983          	lw	s3,12(sp)
   15e18:	02010113          	addi	sp,sp,32
   15e1c:	00008067          	ret
   15e20:	0105a903          	lw	s2,16(a1)
   15e24:	fc090ee3          	beqz	s2,15e00 <__sflush_r+0x12c>
   15e28:	0005a483          	lw	s1,0(a1)
   15e2c:	0037f793          	andi	a5,a5,3
   15e30:	0125a023          	sw	s2,0(a1)
   15e34:	412484b3          	sub	s1,s1,s2
   15e38:	00000713          	li	a4,0
   15e3c:	00079463          	bnez	a5,15e44 <__sflush_r+0x170>
   15e40:	0145a703          	lw	a4,20(a1)
   15e44:	00e42423          	sw	a4,8(s0)
   15e48:	00904863          	bgtz	s1,15e58 <__sflush_r+0x184>
   15e4c:	fb5ff06f          	j	15e00 <__sflush_r+0x12c>
   15e50:	00a90933          	add	s2,s2,a0
   15e54:	fa9056e3          	blez	s1,15e00 <__sflush_r+0x12c>
   15e58:	02442783          	lw	a5,36(s0)
   15e5c:	01c42583          	lw	a1,28(s0)
   15e60:	00048693          	mv	a3,s1
   15e64:	00090613          	mv	a2,s2
   15e68:	00098513          	mv	a0,s3
   15e6c:	000780e7          	jalr	a5
   15e70:	40a484b3          	sub	s1,s1,a0
   15e74:	fca04ee3          	bgtz	a0,15e50 <__sflush_r+0x17c>
   15e78:	00c41783          	lh	a5,12(s0)
   15e7c:	0407e793          	ori	a5,a5,64
   15e80:	01c12083          	lw	ra,28(sp)
   15e84:	00f41623          	sh	a5,12(s0)
   15e88:	01812403          	lw	s0,24(sp)
   15e8c:	01412483          	lw	s1,20(sp)
   15e90:	01012903          	lw	s2,16(sp)
   15e94:	00c12983          	lw	s3,12(sp)
   15e98:	fff00513          	li	a0,-1
   15e9c:	02010113          	addi	sp,sp,32
   15ea0:	00008067          	ret
   15ea4:	03c5a683          	lw	a3,60(a1)
   15ea8:	e6d048e3          	bgtz	a3,15d18 <__sflush_r+0x44>
   15eac:	00000513          	li	a0,0
   15eb0:	f55ff06f          	j	15e04 <__sflush_r+0x130>
   15eb4:	05042603          	lw	a2,80(s0)
   15eb8:	ea9ff06f          	j	15d60 <__sflush_r+0x8c>
   15ebc:	00c41783          	lh	a5,12(s0)
   15ec0:	01042683          	lw	a3,16(s0)
   15ec4:	fffff737          	lui	a4,0xfffff
   15ec8:	7ff70713          	addi	a4,a4,2047 # fffff7ff <__BSS_END__+0xfffdbcfb>
   15ecc:	00e7f733          	and	a4,a5,a4
   15ed0:	00c7d793          	srli	a5,a5,0xc
   15ed4:	00e41623          	sh	a4,12(s0)
   15ed8:	00042223          	sw	zero,4(s0)
   15edc:	00d42023          	sw	a3,0(s0)
   15ee0:	0017f793          	andi	a5,a5,1
   15ee4:	ee078ee3          	beqz	a5,15de0 <__sflush_r+0x10c>
   15ee8:	04a42823          	sw	a0,80(s0)
   15eec:	ef5ff06f          	j	15de0 <__sflush_r+0x10c>
   15ef0:	0009a783          	lw	a5,0(s3)
   15ef4:	e60780e3          	beqz	a5,15d54 <__sflush_r+0x80>
   15ef8:	01d00713          	li	a4,29
   15efc:	00e78663          	beq	a5,a4,15f08 <__sflush_r+0x234>
   15f00:	01600713          	li	a4,22
   15f04:	f6e79ae3          	bne	a5,a4,15e78 <__sflush_r+0x1a4>
   15f08:	0099a023          	sw	s1,0(s3)
   15f0c:	00000513          	li	a0,0
   15f10:	ef5ff06f          	j	15e04 <__sflush_r+0x130>
   15f14:	ec0696e3          	bnez	a3,15de0 <__sflush_r+0x10c>
   15f18:	04a42823          	sw	a0,80(s0)
   15f1c:	ec5ff06f          	j	15de0 <__sflush_r+0x10c>

00015f20 <_fflush_r>:
   15f20:	fe010113          	addi	sp,sp,-32
   15f24:	00812c23          	sw	s0,24(sp)
   15f28:	00112e23          	sw	ra,28(sp)
   15f2c:	00050413          	mv	s0,a0
   15f30:	00050663          	beqz	a0,15f3c <_fflush_r+0x1c>
   15f34:	03452783          	lw	a5,52(a0)
   15f38:	02078a63          	beqz	a5,15f6c <_fflush_r+0x4c>
   15f3c:	00c59783          	lh	a5,12(a1)
   15f40:	00079c63          	bnez	a5,15f58 <_fflush_r+0x38>
   15f44:	01c12083          	lw	ra,28(sp)
   15f48:	01812403          	lw	s0,24(sp)
   15f4c:	00000513          	li	a0,0
   15f50:	02010113          	addi	sp,sp,32
   15f54:	00008067          	ret
   15f58:	00040513          	mv	a0,s0
   15f5c:	01812403          	lw	s0,24(sp)
   15f60:	01c12083          	lw	ra,28(sp)
   15f64:	02010113          	addi	sp,sp,32
   15f68:	d6dff06f          	j	15cd4 <__sflush_r>
   15f6c:	00b12623          	sw	a1,12(sp)
   15f70:	ec8fa0ef          	jal	ra,10638 <__sinit>
   15f74:	00c12583          	lw	a1,12(sp)
   15f78:	fc5ff06f          	j	15f3c <_fflush_r+0x1c>

00015f7c <fflush>:
   15f7c:	06050063          	beqz	a0,15fdc <fflush+0x60>
   15f80:	00050593          	mv	a1,a0
   15f84:	f0c1a503          	lw	a0,-244(gp) # 237cc <_impure_ptr>
   15f88:	00050663          	beqz	a0,15f94 <fflush+0x18>
   15f8c:	03452783          	lw	a5,52(a0)
   15f90:	00078c63          	beqz	a5,15fa8 <fflush+0x2c>
   15f94:	00c59783          	lh	a5,12(a1)
   15f98:	00079663          	bnez	a5,15fa4 <fflush+0x28>
   15f9c:	00000513          	li	a0,0
   15fa0:	00008067          	ret
   15fa4:	d31ff06f          	j	15cd4 <__sflush_r>
   15fa8:	fe010113          	addi	sp,sp,-32
   15fac:	00b12623          	sw	a1,12(sp)
   15fb0:	00a12423          	sw	a0,8(sp)
   15fb4:	00112e23          	sw	ra,28(sp)
   15fb8:	e80fa0ef          	jal	ra,10638 <__sinit>
   15fbc:	00c12583          	lw	a1,12(sp)
   15fc0:	00812503          	lw	a0,8(sp)
   15fc4:	00c59783          	lh	a5,12(a1)
   15fc8:	02079863          	bnez	a5,15ff8 <fflush+0x7c>
   15fcc:	01c12083          	lw	ra,28(sp)
   15fd0:	00000513          	li	a0,0
   15fd4:	02010113          	addi	sp,sp,32
   15fd8:	00008067          	ret
   15fdc:	0000d617          	auipc	a2,0xd
   15fe0:	0e460613          	addi	a2,a2,228 # 230c0 <__sglue>
   15fe4:	00000597          	auipc	a1,0x0
   15fe8:	f3c58593          	addi	a1,a1,-196 # 15f20 <_fflush_r>
   15fec:	0000d517          	auipc	a0,0xd
   15ff0:	0e450513          	addi	a0,a0,228 # 230d0 <_impure_data>
   15ff4:	ea0fa06f          	j	10694 <_fwalk_sglue>
   15ff8:	01c12083          	lw	ra,28(sp)
   15ffc:	02010113          	addi	sp,sp,32
   16000:	cd5ff06f          	j	15cd4 <__sflush_r>

00016004 <__sfvwrite_r>:
   16004:	00862783          	lw	a5,8(a2)
   16008:	30078a63          	beqz	a5,1631c <__sfvwrite_r+0x318>
   1600c:	00c59683          	lh	a3,12(a1)
   16010:	fd010113          	addi	sp,sp,-48
   16014:	02812423          	sw	s0,40(sp)
   16018:	01412c23          	sw	s4,24(sp)
   1601c:	01612823          	sw	s6,16(sp)
   16020:	02112623          	sw	ra,44(sp)
   16024:	02912223          	sw	s1,36(sp)
   16028:	03212023          	sw	s2,32(sp)
   1602c:	01312e23          	sw	s3,28(sp)
   16030:	01512a23          	sw	s5,20(sp)
   16034:	01712623          	sw	s7,12(sp)
   16038:	01812423          	sw	s8,8(sp)
   1603c:	01912223          	sw	s9,4(sp)
   16040:	0086f793          	andi	a5,a3,8
   16044:	00060b13          	mv	s6,a2
   16048:	00050a13          	mv	s4,a0
   1604c:	00058413          	mv	s0,a1
   16050:	08078663          	beqz	a5,160dc <__sfvwrite_r+0xd8>
   16054:	0105a783          	lw	a5,16(a1)
   16058:	08078263          	beqz	a5,160dc <__sfvwrite_r+0xd8>
   1605c:	0026f793          	andi	a5,a3,2
   16060:	000b2483          	lw	s1,0(s6)
   16064:	08078c63          	beqz	a5,160fc <__sfvwrite_r+0xf8>
   16068:	02442783          	lw	a5,36(s0)
   1606c:	01c42583          	lw	a1,28(s0)
   16070:	80000ab7          	lui	s5,0x80000
   16074:	00000993          	li	s3,0
   16078:	00000913          	li	s2,0
   1607c:	c00aca93          	xori	s5,s5,-1024
   16080:	00098613          	mv	a2,s3
   16084:	000a0513          	mv	a0,s4
   16088:	04090263          	beqz	s2,160cc <__sfvwrite_r+0xc8>
   1608c:	00090693          	mv	a3,s2
   16090:	012af463          	bgeu	s5,s2,16098 <__sfvwrite_r+0x94>
   16094:	000a8693          	mv	a3,s5
   16098:	000780e7          	jalr	a5
   1609c:	26a05663          	blez	a0,16308 <__sfvwrite_r+0x304>
   160a0:	008b2783          	lw	a5,8(s6)
   160a4:	00a989b3          	add	s3,s3,a0
   160a8:	40a90933          	sub	s2,s2,a0
   160ac:	40a787b3          	sub	a5,a5,a0
   160b0:	00fb2423          	sw	a5,8(s6)
   160b4:	20078663          	beqz	a5,162c0 <__sfvwrite_r+0x2bc>
   160b8:	02442783          	lw	a5,36(s0)
   160bc:	01c42583          	lw	a1,28(s0)
   160c0:	00098613          	mv	a2,s3
   160c4:	000a0513          	mv	a0,s4
   160c8:	fc0912e3          	bnez	s2,1608c <__sfvwrite_r+0x88>
   160cc:	0004a983          	lw	s3,0(s1)
   160d0:	0044a903          	lw	s2,4(s1)
   160d4:	00848493          	addi	s1,s1,8
   160d8:	fa9ff06f          	j	16080 <__sfvwrite_r+0x7c>
   160dc:	00040593          	mv	a1,s0
   160e0:	000a0513          	mv	a0,s4
   160e4:	3c0000ef          	jal	ra,164a4 <__swsetup_r>
   160e8:	22051663          	bnez	a0,16314 <__sfvwrite_r+0x310>
   160ec:	00c41683          	lh	a3,12(s0)
   160f0:	000b2483          	lw	s1,0(s6)
   160f4:	0026f793          	andi	a5,a3,2
   160f8:	f60798e3          	bnez	a5,16068 <__sfvwrite_r+0x64>
   160fc:	0016f793          	andi	a5,a3,1
   16100:	12079c63          	bnez	a5,16238 <__sfvwrite_r+0x234>
   16104:	00042783          	lw	a5,0(s0)
   16108:	00842703          	lw	a4,8(s0)
   1610c:	80000ab7          	lui	s5,0x80000
   16110:	00000b93          	li	s7,0
   16114:	00000993          	li	s3,0
   16118:	fffaca93          	not	s5,s5
   1611c:	00078513          	mv	a0,a5
   16120:	00070c13          	mv	s8,a4
   16124:	10098263          	beqz	s3,16228 <__sfvwrite_r+0x224>
   16128:	2006f613          	andi	a2,a3,512
   1612c:	24060c63          	beqz	a2,16384 <__sfvwrite_r+0x380>
   16130:	00070c93          	mv	s9,a4
   16134:	2ee9e663          	bltu	s3,a4,16420 <__sfvwrite_r+0x41c>
   16138:	4806f713          	andi	a4,a3,1152
   1613c:	08070a63          	beqz	a4,161d0 <__sfvwrite_r+0x1cc>
   16140:	01442603          	lw	a2,20(s0)
   16144:	01042583          	lw	a1,16(s0)
   16148:	00161713          	slli	a4,a2,0x1
   1614c:	00c70733          	add	a4,a4,a2
   16150:	40b78933          	sub	s2,a5,a1
   16154:	01f75c13          	srli	s8,a4,0x1f
   16158:	00ec0c33          	add	s8,s8,a4
   1615c:	00190793          	addi	a5,s2,1
   16160:	401c5c13          	srai	s8,s8,0x1
   16164:	013787b3          	add	a5,a5,s3
   16168:	000c0613          	mv	a2,s8
   1616c:	00fc7663          	bgeu	s8,a5,16178 <__sfvwrite_r+0x174>
   16170:	00078c13          	mv	s8,a5
   16174:	00078613          	mv	a2,a5
   16178:	4006f693          	andi	a3,a3,1024
   1617c:	2c068e63          	beqz	a3,16458 <__sfvwrite_r+0x454>
   16180:	00060593          	mv	a1,a2
   16184:	000a0513          	mv	a0,s4
   16188:	a6cfb0ef          	jal	ra,113f4 <_malloc_r>
   1618c:	00050c93          	mv	s9,a0
   16190:	30050263          	beqz	a0,16494 <__sfvwrite_r+0x490>
   16194:	01042583          	lw	a1,16(s0)
   16198:	00090613          	mv	a2,s2
   1619c:	b49fa0ef          	jal	ra,10ce4 <memcpy>
   161a0:	00c45783          	lhu	a5,12(s0)
   161a4:	b7f7f793          	andi	a5,a5,-1153
   161a8:	0807e793          	ori	a5,a5,128
   161ac:	00f41623          	sh	a5,12(s0)
   161b0:	012c8533          	add	a0,s9,s2
   161b4:	412c07b3          	sub	a5,s8,s2
   161b8:	01942823          	sw	s9,16(s0)
   161bc:	01842a23          	sw	s8,20(s0)
   161c0:	00a42023          	sw	a0,0(s0)
   161c4:	00098c13          	mv	s8,s3
   161c8:	00f42423          	sw	a5,8(s0)
   161cc:	00098c93          	mv	s9,s3
   161d0:	000c8613          	mv	a2,s9
   161d4:	000b8593          	mv	a1,s7
   161d8:	0d5000ef          	jal	ra,16aac <memmove>
   161dc:	00842703          	lw	a4,8(s0)
   161e0:	00042783          	lw	a5,0(s0)
   161e4:	00098913          	mv	s2,s3
   161e8:	41870733          	sub	a4,a4,s8
   161ec:	019787b3          	add	a5,a5,s9
   161f0:	00e42423          	sw	a4,8(s0)
   161f4:	00f42023          	sw	a5,0(s0)
   161f8:	00000993          	li	s3,0
   161fc:	008b2783          	lw	a5,8(s6)
   16200:	012b8bb3          	add	s7,s7,s2
   16204:	412787b3          	sub	a5,a5,s2
   16208:	00fb2423          	sw	a5,8(s6)
   1620c:	0a078a63          	beqz	a5,162c0 <__sfvwrite_r+0x2bc>
   16210:	00042783          	lw	a5,0(s0)
   16214:	00842703          	lw	a4,8(s0)
   16218:	00c41683          	lh	a3,12(s0)
   1621c:	00078513          	mv	a0,a5
   16220:	00070c13          	mv	s8,a4
   16224:	f00992e3          	bnez	s3,16128 <__sfvwrite_r+0x124>
   16228:	0004ab83          	lw	s7,0(s1)
   1622c:	0044a983          	lw	s3,4(s1)
   16230:	00848493          	addi	s1,s1,8
   16234:	ee9ff06f          	j	1611c <__sfvwrite_r+0x118>
   16238:	00000a93          	li	s5,0
   1623c:	00000513          	li	a0,0
   16240:	00000c13          	li	s8,0
   16244:	00000993          	li	s3,0
   16248:	0c098e63          	beqz	s3,16324 <__sfvwrite_r+0x320>
   1624c:	0e050663          	beqz	a0,16338 <__sfvwrite_r+0x334>
   16250:	000a8793          	mv	a5,s5
   16254:	00098b93          	mv	s7,s3
   16258:	0137f463          	bgeu	a5,s3,16260 <__sfvwrite_r+0x25c>
   1625c:	00078b93          	mv	s7,a5
   16260:	00042503          	lw	a0,0(s0)
   16264:	01042783          	lw	a5,16(s0)
   16268:	00842903          	lw	s2,8(s0)
   1626c:	01442683          	lw	a3,20(s0)
   16270:	00a7f663          	bgeu	a5,a0,1627c <__sfvwrite_r+0x278>
   16274:	00d90933          	add	s2,s2,a3
   16278:	0f794063          	blt	s2,s7,16358 <__sfvwrite_r+0x354>
   1627c:	1adbc863          	blt	s7,a3,1642c <__sfvwrite_r+0x428>
   16280:	02442783          	lw	a5,36(s0)
   16284:	01c42583          	lw	a1,28(s0)
   16288:	000c0613          	mv	a2,s8
   1628c:	000a0513          	mv	a0,s4
   16290:	000780e7          	jalr	a5
   16294:	00050913          	mv	s2,a0
   16298:	06a05863          	blez	a0,16308 <__sfvwrite_r+0x304>
   1629c:	412a8ab3          	sub	s5,s5,s2
   162a0:	00100513          	li	a0,1
   162a4:	040a8a63          	beqz	s5,162f8 <__sfvwrite_r+0x2f4>
   162a8:	008b2783          	lw	a5,8(s6)
   162ac:	012c0c33          	add	s8,s8,s2
   162b0:	412989b3          	sub	s3,s3,s2
   162b4:	412787b3          	sub	a5,a5,s2
   162b8:	00fb2423          	sw	a5,8(s6)
   162bc:	f80796e3          	bnez	a5,16248 <__sfvwrite_r+0x244>
   162c0:	00000513          	li	a0,0
   162c4:	02c12083          	lw	ra,44(sp)
   162c8:	02812403          	lw	s0,40(sp)
   162cc:	02412483          	lw	s1,36(sp)
   162d0:	02012903          	lw	s2,32(sp)
   162d4:	01c12983          	lw	s3,28(sp)
   162d8:	01812a03          	lw	s4,24(sp)
   162dc:	01412a83          	lw	s5,20(sp)
   162e0:	01012b03          	lw	s6,16(sp)
   162e4:	00c12b83          	lw	s7,12(sp)
   162e8:	00812c03          	lw	s8,8(sp)
   162ec:	00412c83          	lw	s9,4(sp)
   162f0:	03010113          	addi	sp,sp,48
   162f4:	00008067          	ret
   162f8:	00040593          	mv	a1,s0
   162fc:	000a0513          	mv	a0,s4
   16300:	c21ff0ef          	jal	ra,15f20 <_fflush_r>
   16304:	fa0502e3          	beqz	a0,162a8 <__sfvwrite_r+0x2a4>
   16308:	00c41783          	lh	a5,12(s0)
   1630c:	0407e793          	ori	a5,a5,64
   16310:	00f41623          	sh	a5,12(s0)
   16314:	fff00513          	li	a0,-1
   16318:	fadff06f          	j	162c4 <__sfvwrite_r+0x2c0>
   1631c:	00000513          	li	a0,0
   16320:	00008067          	ret
   16324:	0044a983          	lw	s3,4(s1)
   16328:	00048793          	mv	a5,s1
   1632c:	00848493          	addi	s1,s1,8
   16330:	fe098ae3          	beqz	s3,16324 <__sfvwrite_r+0x320>
   16334:	0007ac03          	lw	s8,0(a5)
   16338:	00098613          	mv	a2,s3
   1633c:	00a00593          	li	a1,10
   16340:	000c0513          	mv	a0,s8
   16344:	434000ef          	jal	ra,16778 <memchr>
   16348:	14050063          	beqz	a0,16488 <__sfvwrite_r+0x484>
   1634c:	00150513          	addi	a0,a0,1
   16350:	41850ab3          	sub	s5,a0,s8
   16354:	efdff06f          	j	16250 <__sfvwrite_r+0x24c>
   16358:	000c0593          	mv	a1,s8
   1635c:	00090613          	mv	a2,s2
   16360:	74c000ef          	jal	ra,16aac <memmove>
   16364:	00042783          	lw	a5,0(s0)
   16368:	00040593          	mv	a1,s0
   1636c:	000a0513          	mv	a0,s4
   16370:	012787b3          	add	a5,a5,s2
   16374:	00f42023          	sw	a5,0(s0)
   16378:	ba9ff0ef          	jal	ra,15f20 <_fflush_r>
   1637c:	f20500e3          	beqz	a0,1629c <__sfvwrite_r+0x298>
   16380:	f89ff06f          	j	16308 <__sfvwrite_r+0x304>
   16384:	01042683          	lw	a3,16(s0)
   16388:	04f6e463          	bltu	a3,a5,163d0 <__sfvwrite_r+0x3cc>
   1638c:	01442583          	lw	a1,20(s0)
   16390:	04b9e063          	bltu	s3,a1,163d0 <__sfvwrite_r+0x3cc>
   16394:	00098913          	mv	s2,s3
   16398:	013af463          	bgeu	s5,s3,163a0 <__sfvwrite_r+0x39c>
   1639c:	000a8913          	mv	s2,s5
   163a0:	00090513          	mv	a0,s2
   163a4:	1450b0ef          	jal	ra,21ce8 <__modsi3>
   163a8:	02442783          	lw	a5,36(s0)
   163ac:	01c42583          	lw	a1,28(s0)
   163b0:	40a906b3          	sub	a3,s2,a0
   163b4:	000b8613          	mv	a2,s7
   163b8:	000a0513          	mv	a0,s4
   163bc:	000780e7          	jalr	a5
   163c0:	00050913          	mv	s2,a0
   163c4:	f4a052e3          	blez	a0,16308 <__sfvwrite_r+0x304>
   163c8:	412989b3          	sub	s3,s3,s2
   163cc:	e31ff06f          	j	161fc <__sfvwrite_r+0x1f8>
   163d0:	00070913          	mv	s2,a4
   163d4:	00e9f463          	bgeu	s3,a4,163dc <__sfvwrite_r+0x3d8>
   163d8:	00098913          	mv	s2,s3
   163dc:	00078513          	mv	a0,a5
   163e0:	00090613          	mv	a2,s2
   163e4:	000b8593          	mv	a1,s7
   163e8:	6c4000ef          	jal	ra,16aac <memmove>
   163ec:	00842703          	lw	a4,8(s0)
   163f0:	00042783          	lw	a5,0(s0)
   163f4:	41270733          	sub	a4,a4,s2
   163f8:	012787b3          	add	a5,a5,s2
   163fc:	00e42423          	sw	a4,8(s0)
   16400:	00f42023          	sw	a5,0(s0)
   16404:	fc0712e3          	bnez	a4,163c8 <__sfvwrite_r+0x3c4>
   16408:	00040593          	mv	a1,s0
   1640c:	000a0513          	mv	a0,s4
   16410:	b11ff0ef          	jal	ra,15f20 <_fflush_r>
   16414:	ee051ae3          	bnez	a0,16308 <__sfvwrite_r+0x304>
   16418:	412989b3          	sub	s3,s3,s2
   1641c:	de1ff06f          	j	161fc <__sfvwrite_r+0x1f8>
   16420:	00098c13          	mv	s8,s3
   16424:	00098c93          	mv	s9,s3
   16428:	da9ff06f          	j	161d0 <__sfvwrite_r+0x1cc>
   1642c:	000b8613          	mv	a2,s7
   16430:	000c0593          	mv	a1,s8
   16434:	678000ef          	jal	ra,16aac <memmove>
   16438:	00842703          	lw	a4,8(s0)
   1643c:	00042783          	lw	a5,0(s0)
   16440:	000b8913          	mv	s2,s7
   16444:	41770733          	sub	a4,a4,s7
   16448:	017787b3          	add	a5,a5,s7
   1644c:	00e42423          	sw	a4,8(s0)
   16450:	00f42023          	sw	a5,0(s0)
   16454:	e49ff06f          	j	1629c <__sfvwrite_r+0x298>
   16458:	000a0513          	mv	a0,s4
   1645c:	294040ef          	jal	ra,1a6f0 <_realloc_r>
   16460:	00050c93          	mv	s9,a0
   16464:	d40516e3          	bnez	a0,161b0 <__sfvwrite_r+0x1ac>
   16468:	01042583          	lw	a1,16(s0)
   1646c:	000a0513          	mv	a0,s4
   16470:	c81fa0ef          	jal	ra,110f0 <_free_r>
   16474:	00c41783          	lh	a5,12(s0)
   16478:	00c00713          	li	a4,12
   1647c:	00ea2023          	sw	a4,0(s4)
   16480:	f7f7f793          	andi	a5,a5,-129
   16484:	e89ff06f          	j	1630c <__sfvwrite_r+0x308>
   16488:	00198793          	addi	a5,s3,1
   1648c:	00078a93          	mv	s5,a5
   16490:	dc5ff06f          	j	16254 <__sfvwrite_r+0x250>
   16494:	00c00713          	li	a4,12
   16498:	00c41783          	lh	a5,12(s0)
   1649c:	00ea2023          	sw	a4,0(s4)
   164a0:	e6dff06f          	j	1630c <__sfvwrite_r+0x308>

000164a4 <__swsetup_r>:
   164a4:	ff010113          	addi	sp,sp,-16
   164a8:	00812423          	sw	s0,8(sp)
   164ac:	00912223          	sw	s1,4(sp)
   164b0:	00112623          	sw	ra,12(sp)
   164b4:	f0c1a783          	lw	a5,-244(gp) # 237cc <_impure_ptr>
   164b8:	00050493          	mv	s1,a0
   164bc:	00058413          	mv	s0,a1
   164c0:	00078663          	beqz	a5,164cc <__swsetup_r+0x28>
   164c4:	0347a703          	lw	a4,52(a5)
   164c8:	0e070c63          	beqz	a4,165c0 <__swsetup_r+0x11c>
   164cc:	00c41783          	lh	a5,12(s0)
   164d0:	0087f713          	andi	a4,a5,8
   164d4:	06070a63          	beqz	a4,16548 <__swsetup_r+0xa4>
   164d8:	01042703          	lw	a4,16(s0)
   164dc:	08070663          	beqz	a4,16568 <__swsetup_r+0xc4>
   164e0:	0017f693          	andi	a3,a5,1
   164e4:	02068863          	beqz	a3,16514 <__swsetup_r+0x70>
   164e8:	01442683          	lw	a3,20(s0)
   164ec:	00042423          	sw	zero,8(s0)
   164f0:	00000513          	li	a0,0
   164f4:	40d006b3          	neg	a3,a3
   164f8:	00d42c23          	sw	a3,24(s0)
   164fc:	02070a63          	beqz	a4,16530 <__swsetup_r+0x8c>
   16500:	00c12083          	lw	ra,12(sp)
   16504:	00812403          	lw	s0,8(sp)
   16508:	00412483          	lw	s1,4(sp)
   1650c:	01010113          	addi	sp,sp,16
   16510:	00008067          	ret
   16514:	0027f693          	andi	a3,a5,2
   16518:	00000613          	li	a2,0
   1651c:	00069463          	bnez	a3,16524 <__swsetup_r+0x80>
   16520:	01442603          	lw	a2,20(s0)
   16524:	00c42423          	sw	a2,8(s0)
   16528:	00000513          	li	a0,0
   1652c:	fc071ae3          	bnez	a4,16500 <__swsetup_r+0x5c>
   16530:	0807f713          	andi	a4,a5,128
   16534:	fc0706e3          	beqz	a4,16500 <__swsetup_r+0x5c>
   16538:	0407e793          	ori	a5,a5,64
   1653c:	00f41623          	sh	a5,12(s0)
   16540:	fff00513          	li	a0,-1
   16544:	fbdff06f          	j	16500 <__swsetup_r+0x5c>
   16548:	0107f713          	andi	a4,a5,16
   1654c:	08070063          	beqz	a4,165cc <__swsetup_r+0x128>
   16550:	0047f713          	andi	a4,a5,4
   16554:	02071c63          	bnez	a4,1658c <__swsetup_r+0xe8>
   16558:	01042703          	lw	a4,16(s0)
   1655c:	0087e793          	ori	a5,a5,8
   16560:	00f41623          	sh	a5,12(s0)
   16564:	f6071ee3          	bnez	a4,164e0 <__swsetup_r+0x3c>
   16568:	2807f693          	andi	a3,a5,640
   1656c:	20000613          	li	a2,512
   16570:	f6c688e3          	beq	a3,a2,164e0 <__swsetup_r+0x3c>
   16574:	00040593          	mv	a1,s0
   16578:	00048513          	mv	a0,s1
   1657c:	005040ef          	jal	ra,1ad80 <__smakebuf_r>
   16580:	00c41783          	lh	a5,12(s0)
   16584:	01042703          	lw	a4,16(s0)
   16588:	f59ff06f          	j	164e0 <__swsetup_r+0x3c>
   1658c:	03042583          	lw	a1,48(s0)
   16590:	00058e63          	beqz	a1,165ac <__swsetup_r+0x108>
   16594:	04040713          	addi	a4,s0,64
   16598:	00e58863          	beq	a1,a4,165a8 <__swsetup_r+0x104>
   1659c:	00048513          	mv	a0,s1
   165a0:	b51fa0ef          	jal	ra,110f0 <_free_r>
   165a4:	00c41783          	lh	a5,12(s0)
   165a8:	02042823          	sw	zero,48(s0)
   165ac:	01042703          	lw	a4,16(s0)
   165b0:	fdb7f793          	andi	a5,a5,-37
   165b4:	00042223          	sw	zero,4(s0)
   165b8:	00e42023          	sw	a4,0(s0)
   165bc:	fa1ff06f          	j	1655c <__swsetup_r+0xb8>
   165c0:	00078513          	mv	a0,a5
   165c4:	874fa0ef          	jal	ra,10638 <__sinit>
   165c8:	f05ff06f          	j	164cc <__swsetup_r+0x28>
   165cc:	00900713          	li	a4,9
   165d0:	00e4a023          	sw	a4,0(s1)
   165d4:	0407e793          	ori	a5,a5,64
   165d8:	f65ff06f          	j	1653c <__swsetup_r+0x98>

000165dc <__fputwc>:
   165dc:	fe010113          	addi	sp,sp,-32
   165e0:	00812c23          	sw	s0,24(sp)
   165e4:	00912a23          	sw	s1,20(sp)
   165e8:	01212823          	sw	s2,16(sp)
   165ec:	00112e23          	sw	ra,28(sp)
   165f0:	00050913          	mv	s2,a0
   165f4:	00058493          	mv	s1,a1
   165f8:	00060413          	mv	s0,a2
   165fc:	368000ef          	jal	ra,16964 <__locale_mb_cur_max>
   16600:	00100793          	li	a5,1
   16604:	00f51c63          	bne	a0,a5,1661c <__fputwc+0x40>
   16608:	fff48793          	addi	a5,s1,-1
   1660c:	0fe00713          	li	a4,254
   16610:	00f76663          	bltu	a4,a5,1661c <__fputwc+0x40>
   16614:	00910623          	sb	s1,12(sp)
   16618:	0240006f          	j	1663c <__fputwc+0x60>
   1661c:	05c40693          	addi	a3,s0,92
   16620:	00048613          	mv	a2,s1
   16624:	00c10593          	addi	a1,sp,12
   16628:	00090513          	mv	a0,s2
   1662c:	654040ef          	jal	ra,1ac80 <_wcrtomb_r>
   16630:	fff00793          	li	a5,-1
   16634:	08f50463          	beq	a0,a5,166bc <__fputwc+0xe0>
   16638:	02050c63          	beqz	a0,16670 <__fputwc+0x94>
   1663c:	00842783          	lw	a5,8(s0)
   16640:	00c14583          	lbu	a1,12(sp)
   16644:	fff78793          	addi	a5,a5,-1
   16648:	00f42423          	sw	a5,8(s0)
   1664c:	0007da63          	bgez	a5,16660 <__fputwc+0x84>
   16650:	01842703          	lw	a4,24(s0)
   16654:	02e7cc63          	blt	a5,a4,1668c <__fputwc+0xb0>
   16658:	00a00793          	li	a5,10
   1665c:	02f58863          	beq	a1,a5,1668c <__fputwc+0xb0>
   16660:	00042783          	lw	a5,0(s0)
   16664:	00178713          	addi	a4,a5,1
   16668:	00e42023          	sw	a4,0(s0)
   1666c:	00b78023          	sb	a1,0(a5)
   16670:	01c12083          	lw	ra,28(sp)
   16674:	01812403          	lw	s0,24(sp)
   16678:	01012903          	lw	s2,16(sp)
   1667c:	00048513          	mv	a0,s1
   16680:	01412483          	lw	s1,20(sp)
   16684:	02010113          	addi	sp,sp,32
   16688:	00008067          	ret
   1668c:	00040613          	mv	a2,s0
   16690:	00090513          	mv	a0,s2
   16694:	149040ef          	jal	ra,1afdc <__swbuf_r>
   16698:	fff00793          	li	a5,-1
   1669c:	fcf51ae3          	bne	a0,a5,16670 <__fputwc+0x94>
   166a0:	fff00513          	li	a0,-1
   166a4:	01c12083          	lw	ra,28(sp)
   166a8:	01812403          	lw	s0,24(sp)
   166ac:	01412483          	lw	s1,20(sp)
   166b0:	01012903          	lw	s2,16(sp)
   166b4:	02010113          	addi	sp,sp,32
   166b8:	00008067          	ret
   166bc:	00c45783          	lhu	a5,12(s0)
   166c0:	fff00513          	li	a0,-1
   166c4:	0407e793          	ori	a5,a5,64
   166c8:	00f41623          	sh	a5,12(s0)
   166cc:	fd9ff06f          	j	166a4 <__fputwc+0xc8>

000166d0 <_fputwc_r>:
   166d0:	00c61783          	lh	a5,12(a2)
   166d4:	01279713          	slli	a4,a5,0x12
   166d8:	02074063          	bltz	a4,166f8 <_fputwc_r+0x28>
   166dc:	06462703          	lw	a4,100(a2)
   166e0:	000026b7          	lui	a3,0x2
   166e4:	00d7e7b3          	or	a5,a5,a3
   166e8:	000026b7          	lui	a3,0x2
   166ec:	00d76733          	or	a4,a4,a3
   166f0:	00f61623          	sh	a5,12(a2)
   166f4:	06e62223          	sw	a4,100(a2)
   166f8:	ee5ff06f          	j	165dc <__fputwc>

000166fc <fputwc>:
   166fc:	fe010113          	addi	sp,sp,-32
   16700:	00812c23          	sw	s0,24(sp)
   16704:	00112e23          	sw	ra,28(sp)
   16708:	f0c1a403          	lw	s0,-244(gp) # 237cc <_impure_ptr>
   1670c:	00058613          	mv	a2,a1
   16710:	00050593          	mv	a1,a0
   16714:	00040663          	beqz	s0,16720 <fputwc+0x24>
   16718:	03442783          	lw	a5,52(s0)
   1671c:	04078063          	beqz	a5,1675c <fputwc+0x60>
   16720:	00c61783          	lh	a5,12(a2)
   16724:	01279713          	slli	a4,a5,0x12
   16728:	02074063          	bltz	a4,16748 <fputwc+0x4c>
   1672c:	06462703          	lw	a4,100(a2)
   16730:	000026b7          	lui	a3,0x2
   16734:	00d7e7b3          	or	a5,a5,a3
   16738:	000026b7          	lui	a3,0x2
   1673c:	00d76733          	or	a4,a4,a3
   16740:	00f61623          	sh	a5,12(a2)
   16744:	06e62223          	sw	a4,100(a2)
   16748:	00040513          	mv	a0,s0
   1674c:	01812403          	lw	s0,24(sp)
   16750:	01c12083          	lw	ra,28(sp)
   16754:	02010113          	addi	sp,sp,32
   16758:	e85ff06f          	j	165dc <__fputwc>
   1675c:	00a12423          	sw	a0,8(sp)
   16760:	00040513          	mv	a0,s0
   16764:	00c12623          	sw	a2,12(sp)
   16768:	ed1f90ef          	jal	ra,10638 <__sinit>
   1676c:	00c12603          	lw	a2,12(sp)
   16770:	00812583          	lw	a1,8(sp)
   16774:	fadff06f          	j	16720 <fputwc+0x24>

00016778 <memchr>:
   16778:	00357793          	andi	a5,a0,3
   1677c:	0ff5f693          	zext.b	a3,a1
   16780:	02078e63          	beqz	a5,167bc <memchr+0x44>
   16784:	fff60793          	addi	a5,a2,-1
   16788:	02060663          	beqz	a2,167b4 <memchr+0x3c>
   1678c:	fff00613          	li	a2,-1
   16790:	0180006f          	j	167a8 <memchr+0x30>
   16794:	00150513          	addi	a0,a0,1
   16798:	00357713          	andi	a4,a0,3
   1679c:	02070263          	beqz	a4,167c0 <memchr+0x48>
   167a0:	fff78793          	addi	a5,a5,-1
   167a4:	00c78863          	beq	a5,a2,167b4 <memchr+0x3c>
   167a8:	00054703          	lbu	a4,0(a0)
   167ac:	fed714e3          	bne	a4,a3,16794 <memchr+0x1c>
   167b0:	00008067          	ret
   167b4:	00000513          	li	a0,0
   167b8:	00008067          	ret
   167bc:	00060793          	mv	a5,a2
   167c0:	00300713          	li	a4,3
   167c4:	04f77c63          	bgeu	a4,a5,1681c <memchr+0xa4>
   167c8:	0ff5f593          	zext.b	a1,a1
   167cc:	00859713          	slli	a4,a1,0x8
   167d0:	00b705b3          	add	a1,a4,a1
   167d4:	01059713          	slli	a4,a1,0x10
   167d8:	feff08b7          	lui	a7,0xfeff0
   167dc:	80808837          	lui	a6,0x80808
   167e0:	00e585b3          	add	a1,a1,a4
   167e4:	eff88893          	addi	a7,a7,-257 # fefefeff <__BSS_END__+0xfefcc3fb>
   167e8:	08080813          	addi	a6,a6,128 # 80808080 <__BSS_END__+0x807e457c>
   167ec:	00300313          	li	t1,3
   167f0:	0100006f          	j	16800 <memchr+0x88>
   167f4:	ffc78793          	addi	a5,a5,-4
   167f8:	00450513          	addi	a0,a0,4
   167fc:	02f37063          	bgeu	t1,a5,1681c <memchr+0xa4>
   16800:	00052703          	lw	a4,0(a0)
   16804:	00e5c733          	xor	a4,a1,a4
   16808:	01170633          	add	a2,a4,a7
   1680c:	fff74713          	not	a4,a4
   16810:	00e67733          	and	a4,a2,a4
   16814:	01077733          	and	a4,a4,a6
   16818:	fc070ee3          	beqz	a4,167f4 <memchr+0x7c>
   1681c:	00f50733          	add	a4,a0,a5
   16820:	00079863          	bnez	a5,16830 <memchr+0xb8>
   16824:	f91ff06f          	j	167b4 <memchr+0x3c>
   16828:	00150513          	addi	a0,a0,1
   1682c:	f8e504e3          	beq	a0,a4,167b4 <memchr+0x3c>
   16830:	00054783          	lbu	a5,0(a0)
   16834:	fed79ae3          	bne	a5,a3,16828 <memchr+0xb0>
   16838:	00008067          	ret

0001683c <strncpy>:
   1683c:	00b567b3          	or	a5,a0,a1
   16840:	0037f793          	andi	a5,a5,3
   16844:	00050713          	mv	a4,a0
   16848:	06079a63          	bnez	a5,168bc <strncpy+0x80>
   1684c:	00300793          	li	a5,3
   16850:	06c7f663          	bgeu	a5,a2,168bc <strncpy+0x80>
   16854:	feff0337          	lui	t1,0xfeff0
   16858:	808088b7          	lui	a7,0x80808
   1685c:	eff30313          	addi	t1,t1,-257 # fefefeff <__BSS_END__+0xfefcc3fb>
   16860:	08088893          	addi	a7,a7,128 # 80808080 <__BSS_END__+0x807e457c>
   16864:	00300e13          	li	t3,3
   16868:	0180006f          	j	16880 <strncpy+0x44>
   1686c:	00d72023          	sw	a3,0(a4)
   16870:	ffc60613          	addi	a2,a2,-4
   16874:	00470713          	addi	a4,a4,4
   16878:	00458593          	addi	a1,a1,4
   1687c:	04ce7063          	bgeu	t3,a2,168bc <strncpy+0x80>
   16880:	0005a683          	lw	a3,0(a1)
   16884:	006687b3          	add	a5,a3,t1
   16888:	fff6c813          	not	a6,a3
   1688c:	0107f7b3          	and	a5,a5,a6
   16890:	0117f7b3          	and	a5,a5,a7
   16894:	fc078ce3          	beqz	a5,1686c <strncpy+0x30>
   16898:	00158593          	addi	a1,a1,1
   1689c:	00170793          	addi	a5,a4,1
   168a0:	02060463          	beqz	a2,168c8 <strncpy+0x8c>
   168a4:	fff5c683          	lbu	a3,-1(a1)
   168a8:	fff60813          	addi	a6,a2,-1
   168ac:	fed78fa3          	sb	a3,-1(a5)
   168b0:	00068e63          	beqz	a3,168cc <strncpy+0x90>
   168b4:	00078713          	mv	a4,a5
   168b8:	00080613          	mv	a2,a6
   168bc:	00158593          	addi	a1,a1,1
   168c0:	00170793          	addi	a5,a4,1
   168c4:	fe0610e3          	bnez	a2,168a4 <strncpy+0x68>
   168c8:	00008067          	ret
   168cc:	00c70733          	add	a4,a4,a2
   168d0:	00080a63          	beqz	a6,168e4 <strncpy+0xa8>
   168d4:	00178793          	addi	a5,a5,1
   168d8:	fe078fa3          	sb	zero,-1(a5)
   168dc:	fee79ce3          	bne	a5,a4,168d4 <strncpy+0x98>
   168e0:	00008067          	ret
   168e4:	00008067          	ret

000168e8 <_setlocale_r>:
   168e8:	04060063          	beqz	a2,16928 <_setlocale_r+0x40>
   168ec:	ff010113          	addi	sp,sp,-16
   168f0:	0000c597          	auipc	a1,0xc
   168f4:	9a058593          	addi	a1,a1,-1632 # 22290 <blanks.1+0x14>
   168f8:	00060513          	mv	a0,a2
   168fc:	00812423          	sw	s0,8(sp)
   16900:	00112623          	sw	ra,12(sp)
   16904:	00060413          	mv	s0,a2
   16908:	34c000ef          	jal	ra,16c54 <strcmp>
   1690c:	02051463          	bnez	a0,16934 <_setlocale_r+0x4c>
   16910:	0000c517          	auipc	a0,0xc
   16914:	97c50513          	addi	a0,a0,-1668 # 2228c <blanks.1+0x10>
   16918:	00c12083          	lw	ra,12(sp)
   1691c:	00812403          	lw	s0,8(sp)
   16920:	01010113          	addi	sp,sp,16
   16924:	00008067          	ret
   16928:	0000c517          	auipc	a0,0xc
   1692c:	96450513          	addi	a0,a0,-1692 # 2228c <blanks.1+0x10>
   16930:	00008067          	ret
   16934:	0000c597          	auipc	a1,0xc
   16938:	95858593          	addi	a1,a1,-1704 # 2228c <blanks.1+0x10>
   1693c:	00040513          	mv	a0,s0
   16940:	314000ef          	jal	ra,16c54 <strcmp>
   16944:	fc0506e3          	beqz	a0,16910 <_setlocale_r+0x28>
   16948:	0000c597          	auipc	a1,0xc
   1694c:	c6058593          	addi	a1,a1,-928 # 225a8 <_ctype_+0x110>
   16950:	00040513          	mv	a0,s0
   16954:	300000ef          	jal	ra,16c54 <strcmp>
   16958:	fa050ce3          	beqz	a0,16910 <_setlocale_r+0x28>
   1695c:	00000513          	li	a0,0
   16960:	fb9ff06f          	j	16918 <_setlocale_r+0x30>

00016964 <__locale_mb_cur_max>:
   16964:	e601c503          	lbu	a0,-416(gp) # 23720 <__global_locale+0x128>
   16968:	00008067          	ret

0001696c <setlocale>:
   1696c:	04058063          	beqz	a1,169ac <setlocale+0x40>
   16970:	ff010113          	addi	sp,sp,-16
   16974:	00812423          	sw	s0,8(sp)
   16978:	00058413          	mv	s0,a1
   1697c:	00040513          	mv	a0,s0
   16980:	0000c597          	auipc	a1,0xc
   16984:	91058593          	addi	a1,a1,-1776 # 22290 <blanks.1+0x14>
   16988:	00112623          	sw	ra,12(sp)
   1698c:	2c8000ef          	jal	ra,16c54 <strcmp>
   16990:	02051463          	bnez	a0,169b8 <setlocale+0x4c>
   16994:	0000c517          	auipc	a0,0xc
   16998:	8f850513          	addi	a0,a0,-1800 # 2228c <blanks.1+0x10>
   1699c:	00c12083          	lw	ra,12(sp)
   169a0:	00812403          	lw	s0,8(sp)
   169a4:	01010113          	addi	sp,sp,16
   169a8:	00008067          	ret
   169ac:	0000c517          	auipc	a0,0xc
   169b0:	8e050513          	addi	a0,a0,-1824 # 2228c <blanks.1+0x10>
   169b4:	00008067          	ret
   169b8:	0000c597          	auipc	a1,0xc
   169bc:	8d458593          	addi	a1,a1,-1836 # 2228c <blanks.1+0x10>
   169c0:	00040513          	mv	a0,s0
   169c4:	290000ef          	jal	ra,16c54 <strcmp>
   169c8:	fc0506e3          	beqz	a0,16994 <setlocale+0x28>
   169cc:	0000c597          	auipc	a1,0xc
   169d0:	bdc58593          	addi	a1,a1,-1060 # 225a8 <_ctype_+0x110>
   169d4:	00040513          	mv	a0,s0
   169d8:	27c000ef          	jal	ra,16c54 <strcmp>
   169dc:	fa050ce3          	beqz	a0,16994 <setlocale+0x28>
   169e0:	00000513          	li	a0,0
   169e4:	fb9ff06f          	j	1699c <setlocale+0x30>

000169e8 <__localeconv_l>:
   169e8:	0f050513          	addi	a0,a0,240
   169ec:	00008067          	ret

000169f0 <_localeconv_r>:
   169f0:	e2818513          	addi	a0,gp,-472 # 236e8 <__global_locale+0xf0>
   169f4:	00008067          	ret

000169f8 <localeconv>:
   169f8:	e2818513          	addi	a0,gp,-472 # 236e8 <__global_locale+0xf0>
   169fc:	00008067          	ret

00016a00 <_sbrk_r>:
   16a00:	ff010113          	addi	sp,sp,-16
   16a04:	00812423          	sw	s0,8(sp)
   16a08:	00050413          	mv	s0,a0
   16a0c:	00058513          	mv	a0,a1
   16a10:	f001ae23          	sw	zero,-228(gp) # 237dc <errno>
   16a14:	00112623          	sw	ra,12(sp)
   16a18:	1f4050ef          	jal	ra,1bc0c <_sbrk>
   16a1c:	fff00793          	li	a5,-1
   16a20:	00f50a63          	beq	a0,a5,16a34 <_sbrk_r+0x34>
   16a24:	00c12083          	lw	ra,12(sp)
   16a28:	00812403          	lw	s0,8(sp)
   16a2c:	01010113          	addi	sp,sp,16
   16a30:	00008067          	ret
   16a34:	f1c1a783          	lw	a5,-228(gp) # 237dc <errno>
   16a38:	fe0786e3          	beqz	a5,16a24 <_sbrk_r+0x24>
   16a3c:	00c12083          	lw	ra,12(sp)
   16a40:	00f42023          	sw	a5,0(s0)
   16a44:	00812403          	lw	s0,8(sp)
   16a48:	01010113          	addi	sp,sp,16
   16a4c:	00008067          	ret

00016a50 <__libc_fini_array>:
   16a50:	ff010113          	addi	sp,sp,-16
   16a54:	00812423          	sw	s0,8(sp)
   16a58:	0000c797          	auipc	a5,0xc
   16a5c:	66478793          	addi	a5,a5,1636 # 230bc <__do_global_dtors_aux_fini_array_entry>
   16a60:	0000c417          	auipc	s0,0xc
   16a64:	66040413          	addi	s0,s0,1632 # 230c0 <__sglue>
   16a68:	40f40433          	sub	s0,s0,a5
   16a6c:	00912223          	sw	s1,4(sp)
   16a70:	00112623          	sw	ra,12(sp)
   16a74:	40245493          	srai	s1,s0,0x2
   16a78:	02048063          	beqz	s1,16a98 <__libc_fini_array+0x48>
   16a7c:	ffc40413          	addi	s0,s0,-4
   16a80:	00f40433          	add	s0,s0,a5
   16a84:	00042783          	lw	a5,0(s0)
   16a88:	fff48493          	addi	s1,s1,-1
   16a8c:	ffc40413          	addi	s0,s0,-4
   16a90:	000780e7          	jalr	a5
   16a94:	fe0498e3          	bnez	s1,16a84 <__libc_fini_array+0x34>
   16a98:	00c12083          	lw	ra,12(sp)
   16a9c:	00812403          	lw	s0,8(sp)
   16aa0:	00412483          	lw	s1,4(sp)
   16aa4:	01010113          	addi	sp,sp,16
   16aa8:	00008067          	ret

00016aac <memmove>:
   16aac:	02a5f663          	bgeu	a1,a0,16ad8 <memmove+0x2c>
   16ab0:	00c58733          	add	a4,a1,a2
   16ab4:	02e57263          	bgeu	a0,a4,16ad8 <memmove+0x2c>
   16ab8:	00c507b3          	add	a5,a0,a2
   16abc:	04060663          	beqz	a2,16b08 <memmove+0x5c>
   16ac0:	fff74683          	lbu	a3,-1(a4)
   16ac4:	fff78793          	addi	a5,a5,-1
   16ac8:	fff70713          	addi	a4,a4,-1
   16acc:	00d78023          	sb	a3,0(a5)
   16ad0:	fef518e3          	bne	a0,a5,16ac0 <memmove+0x14>
   16ad4:	00008067          	ret
   16ad8:	00f00793          	li	a5,15
   16adc:	02c7e863          	bltu	a5,a2,16b0c <memmove+0x60>
   16ae0:	00050793          	mv	a5,a0
   16ae4:	fff60693          	addi	a3,a2,-1
   16ae8:	0c060a63          	beqz	a2,16bbc <memmove+0x110>
   16aec:	00168693          	addi	a3,a3,1 # 2001 <exit-0xe093>
   16af0:	00d786b3          	add	a3,a5,a3
   16af4:	0005c703          	lbu	a4,0(a1)
   16af8:	00178793          	addi	a5,a5,1
   16afc:	00158593          	addi	a1,a1,1
   16b00:	fee78fa3          	sb	a4,-1(a5)
   16b04:	fed798e3          	bne	a5,a3,16af4 <memmove+0x48>
   16b08:	00008067          	ret
   16b0c:	00b567b3          	or	a5,a0,a1
   16b10:	0037f793          	andi	a5,a5,3
   16b14:	08079e63          	bnez	a5,16bb0 <memmove+0x104>
   16b18:	ff060893          	addi	a7,a2,-16
   16b1c:	ff08f893          	andi	a7,a7,-16
   16b20:	01088893          	addi	a7,a7,16
   16b24:	011507b3          	add	a5,a0,a7
   16b28:	00058693          	mv	a3,a1
   16b2c:	00050713          	mv	a4,a0
   16b30:	0006a803          	lw	a6,0(a3)
   16b34:	01068693          	addi	a3,a3,16
   16b38:	01070713          	addi	a4,a4,16
   16b3c:	ff072823          	sw	a6,-16(a4)
   16b40:	ff46a803          	lw	a6,-12(a3)
   16b44:	ff072a23          	sw	a6,-12(a4)
   16b48:	ff86a803          	lw	a6,-8(a3)
   16b4c:	ff072c23          	sw	a6,-8(a4)
   16b50:	ffc6a803          	lw	a6,-4(a3)
   16b54:	ff072e23          	sw	a6,-4(a4)
   16b58:	fcf71ce3          	bne	a4,a5,16b30 <memmove+0x84>
   16b5c:	00c67713          	andi	a4,a2,12
   16b60:	011585b3          	add	a1,a1,a7
   16b64:	00f67813          	andi	a6,a2,15
   16b68:	04070c63          	beqz	a4,16bc0 <memmove+0x114>
   16b6c:	00058693          	mv	a3,a1
   16b70:	00078713          	mv	a4,a5
   16b74:	01078eb3          	add	t4,a5,a6
   16b78:	00300e13          	li	t3,3
   16b7c:	0006a303          	lw	t1,0(a3)
   16b80:	00470713          	addi	a4,a4,4
   16b84:	40ee88b3          	sub	a7,t4,a4
   16b88:	fe672e23          	sw	t1,-4(a4)
   16b8c:	00468693          	addi	a3,a3,4
   16b90:	ff1e66e3          	bltu	t3,a7,16b7c <memmove+0xd0>
   16b94:	ffc80713          	addi	a4,a6,-4
   16b98:	ffc77713          	andi	a4,a4,-4
   16b9c:	00470713          	addi	a4,a4,4
   16ba0:	00367613          	andi	a2,a2,3
   16ba4:	00e787b3          	add	a5,a5,a4
   16ba8:	00e585b3          	add	a1,a1,a4
   16bac:	f39ff06f          	j	16ae4 <memmove+0x38>
   16bb0:	fff60693          	addi	a3,a2,-1
   16bb4:	00050793          	mv	a5,a0
   16bb8:	f35ff06f          	j	16aec <memmove+0x40>
   16bbc:	00008067          	ret
   16bc0:	00080613          	mv	a2,a6
   16bc4:	f21ff06f          	j	16ae4 <memmove+0x38>

00016bc8 <strlen>:
   16bc8:	00357793          	andi	a5,a0,3
   16bcc:	00050713          	mv	a4,a0
   16bd0:	04079c63          	bnez	a5,16c28 <strlen+0x60>
   16bd4:	7f7f86b7          	lui	a3,0x7f7f8
   16bd8:	f7f68693          	addi	a3,a3,-129 # 7f7f7f7f <__BSS_END__+0x7f7d447b>
   16bdc:	fff00593          	li	a1,-1
   16be0:	00072603          	lw	a2,0(a4)
   16be4:	00470713          	addi	a4,a4,4
   16be8:	00d677b3          	and	a5,a2,a3
   16bec:	00d787b3          	add	a5,a5,a3
   16bf0:	00c7e7b3          	or	a5,a5,a2
   16bf4:	00d7e7b3          	or	a5,a5,a3
   16bf8:	feb784e3          	beq	a5,a1,16be0 <strlen+0x18>
   16bfc:	ffc74683          	lbu	a3,-4(a4)
   16c00:	40a707b3          	sub	a5,a4,a0
   16c04:	04068463          	beqz	a3,16c4c <strlen+0x84>
   16c08:	ffd74683          	lbu	a3,-3(a4)
   16c0c:	02068c63          	beqz	a3,16c44 <strlen+0x7c>
   16c10:	ffe74503          	lbu	a0,-2(a4)
   16c14:	00a03533          	snez	a0,a0
   16c18:	00f50533          	add	a0,a0,a5
   16c1c:	ffe50513          	addi	a0,a0,-2
   16c20:	00008067          	ret
   16c24:	fa0688e3          	beqz	a3,16bd4 <strlen+0xc>
   16c28:	00074783          	lbu	a5,0(a4)
   16c2c:	00170713          	addi	a4,a4,1
   16c30:	00377693          	andi	a3,a4,3
   16c34:	fe0798e3          	bnez	a5,16c24 <strlen+0x5c>
   16c38:	40a70733          	sub	a4,a4,a0
   16c3c:	fff70513          	addi	a0,a4,-1
   16c40:	00008067          	ret
   16c44:	ffd78513          	addi	a0,a5,-3
   16c48:	00008067          	ret
   16c4c:	ffc78513          	addi	a0,a5,-4
   16c50:	00008067          	ret

00016c54 <strcmp>:
   16c54:	00b56733          	or	a4,a0,a1
   16c58:	fff00393          	li	t2,-1
   16c5c:	00377713          	andi	a4,a4,3
   16c60:	10071063          	bnez	a4,16d60 <strcmp+0x10c>
   16c64:	7f7f87b7          	lui	a5,0x7f7f8
   16c68:	f7f78793          	addi	a5,a5,-129 # 7f7f7f7f <__BSS_END__+0x7f7d447b>
   16c6c:	00052603          	lw	a2,0(a0)
   16c70:	0005a683          	lw	a3,0(a1)
   16c74:	00f672b3          	and	t0,a2,a5
   16c78:	00f66333          	or	t1,a2,a5
   16c7c:	00f282b3          	add	t0,t0,a5
   16c80:	0062e2b3          	or	t0,t0,t1
   16c84:	10729263          	bne	t0,t2,16d88 <strcmp+0x134>
   16c88:	08d61663          	bne	a2,a3,16d14 <strcmp+0xc0>
   16c8c:	00452603          	lw	a2,4(a0)
   16c90:	0045a683          	lw	a3,4(a1)
   16c94:	00f672b3          	and	t0,a2,a5
   16c98:	00f66333          	or	t1,a2,a5
   16c9c:	00f282b3          	add	t0,t0,a5
   16ca0:	0062e2b3          	or	t0,t0,t1
   16ca4:	0c729e63          	bne	t0,t2,16d80 <strcmp+0x12c>
   16ca8:	06d61663          	bne	a2,a3,16d14 <strcmp+0xc0>
   16cac:	00852603          	lw	a2,8(a0)
   16cb0:	0085a683          	lw	a3,8(a1)
   16cb4:	00f672b3          	and	t0,a2,a5
   16cb8:	00f66333          	or	t1,a2,a5
   16cbc:	00f282b3          	add	t0,t0,a5
   16cc0:	0062e2b3          	or	t0,t0,t1
   16cc4:	0c729863          	bne	t0,t2,16d94 <strcmp+0x140>
   16cc8:	04d61663          	bne	a2,a3,16d14 <strcmp+0xc0>
   16ccc:	00c52603          	lw	a2,12(a0)
   16cd0:	00c5a683          	lw	a3,12(a1)
   16cd4:	00f672b3          	and	t0,a2,a5
   16cd8:	00f66333          	or	t1,a2,a5
   16cdc:	00f282b3          	add	t0,t0,a5
   16ce0:	0062e2b3          	or	t0,t0,t1
   16ce4:	0c729263          	bne	t0,t2,16da8 <strcmp+0x154>
   16ce8:	02d61663          	bne	a2,a3,16d14 <strcmp+0xc0>
   16cec:	01052603          	lw	a2,16(a0)
   16cf0:	0105a683          	lw	a3,16(a1)
   16cf4:	00f672b3          	and	t0,a2,a5
   16cf8:	00f66333          	or	t1,a2,a5
   16cfc:	00f282b3          	add	t0,t0,a5
   16d00:	0062e2b3          	or	t0,t0,t1
   16d04:	0a729c63          	bne	t0,t2,16dbc <strcmp+0x168>
   16d08:	01450513          	addi	a0,a0,20
   16d0c:	01458593          	addi	a1,a1,20
   16d10:	f4d60ee3          	beq	a2,a3,16c6c <strcmp+0x18>
   16d14:	01061713          	slli	a4,a2,0x10
   16d18:	01069793          	slli	a5,a3,0x10
   16d1c:	00f71e63          	bne	a4,a5,16d38 <strcmp+0xe4>
   16d20:	01065713          	srli	a4,a2,0x10
   16d24:	0106d793          	srli	a5,a3,0x10
   16d28:	40f70533          	sub	a0,a4,a5
   16d2c:	0ff57593          	zext.b	a1,a0
   16d30:	02059063          	bnez	a1,16d50 <strcmp+0xfc>
   16d34:	00008067          	ret
   16d38:	01075713          	srli	a4,a4,0x10
   16d3c:	0107d793          	srli	a5,a5,0x10
   16d40:	40f70533          	sub	a0,a4,a5
   16d44:	0ff57593          	zext.b	a1,a0
   16d48:	00059463          	bnez	a1,16d50 <strcmp+0xfc>
   16d4c:	00008067          	ret
   16d50:	0ff77713          	zext.b	a4,a4
   16d54:	0ff7f793          	zext.b	a5,a5
   16d58:	40f70533          	sub	a0,a4,a5
   16d5c:	00008067          	ret
   16d60:	00054603          	lbu	a2,0(a0)
   16d64:	0005c683          	lbu	a3,0(a1)
   16d68:	00150513          	addi	a0,a0,1
   16d6c:	00158593          	addi	a1,a1,1
   16d70:	00d61463          	bne	a2,a3,16d78 <strcmp+0x124>
   16d74:	fe0616e3          	bnez	a2,16d60 <strcmp+0x10c>
   16d78:	40d60533          	sub	a0,a2,a3
   16d7c:	00008067          	ret
   16d80:	00450513          	addi	a0,a0,4
   16d84:	00458593          	addi	a1,a1,4
   16d88:	fcd61ce3          	bne	a2,a3,16d60 <strcmp+0x10c>
   16d8c:	00000513          	li	a0,0
   16d90:	00008067          	ret
   16d94:	00850513          	addi	a0,a0,8
   16d98:	00858593          	addi	a1,a1,8
   16d9c:	fcd612e3          	bne	a2,a3,16d60 <strcmp+0x10c>
   16da0:	00000513          	li	a0,0
   16da4:	00008067          	ret
   16da8:	00c50513          	addi	a0,a0,12
   16dac:	00c58593          	addi	a1,a1,12
   16db0:	fad618e3          	bne	a2,a3,16d60 <strcmp+0x10c>
   16db4:	00000513          	li	a0,0
   16db8:	00008067          	ret
   16dbc:	01050513          	addi	a0,a0,16
   16dc0:	01058593          	addi	a1,a1,16
   16dc4:	f8d61ee3          	bne	a2,a3,16d60 <strcmp+0x10c>
   16dc8:	00000513          	li	a0,0
   16dcc:	00008067          	ret

00016dd0 <frexpl>:
   16dd0:	f9010113          	addi	sp,sp,-112
   16dd4:	07212023          	sw	s2,96(sp)
   16dd8:	00c5a903          	lw	s2,12(a1)
   16ddc:	05412c23          	sw	s4,88(sp)
   16de0:	05512a23          	sw	s5,84(sp)
   16de4:	05612823          	sw	s6,80(sp)
   16de8:	0045aa83          	lw	s5,4(a1)
   16dec:	0005ab03          	lw	s6,0(a1)
   16df0:	0085aa03          	lw	s4,8(a1)
   16df4:	05312e23          	sw	s3,92(sp)
   16df8:	000089b7          	lui	s3,0x8
   16dfc:	06812423          	sw	s0,104(sp)
   16e00:	06912223          	sw	s1,100(sp)
   16e04:	06112623          	sw	ra,108(sp)
   16e08:	05712623          	sw	s7,76(sp)
   16e0c:	01095493          	srli	s1,s2,0x10
   16e10:	fff98993          	addi	s3,s3,-1 # 7fff <exit-0x8095>
   16e14:	03612823          	sw	s6,48(sp)
   16e18:	03512a23          	sw	s5,52(sp)
   16e1c:	03412c23          	sw	s4,56(sp)
   16e20:	03212e23          	sw	s2,60(sp)
   16e24:	0134f4b3          	and	s1,s1,s3
   16e28:	00062023          	sw	zero,0(a2)
   16e2c:	00050413          	mv	s0,a0
   16e30:	07348c63          	beq	s1,s3,16ea8 <frexpl+0xd8>
   16e34:	01010593          	addi	a1,sp,16
   16e38:	02010513          	addi	a0,sp,32
   16e3c:	00060b93          	mv	s7,a2
   16e40:	03612023          	sw	s6,32(sp)
   16e44:	03512223          	sw	s5,36(sp)
   16e48:	03412423          	sw	s4,40(sp)
   16e4c:	03212623          	sw	s2,44(sp)
   16e50:	00012823          	sw	zero,16(sp)
   16e54:	00012a23          	sw	zero,20(sp)
   16e58:	00012c23          	sw	zero,24(sp)
   16e5c:	00012e23          	sw	zero,28(sp)
   16e60:	449070ef          	jal	ra,1eaa8 <__eqtf2>
   16e64:	04050263          	beqz	a0,16ea8 <frexpl+0xd8>
   16e68:	00000713          	li	a4,0
   16e6c:	06048e63          	beqz	s1,16ee8 <frexpl+0x118>
   16e70:	ffffc7b7          	lui	a5,0xffffc
   16e74:	03c12903          	lw	s2,60(sp)
   16e78:	00278793          	addi	a5,a5,2 # ffffc002 <__BSS_END__+0xfffd84fe>
   16e7c:	00f484b3          	add	s1,s1,a5
   16e80:	800107b7          	lui	a5,0x80010
   16e84:	fff78793          	addi	a5,a5,-1 # 8000ffff <__BSS_END__+0x7ffec4fb>
   16e88:	03012b03          	lw	s6,48(sp)
   16e8c:	03412a83          	lw	s5,52(sp)
   16e90:	03812a03          	lw	s4,56(sp)
   16e94:	00f97933          	and	s2,s2,a5
   16e98:	00e484b3          	add	s1,s1,a4
   16e9c:	3ffe07b7          	lui	a5,0x3ffe0
   16ea0:	009ba023          	sw	s1,0(s7)
   16ea4:	00f96933          	or	s2,s2,a5
   16ea8:	01642023          	sw	s6,0(s0)
   16eac:	01542223          	sw	s5,4(s0)
   16eb0:	01442423          	sw	s4,8(s0)
   16eb4:	01242623          	sw	s2,12(s0)
   16eb8:	06c12083          	lw	ra,108(sp)
   16ebc:	00040513          	mv	a0,s0
   16ec0:	06812403          	lw	s0,104(sp)
   16ec4:	06412483          	lw	s1,100(sp)
   16ec8:	06012903          	lw	s2,96(sp)
   16ecc:	05c12983          	lw	s3,92(sp)
   16ed0:	05812a03          	lw	s4,88(sp)
   16ed4:	05412a83          	lw	s5,84(sp)
   16ed8:	05012b03          	lw	s6,80(sp)
   16edc:	04c12b83          	lw	s7,76(sp)
   16ee0:	07010113          	addi	sp,sp,112
   16ee4:	00008067          	ret
   16ee8:	0000b797          	auipc	a5,0xb
   16eec:	3b878793          	addi	a5,a5,952 # 222a0 <blanks.1+0x24>
   16ef0:	0007a603          	lw	a2,0(a5)
   16ef4:	0087a703          	lw	a4,8(a5)
   16ef8:	0047a683          	lw	a3,4(a5)
   16efc:	00c7a783          	lw	a5,12(a5)
   16f00:	00c12023          	sw	a2,0(sp)
   16f04:	01010593          	addi	a1,sp,16
   16f08:	00010613          	mv	a2,sp
   16f0c:	02010513          	addi	a0,sp,32
   16f10:	00e12423          	sw	a4,8(sp)
   16f14:	00f12623          	sw	a5,12(sp)
   16f18:	01612823          	sw	s6,16(sp)
   16f1c:	01512a23          	sw	s5,20(sp)
   16f20:	01412c23          	sw	s4,24(sp)
   16f24:	01212e23          	sw	s2,28(sp)
   16f28:	00d12223          	sw	a3,4(sp)
   16f2c:	719070ef          	jal	ra,1ee44 <__multf3>
   16f30:	02012703          	lw	a4,32(sp)
   16f34:	02c12783          	lw	a5,44(sp)
   16f38:	02e12823          	sw	a4,48(sp)
   16f3c:	02412703          	lw	a4,36(sp)
   16f40:	0107d493          	srli	s1,a5,0x10
   16f44:	02f12e23          	sw	a5,60(sp)
   16f48:	02e12a23          	sw	a4,52(sp)
   16f4c:	02812703          	lw	a4,40(sp)
   16f50:	0134f4b3          	and	s1,s1,s3
   16f54:	02e12c23          	sw	a4,56(sp)
   16f58:	f8e00713          	li	a4,-114
   16f5c:	f15ff06f          	j	16e70 <frexpl+0xa0>

00016f60 <__register_exitproc>:
   16f60:	f2018713          	addi	a4,gp,-224 # 237e0 <__atexit>
   16f64:	00072783          	lw	a5,0(a4)
   16f68:	04078c63          	beqz	a5,16fc0 <__register_exitproc+0x60>
   16f6c:	0047a703          	lw	a4,4(a5)
   16f70:	01f00813          	li	a6,31
   16f74:	06e84e63          	blt	a6,a4,16ff0 <__register_exitproc+0x90>
   16f78:	00271813          	slli	a6,a4,0x2
   16f7c:	02050663          	beqz	a0,16fa8 <__register_exitproc+0x48>
   16f80:	01078333          	add	t1,a5,a6
   16f84:	08c32423          	sw	a2,136(t1)
   16f88:	1887a883          	lw	a7,392(a5)
   16f8c:	00100613          	li	a2,1
   16f90:	00e61633          	sll	a2,a2,a4
   16f94:	00c8e8b3          	or	a7,a7,a2
   16f98:	1917a423          	sw	a7,392(a5)
   16f9c:	10d32423          	sw	a3,264(t1)
   16fa0:	00200693          	li	a3,2
   16fa4:	02d50463          	beq	a0,a3,16fcc <__register_exitproc+0x6c>
   16fa8:	00170713          	addi	a4,a4,1
   16fac:	00e7a223          	sw	a4,4(a5)
   16fb0:	010787b3          	add	a5,a5,a6
   16fb4:	00b7a423          	sw	a1,8(a5)
   16fb8:	00000513          	li	a0,0
   16fbc:	00008067          	ret
   16fc0:	0b418793          	addi	a5,gp,180 # 23974 <__atexit0>
   16fc4:	00f72023          	sw	a5,0(a4)
   16fc8:	fa5ff06f          	j	16f6c <__register_exitproc+0xc>
   16fcc:	18c7a683          	lw	a3,396(a5)
   16fd0:	00170713          	addi	a4,a4,1
   16fd4:	00e7a223          	sw	a4,4(a5)
   16fd8:	00c6e6b3          	or	a3,a3,a2
   16fdc:	18d7a623          	sw	a3,396(a5)
   16fe0:	010787b3          	add	a5,a5,a6
   16fe4:	00b7a423          	sw	a1,8(a5)
   16fe8:	00000513          	li	a0,0
   16fec:	00008067          	ret
   16ff0:	fff00513          	li	a0,-1
   16ff4:	00008067          	ret

00016ff8 <_ldtoa_r>:
   16ff8:	0000b897          	auipc	a7,0xb
   16ffc:	2d888893          	addi	a7,a7,728 # 222d0 <blanks.1+0x54>
   17000:	0008af83          	lw	t6,0(a7)
   17004:	0048af03          	lw	t5,4(a7)
   17008:	0088ae83          	lw	t4,8(a7)
   1700c:	00c8ae03          	lw	t3,12(a7)
   17010:	0108a303          	lw	t1,16(a7)
   17014:	03852883          	lw	a7,56(a0)
   17018:	f5010113          	addi	sp,sp,-176
   1701c:	0a912223          	sw	s1,164(sp)
   17020:	0b212023          	sw	s2,160(sp)
   17024:	09312e23          	sw	s3,156(sp)
   17028:	09412c23          	sw	s4,152(sp)
   1702c:	09512a23          	sw	s5,148(sp)
   17030:	09612823          	sw	s6,144(sp)
   17034:	09712623          	sw	s7,140(sp)
   17038:	09a12023          	sw	s10,128(sp)
   1703c:	0a112623          	sw	ra,172(sp)
   17040:	0a812423          	sw	s0,168(sp)
   17044:	09812423          	sw	s8,136(sp)
   17048:	09912223          	sw	s9,132(sp)
   1704c:	07b12e23          	sw	s11,124(sp)
   17050:	05f12e23          	sw	t6,92(sp)
   17054:	07e12023          	sw	t5,96(sp)
   17058:	07d12223          	sw	t4,100(sp)
   1705c:	07c12423          	sw	t3,104(sp)
   17060:	06612623          	sw	t1,108(sp)
   17064:	00c12823          	sw	a2,16(sp)
   17068:	00d12a23          	sw	a3,20(sp)
   1706c:	0005a983          	lw	s3,0(a1)
   17070:	0045a903          	lw	s2,4(a1)
   17074:	0085a483          	lw	s1,8(a1)
   17078:	00c5ab83          	lw	s7,12(a1)
   1707c:	00050a93          	mv	s5,a0
   17080:	00070b13          	mv	s6,a4
   17084:	00078a13          	mv	s4,a5
   17088:	00080d13          	mv	s10,a6
   1708c:	02088263          	beqz	a7,170b0 <_ldtoa_r+0xb8>
   17090:	03c52703          	lw	a4,60(a0)
   17094:	00100793          	li	a5,1
   17098:	00088593          	mv	a1,a7
   1709c:	00e797b3          	sll	a5,a5,a4
   170a0:	00e8a223          	sw	a4,4(a7)
   170a4:	00f8a423          	sw	a5,8(a7)
   170a8:	43c020ef          	jal	ra,194e4 <_Bfree>
   170ac:	020aac23          	sw	zero,56(s5) # 80000038 <__BSS_END__+0x7ffdc534>
   170b0:	06812783          	lw	a5,104(sp)
   170b4:	01fbd693          	srli	a3,s7,0x1f
   170b8:	00da2023          	sw	a3,0(s4)
   170bc:	4017d713          	srai	a4,a5,0x1
   170c0:	001b9413          	slli	s0,s7,0x1
   170c4:	00d77733          	and	a4,a4,a3
   170c8:	001b9a13          	slli	s4,s7,0x1
   170cc:	010b9d93          	slli	s11,s7,0x10
   170d0:	00145413          	srli	s0,s0,0x1
   170d4:	00f74733          	xor	a4,a4,a5
   170d8:	010ddd93          	srli	s11,s11,0x10
   170dc:	011a5793          	srli	a5,s4,0x11
   170e0:	02010593          	addi	a1,sp,32
   170e4:	03010513          	addi	a0,sp,48
   170e8:	03312823          	sw	s3,48(sp)
   170ec:	03212a23          	sw	s2,52(sp)
   170f0:	02912c23          	sw	s1,56(sp)
   170f4:	02812e23          	sw	s0,60(sp)
   170f8:	03312023          	sw	s3,32(sp)
   170fc:	03212223          	sw	s2,36(sp)
   17100:	02912423          	sw	s1,40(sp)
   17104:	02812623          	sw	s0,44(sp)
   17108:	06e12423          	sw	a4,104(sp)
   1710c:	00f12e23          	sw	a5,28(sp)
   17110:	05312623          	sw	s3,76(sp)
   17114:	05212823          	sw	s2,80(sp)
   17118:	04912a23          	sw	s1,84(sp)
   1711c:	05b12c23          	sw	s11,88(sp)
   17120:	6440a0ef          	jal	ra,21764 <__unordtf2>
   17124:	1a051263          	bnez	a0,172c8 <_ldtoa_r+0x2d0>
   17128:	0000b797          	auipc	a5,0xb
   1712c:	18878793          	addi	a5,a5,392 # 222b0 <blanks.1+0x34>
   17130:	0007a603          	lw	a2,0(a5)
   17134:	0047ac83          	lw	s9,4(a5)
   17138:	0087ac03          	lw	s8,8(a5)
   1713c:	00c7aa03          	lw	s4,12(a5)
   17140:	02010593          	addi	a1,sp,32
   17144:	03010513          	addi	a0,sp,48
   17148:	03312823          	sw	s3,48(sp)
   1714c:	03212a23          	sw	s2,52(sp)
   17150:	02912c23          	sw	s1,56(sp)
   17154:	02812e23          	sw	s0,60(sp)
   17158:	02c12023          	sw	a2,32(sp)
   1715c:	00c12c23          	sw	a2,24(sp)
   17160:	03912223          	sw	s9,36(sp)
   17164:	03812423          	sw	s8,40(sp)
   17168:	03412623          	sw	s4,44(sp)
   1716c:	5f80a0ef          	jal	ra,21764 <__unordtf2>
   17170:	0a051263          	bnez	a0,17214 <_ldtoa_r+0x21c>
   17174:	02010593          	addi	a1,sp,32
   17178:	03010513          	addi	a0,sp,48
   1717c:	365070ef          	jal	ra,1ece0 <__letf2>
   17180:	08a05a63          	blez	a0,17214 <_ldtoa_r+0x21c>
   17184:	00300793          	li	a5,3
   17188:	04f12423          	sw	a5,72(sp)
   1718c:	01c12703          	lw	a4,28(sp)
   17190:	ffffc7b7          	lui	a5,0xffffc
   17194:	f9178793          	addi	a5,a5,-111 # ffffbf91 <__BSS_END__+0xfffd848d>
   17198:	00f70633          	add	a2,a4,a5
   1719c:	01012783          	lw	a5,16(sp)
   171a0:	01412803          	lw	a6,20(sp)
   171a4:	04810713          	addi	a4,sp,72
   171a8:	01a12023          	sw	s10,0(sp)
   171ac:	000b0893          	mv	a7,s6
   171b0:	04c10693          	addi	a3,sp,76
   171b4:	05c10593          	addi	a1,sp,92
   171b8:	000a8513          	mv	a0,s5
   171bc:	218000ef          	jal	ra,173d4 <__gdtoa>
   171c0:	000b2703          	lw	a4,0(s6)
   171c4:	ffff87b7          	lui	a5,0xffff8
   171c8:	00f71863          	bne	a4,a5,171d8 <_ldtoa_r+0x1e0>
   171cc:	800007b7          	lui	a5,0x80000
   171d0:	fff7c793          	not	a5,a5
   171d4:	00fb2023          	sw	a5,0(s6)
   171d8:	0ac12083          	lw	ra,172(sp)
   171dc:	0a812403          	lw	s0,168(sp)
   171e0:	0a412483          	lw	s1,164(sp)
   171e4:	0a012903          	lw	s2,160(sp)
   171e8:	09c12983          	lw	s3,156(sp)
   171ec:	09812a03          	lw	s4,152(sp)
   171f0:	09412a83          	lw	s5,148(sp)
   171f4:	09012b03          	lw	s6,144(sp)
   171f8:	08c12b83          	lw	s7,140(sp)
   171fc:	08812c03          	lw	s8,136(sp)
   17200:	08412c83          	lw	s9,132(sp)
   17204:	08012d03          	lw	s10,128(sp)
   17208:	07c12d83          	lw	s11,124(sp)
   1720c:	0b010113          	addi	sp,sp,176
   17210:	00008067          	ret
   17214:	0000b797          	auipc	a5,0xb
   17218:	0ac78793          	addi	a5,a5,172 # 222c0 <blanks.1+0x44>
   1721c:	0007a603          	lw	a2,0(a5)
   17220:	0047a683          	lw	a3,4(a5)
   17224:	0087a703          	lw	a4,8(a5)
   17228:	00c7a783          	lw	a5,12(a5)
   1722c:	02010593          	addi	a1,sp,32
   17230:	03010513          	addi	a0,sp,48
   17234:	03312823          	sw	s3,48(sp)
   17238:	03212a23          	sw	s2,52(sp)
   1723c:	02912c23          	sw	s1,56(sp)
   17240:	02812e23          	sw	s0,60(sp)
   17244:	02c12023          	sw	a2,32(sp)
   17248:	02d12223          	sw	a3,36(sp)
   1724c:	02e12423          	sw	a4,40(sp)
   17250:	02f12623          	sw	a5,44(sp)
   17254:	129070ef          	jal	ra,1eb7c <__getf2>
   17258:	00054e63          	bltz	a0,17274 <_ldtoa_r+0x27c>
   1725c:	000107b7          	lui	a5,0x10
   17260:	00fdedb3          	or	s11,s11,a5
   17264:	00100793          	li	a5,1
   17268:	04f12423          	sw	a5,72(sp)
   1726c:	05b12c23          	sw	s11,88(sp)
   17270:	f1dff06f          	j	1718c <_ldtoa_r+0x194>
   17274:	02010593          	addi	a1,sp,32
   17278:	03010513          	addi	a0,sp,48
   1727c:	03312823          	sw	s3,48(sp)
   17280:	03212a23          	sw	s2,52(sp)
   17284:	02912c23          	sw	s1,56(sp)
   17288:	03712e23          	sw	s7,60(sp)
   1728c:	02012023          	sw	zero,32(sp)
   17290:	02012223          	sw	zero,36(sp)
   17294:	02012423          	sw	zero,40(sp)
   17298:	02012623          	sw	zero,44(sp)
   1729c:	00d070ef          	jal	ra,1eaa8 <__eqtf2>
   172a0:	00051663          	bnez	a0,172ac <_ldtoa_r+0x2b4>
   172a4:	04012423          	sw	zero,72(sp)
   172a8:	ee5ff06f          	j	1718c <_ldtoa_r+0x194>
   172ac:	00200793          	li	a5,2
   172b0:	01c12703          	lw	a4,28(sp)
   172b4:	04f12423          	sw	a5,72(sp)
   172b8:	ffffc7b7          	lui	a5,0xffffc
   172bc:	f9278793          	addi	a5,a5,-110 # ffffbf92 <__BSS_END__+0xfffd848e>
   172c0:	00f70633          	add	a2,a4,a5
   172c4:	ed9ff06f          	j	1719c <_ldtoa_r+0x1a4>
   172c8:	00400793          	li	a5,4
   172cc:	04f12423          	sw	a5,72(sp)
   172d0:	ebdff06f          	j	1718c <_ldtoa_r+0x194>

000172d4 <_ldcheck>:
   172d4:	fb010113          	addi	sp,sp,-80
   172d8:	04812423          	sw	s0,72(sp)
   172dc:	00c52403          	lw	s0,12(a0)
   172e0:	04912223          	sw	s1,68(sp)
   172e4:	05212023          	sw	s2,64(sp)
   172e8:	00852483          	lw	s1,8(a0)
   172ec:	00452903          	lw	s2,4(a0)
   172f0:	03312e23          	sw	s3,60(sp)
   172f4:	00052983          	lw	s3,0(a0)
   172f8:	00141413          	slli	s0,s0,0x1
   172fc:	00145413          	srli	s0,s0,0x1
   17300:	00010593          	mv	a1,sp
   17304:	01010513          	addi	a0,sp,16
   17308:	04112623          	sw	ra,76(sp)
   1730c:	03412c23          	sw	s4,56(sp)
   17310:	03512a23          	sw	s5,52(sp)
   17314:	03612823          	sw	s6,48(sp)
   17318:	03712623          	sw	s7,44(sp)
   1731c:	01312823          	sw	s3,16(sp)
   17320:	01212a23          	sw	s2,20(sp)
   17324:	00912c23          	sw	s1,24(sp)
   17328:	00812e23          	sw	s0,28(sp)
   1732c:	01312023          	sw	s3,0(sp)
   17330:	01212223          	sw	s2,4(sp)
   17334:	00912423          	sw	s1,8(sp)
   17338:	00812623          	sw	s0,12(sp)
   1733c:	4280a0ef          	jal	ra,21764 <__unordtf2>
   17340:	08051663          	bnez	a0,173cc <_ldcheck+0xf8>
   17344:	0000b797          	auipc	a5,0xb
   17348:	f6c78793          	addi	a5,a5,-148 # 222b0 <blanks.1+0x34>
   1734c:	0007ab83          	lw	s7,0(a5)
   17350:	0047ab03          	lw	s6,4(a5)
   17354:	0087aa83          	lw	s5,8(a5)
   17358:	00c7aa03          	lw	s4,12(a5)
   1735c:	00010593          	mv	a1,sp
   17360:	01010513          	addi	a0,sp,16
   17364:	01712023          	sw	s7,0(sp)
   17368:	01612223          	sw	s6,4(sp)
   1736c:	01512423          	sw	s5,8(sp)
   17370:	01412623          	sw	s4,12(sp)
   17374:	3f00a0ef          	jal	ra,21764 <__unordtf2>
   17378:	00100793          	li	a5,1
   1737c:	02050e63          	beqz	a0,173b8 <_ldcheck+0xe4>
   17380:	0017c513          	xori	a0,a5,1
   17384:	0ff57513          	zext.b	a0,a0
   17388:	00151513          	slli	a0,a0,0x1
   1738c:	04c12083          	lw	ra,76(sp)
   17390:	04812403          	lw	s0,72(sp)
   17394:	04412483          	lw	s1,68(sp)
   17398:	04012903          	lw	s2,64(sp)
   1739c:	03c12983          	lw	s3,60(sp)
   173a0:	03812a03          	lw	s4,56(sp)
   173a4:	03412a83          	lw	s5,52(sp)
   173a8:	03012b03          	lw	s6,48(sp)
   173ac:	02c12b83          	lw	s7,44(sp)
   173b0:	05010113          	addi	sp,sp,80
   173b4:	00008067          	ret
   173b8:	00010593          	mv	a1,sp
   173bc:	01010513          	addi	a0,sp,16
   173c0:	121070ef          	jal	ra,1ece0 <__letf2>
   173c4:	00152793          	slti	a5,a0,1
   173c8:	fb9ff06f          	j	17380 <_ldcheck+0xac>
   173cc:	00100513          	li	a0,1
   173d0:	fbdff06f          	j	1738c <_ldcheck+0xb8>

000173d4 <__gdtoa>:
   173d4:	f4010113          	addi	sp,sp,-192
   173d8:	0b612023          	sw	s6,160(sp)
   173dc:	00072b03          	lw	s6,0(a4)
   173e0:	09712e23          	sw	s7,156(sp)
   173e4:	0a112e23          	sw	ra,188(sp)
   173e8:	fcfb7313          	andi	t1,s6,-49
   173ec:	0a812c23          	sw	s0,184(sp)
   173f0:	0a912a23          	sw	s1,180(sp)
   173f4:	0b212823          	sw	s2,176(sp)
   173f8:	0b312623          	sw	s3,172(sp)
   173fc:	0b412423          	sw	s4,168(sp)
   17400:	0b512223          	sw	s5,164(sp)
   17404:	09812c23          	sw	s8,152(sp)
   17408:	09912a23          	sw	s9,148(sp)
   1740c:	09a12823          	sw	s10,144(sp)
   17410:	09b12623          	sw	s11,140(sp)
   17414:	00672023          	sw	t1,0(a4)
   17418:	00070b93          	mv	s7,a4
   1741c:	0c012703          	lw	a4,192(sp)
   17420:	00fb7313          	andi	t1,s6,15
   17424:	00300e13          	li	t3,3
   17428:	00e12223          	sw	a4,4(sp)
   1742c:	00c12423          	sw	a2,8(sp)
   17430:	01012a23          	sw	a6,20(sp)
   17434:	01112023          	sw	a7,0(sp)
   17438:	7fc30c63          	beq	t1,t3,17c30 <__gdtoa+0x85c>
   1743c:	00cb7913          	andi	s2,s6,12
   17440:	70091e63          	bnez	s2,17b5c <__gdtoa+0x788>
   17444:	00050413          	mv	s0,a0
   17448:	78030063          	beqz	t1,17bc8 <__gdtoa+0x7f4>
   1744c:	0005ad03          	lw	s10,0(a1)
   17450:	00068a13          	mv	s4,a3
   17454:	02000693          	li	a3,32
   17458:	00058993          	mv	s3,a1
   1745c:	00078d93          	mv	s11,a5
   17460:	00000593          	li	a1,0
   17464:	02000793          	li	a5,32
   17468:	01a6d863          	bge	a3,s10,17478 <__gdtoa+0xa4>
   1746c:	00179793          	slli	a5,a5,0x1
   17470:	00158593          	addi	a1,a1,1
   17474:	ffa7cce3          	blt	a5,s10,1746c <__gdtoa+0x98>
   17478:	00040513          	mv	a0,s0
   1747c:	7c1010ef          	jal	ra,1943c <_Balloc>
   17480:	00a12823          	sw	a0,16(sp)
   17484:	7e050063          	beqz	a0,17c64 <__gdtoa+0x890>
   17488:	01012783          	lw	a5,16(sp)
   1748c:	fffd0513          	addi	a0,s10,-1
   17490:	40555513          	srai	a0,a0,0x5
   17494:	00251593          	slli	a1,a0,0x2
   17498:	01478693          	addi	a3,a5,20
   1749c:	00ba05b3          	add	a1,s4,a1
   174a0:	000a0793          	mv	a5,s4
   174a4:	0007a703          	lw	a4,0(a5)
   174a8:	00478793          	addi	a5,a5,4
   174ac:	00468693          	addi	a3,a3,4
   174b0:	fee6ae23          	sw	a4,-4(a3)
   174b4:	fef5f8e3          	bgeu	a1,a5,174a4 <__gdtoa+0xd0>
   174b8:	00158593          	addi	a1,a1,1
   174bc:	001a0793          	addi	a5,s4,1
   174c0:	00400693          	li	a3,4
   174c4:	00f5e663          	bltu	a1,a5,174d0 <__gdtoa+0xfc>
   174c8:	00251513          	slli	a0,a0,0x2
   174cc:	00450693          	addi	a3,a0,4
   174d0:	01012783          	lw	a5,16(sp)
   174d4:	4026dc93          	srai	s9,a3,0x2
   174d8:	00d786b3          	add	a3,a5,a3
   174dc:	00c0006f          	j	174e8 <__gdtoa+0x114>
   174e0:	ffc68693          	addi	a3,a3,-4
   174e4:	780c8463          	beqz	s9,17c6c <__gdtoa+0x898>
   174e8:	0106a783          	lw	a5,16(a3)
   174ec:	000c8a93          	mv	s5,s9
   174f0:	fffc8c93          	addi	s9,s9,-1
   174f4:	fe0786e3          	beqz	a5,174e0 <__gdtoa+0x10c>
   174f8:	01012703          	lw	a4,16(sp)
   174fc:	004c8793          	addi	a5,s9,4
   17500:	00279793          	slli	a5,a5,0x2
   17504:	00f707b3          	add	a5,a4,a5
   17508:	0047a503          	lw	a0,4(a5)
   1750c:	01572823          	sw	s5,16(a4)
   17510:	005a9a93          	slli	s5,s5,0x5
   17514:	2a4020ef          	jal	ra,197b8 <__hi0bits>
   17518:	40aa8cb3          	sub	s9,s5,a0
   1751c:	01012503          	lw	a0,16(sp)
   17520:	649010ef          	jal	ra,19368 <__trailz_D2A>
   17524:	00812783          	lw	a5,8(sp)
   17528:	06a12e23          	sw	a0,124(sp)
   1752c:	02f12223          	sw	a5,36(sp)
   17530:	78051463          	bnez	a0,17cb8 <__gdtoa+0x8e4>
   17534:	01012783          	lw	a5,16(sp)
   17538:	0107a683          	lw	a3,16(a5)
   1753c:	68068063          	beqz	a3,17bbc <__gdtoa+0x7e8>
   17540:	01012503          	lw	a0,16(sp)
   17544:	07c10593          	addi	a1,sp,124
   17548:	515020ef          	jal	ra,1a25c <__b2d>
   1754c:	00c59a93          	slli	s5,a1,0xc
   17550:	00cada93          	srli	s5,s5,0xc
   17554:	3ff006b7          	lui	a3,0x3ff00
   17558:	00dae833          	or	a6,s5,a3
   1755c:	0000c697          	auipc	a3,0xc
   17560:	20c68693          	addi	a3,a3,524 # 23768 <__SDATA_BEGIN__>
   17564:	0006a603          	lw	a2,0(a3)
   17568:	0046a683          	lw	a3,4(a3)
   1756c:	00080593          	mv	a1,a6
   17570:	01012e23          	sw	a6,28(sp)
   17574:	00050493          	mv	s1,a0
   17578:	02a12e23          	sw	a0,60(sp)
   1757c:	3b1060ef          	jal	ra,1e12c <__subdf3>
   17580:	0000c697          	auipc	a3,0xc
   17584:	1f068693          	addi	a3,a3,496 # 23770 <__SDATA_BEGIN__+0x8>
   17588:	02412703          	lw	a4,36(sp)
   1758c:	0006a603          	lw	a2,0(a3)
   17590:	0046a683          	lw	a3,4(a3)
   17594:	01970733          	add	a4,a4,s9
   17598:	fff70a93          	addi	s5,a4,-1
   1759c:	02e12023          	sw	a4,32(sp)
   175a0:	4d0060ef          	jal	ra,1da70 <__muldf3>
   175a4:	0000c697          	auipc	a3,0xc
   175a8:	1d468693          	addi	a3,a3,468 # 23778 <__SDATA_BEGIN__+0x10>
   175ac:	0006a603          	lw	a2,0(a3)
   175b0:	0046a683          	lw	a3,4(a3)
   175b4:	04912023          	sw	s1,64(sp)
   175b8:	250050ef          	jal	ra,1c808 <__adddf3>
   175bc:	00050c13          	mv	s8,a0
   175c0:	000a8513          	mv	a0,s5
   175c4:	00058493          	mv	s1,a1
   175c8:	438070ef          	jal	ra,1ea00 <__floatsidf>
   175cc:	0000c697          	auipc	a3,0xc
   175d0:	1b468693          	addi	a3,a3,436 # 23780 <__SDATA_BEGIN__+0x18>
   175d4:	0006a603          	lw	a2,0(a3)
   175d8:	0046a683          	lw	a3,4(a3)
   175dc:	494060ef          	jal	ra,1da70 <__muldf3>
   175e0:	00050613          	mv	a2,a0
   175e4:	00058693          	mv	a3,a1
   175e8:	000c0513          	mv	a0,s8
   175ec:	00048593          	mv	a1,s1
   175f0:	218050ef          	jal	ra,1c808 <__adddf3>
   175f4:	00050c13          	mv	s8,a0
   175f8:	00058493          	mv	s1,a1
   175fc:	000a8513          	mv	a0,s5
   17600:	000ad863          	bgez	s5,17610 <__gdtoa+0x23c>
   17604:	02012703          	lw	a4,32(sp)
   17608:	00100513          	li	a0,1
   1760c:	40e50533          	sub	a0,a0,a4
   17610:	bcb50513          	addi	a0,a0,-1077
   17614:	02a05c63          	blez	a0,1764c <__gdtoa+0x278>
   17618:	3e8070ef          	jal	ra,1ea00 <__floatsidf>
   1761c:	0000c697          	auipc	a3,0xc
   17620:	16c68693          	addi	a3,a3,364 # 23788 <__SDATA_BEGIN__+0x20>
   17624:	0006a603          	lw	a2,0(a3)
   17628:	0046a683          	lw	a3,4(a3)
   1762c:	444060ef          	jal	ra,1da70 <__muldf3>
   17630:	00050613          	mv	a2,a0
   17634:	00058693          	mv	a3,a1
   17638:	000c0513          	mv	a0,s8
   1763c:	00048593          	mv	a1,s1
   17640:	1c8050ef          	jal	ra,1c808 <__adddf3>
   17644:	00050c13          	mv	s8,a0
   17648:	00058493          	mv	s1,a1
   1764c:	00048593          	mv	a1,s1
   17650:	000c0513          	mv	a0,s8
   17654:	32c070ef          	jal	ra,1e980 <__fixdfsi>
   17658:	00050813          	mv	a6,a0
   1765c:	00048593          	mv	a1,s1
   17660:	000c0513          	mv	a0,s8
   17664:	00000613          	li	a2,0
   17668:	00000693          	li	a3,0
   1766c:	01012c23          	sw	a6,24(sp)
   17670:	2f0060ef          	jal	ra,1d960 <__ledf2>
   17674:	02055463          	bgez	a0,1769c <__gdtoa+0x2c8>
   17678:	01812503          	lw	a0,24(sp)
   1767c:	384070ef          	jal	ra,1ea00 <__floatsidf>
   17680:	000c0613          	mv	a2,s8
   17684:	00048693          	mv	a3,s1
   17688:	13c060ef          	jal	ra,1d7c4 <__eqdf2>
   1768c:	01812783          	lw	a5,24(sp)
   17690:	00a03533          	snez	a0,a0
   17694:	40a787b3          	sub	a5,a5,a0
   17698:	00f12c23          	sw	a5,24(sp)
   1769c:	01c12783          	lw	a5,28(sp)
   176a0:	415c84b3          	sub	s1,s9,s5
   176a4:	014a9613          	slli	a2,s5,0x14
   176a8:	00f60ab3          	add	s5,a2,a5
   176ac:	fff48793          	addi	a5,s1,-1
   176b0:	00f12e23          	sw	a5,28(sp)
   176b4:	01812783          	lw	a5,24(sp)
   176b8:	01600693          	li	a3,22
   176bc:	5af6ee63          	bltu	a3,a5,17c78 <__gdtoa+0x8a4>
   176c0:	0000b317          	auipc	t1,0xb
   176c4:	d1030313          	addi	t1,t1,-752 # 223d0 <__mprec_tens>
   176c8:	00379693          	slli	a3,a5,0x3
   176cc:	00d306b3          	add	a3,t1,a3
   176d0:	03c12883          	lw	a7,60(sp)
   176d4:	0006a503          	lw	a0,0(a3)
   176d8:	0046a583          	lw	a1,4(a3)
   176dc:	00088613          	mv	a2,a7
   176e0:	000a8693          	mv	a3,s5
   176e4:	16c060ef          	jal	ra,1d850 <__gedf2>
   176e8:	14a040e3          	bgtz	a0,18028 <__gdtoa+0xc54>
   176ec:	04012423          	sw	zero,72(sp)
   176f0:	02012423          	sw	zero,40(sp)
   176f4:	00904a63          	bgtz	s1,17708 <__gdtoa+0x334>
   176f8:	00100693          	li	a3,1
   176fc:	409687b3          	sub	a5,a3,s1
   17700:	02f12423          	sw	a5,40(sp)
   17704:	00012e23          	sw	zero,28(sp)
   17708:	01c12703          	lw	a4,28(sp)
   1770c:	01812783          	lw	a5,24(sp)
   17710:	02012823          	sw	zero,48(sp)
   17714:	00f70733          	add	a4,a4,a5
   17718:	00e12e23          	sw	a4,28(sp)
   1771c:	02f12a23          	sw	a5,52(sp)
   17720:	00900693          	li	a3,9
   17724:	5bb6ec63          	bltu	a3,s11,17cdc <__gdtoa+0x908>
   17728:	00500693          	li	a3,5
   1772c:	11b6c8e3          	blt	a3,s11,1803c <__gdtoa+0xc68>
   17730:	02012783          	lw	a5,32(sp)
   17734:	00400613          	li	a2,4
   17738:	3fd78793          	addi	a5,a5,1021
   1773c:	7f87b493          	sltiu	s1,a5,2040
   17740:	00cd9463          	bne	s11,a2,17748 <__gdtoa+0x374>
   17744:	7bd0006f          	j	18700 <__gdtoa+0x132c>
   17748:	62dd84e3          	beq	s11,a3,18570 <__gdtoa+0x119c>
   1774c:	00200693          	li	a3,2
   17750:	30dd9ce3          	bne	s11,a3,18268 <__gdtoa+0xe94>
   17754:	02012c23          	sw	zero,56(sp)
   17758:	01412583          	lw	a1,20(sp)
   1775c:	00b04463          	bgtz	a1,17764 <__gdtoa+0x390>
   17760:	00100593          	li	a1,1
   17764:	00058693          	mv	a3,a1
   17768:	04b12623          	sw	a1,76(sp)
   1776c:	02b12023          	sw	a1,32(sp)
   17770:	00b12a23          	sw	a1,20(sp)
   17774:	00040513          	mv	a0,s0
   17778:	06d12e23          	sw	a3,124(sp)
   1777c:	7a8010ef          	jal	ra,18f24 <__rv_alloc_D2A>
   17780:	00050c13          	mv	s8,a0
   17784:	4e050063          	beqz	a0,17c64 <__gdtoa+0x890>
   17788:	00c9a783          	lw	a5,12(s3)
   1778c:	fff78793          	addi	a5,a5,-1
   17790:	02f12623          	sw	a5,44(sp)
   17794:	5a078663          	beqz	a5,17d40 <__gdtoa+0x96c>
   17798:	0807c2e3          	bltz	a5,1801c <__gdtoa+0xc48>
   1779c:	100b7e93          	andi	t4,s6,256
   177a0:	580e9863          	bnez	t4,17d30 <__gdtoa+0x95c>
   177a4:	02412783          	lw	a5,36(sp)
   177a8:	0007c863          	bltz	a5,177b8 <__gdtoa+0x3e4>
   177ac:	03412783          	lw	a5,52(sp)
   177b0:	00e00693          	li	a3,14
   177b4:	0cf6dae3          	bge	a3,a5,18088 <__gdtoa+0xcb4>
   177b8:	03812783          	lw	a5,56(sp)
   177bc:	040788e3          	beqz	a5,1800c <__gdtoa+0xc38>
   177c0:	02412783          	lw	a5,36(sp)
   177c4:	419d0e33          	sub	t3,s10,s9
   177c8:	0049a683          	lw	a3,4(s3)
   177cc:	001e0613          	addi	a2,t3,1
   177d0:	06c12e23          	sw	a2,124(sp)
   177d4:	41c78e33          	sub	t3,a5,t3
   177d8:	54de5ce3          	bge	t3,a3,18530 <__gdtoa+0x115c>
   177dc:	ffdd8613          	addi	a2,s11,-3
   177e0:	ffd67613          	andi	a2,a2,-3
   177e4:	460600e3          	beqz	a2,18444 <__gdtoa+0x1070>
   177e8:	40d786b3          	sub	a3,a5,a3
   177ec:	00168693          	addi	a3,a3,1
   177f0:	06d12e23          	sw	a3,124(sp)
   177f4:	00100613          	li	a2,1
   177f8:	01b65c63          	bge	a2,s11,17810 <__gdtoa+0x43c>
   177fc:	02012783          	lw	a5,32(sp)
   17800:	00f05863          	blez	a5,17810 <__gdtoa+0x43c>
   17804:	02012783          	lw	a5,32(sp)
   17808:	00d7d463          	bge	a5,a3,17810 <__gdtoa+0x43c>
   1780c:	5180106f          	j	18d24 <__gdtoa+0x1950>
   17810:	02812783          	lw	a5,40(sp)
   17814:	01c12703          	lw	a4,28(sp)
   17818:	03012d03          	lw	s10,48(sp)
   1781c:	00078b13          	mv	s6,a5
   17820:	00d70733          	add	a4,a4,a3
   17824:	00f687b3          	add	a5,a3,a5
   17828:	00e12e23          	sw	a4,28(sp)
   1782c:	02f12423          	sw	a5,40(sp)
   17830:	00100593          	li	a1,1
   17834:	00040513          	mv	a0,s0
   17838:	0d8020ef          	jal	ra,19910 <__i2b>
   1783c:	00050a93          	mv	s5,a0
   17840:	42050263          	beqz	a0,17c64 <__gdtoa+0x890>
   17844:	020b0c63          	beqz	s6,1787c <__gdtoa+0x4a8>
   17848:	01c12783          	lw	a5,28(sp)
   1784c:	02f05863          	blez	a5,1787c <__gdtoa+0x4a8>
   17850:	000b0693          	mv	a3,s6
   17854:	0167d463          	bge	a5,s6,1785c <__gdtoa+0x488>
   17858:	00078693          	mv	a3,a5
   1785c:	02812783          	lw	a5,40(sp)
   17860:	06d12e23          	sw	a3,124(sp)
   17864:	40db0b33          	sub	s6,s6,a3
   17868:	40d787b3          	sub	a5,a5,a3
   1786c:	02f12423          	sw	a5,40(sp)
   17870:	01c12783          	lw	a5,28(sp)
   17874:	40d787b3          	sub	a5,a5,a3
   17878:	00f12e23          	sw	a5,28(sp)
   1787c:	03012783          	lw	a5,48(sp)
   17880:	02078463          	beqz	a5,178a8 <__gdtoa+0x4d4>
   17884:	03812783          	lw	a5,56(sp)
   17888:	00078463          	beqz	a5,17890 <__gdtoa+0x4bc>
   1788c:	580d1ae3          	bnez	s10,18620 <__gdtoa+0x124c>
   17890:	01012583          	lw	a1,16(sp)
   17894:	03012603          	lw	a2,48(sp)
   17898:	00040513          	mv	a0,s0
   1789c:	3d0020ef          	jal	ra,19c6c <__pow5mult>
   178a0:	00a12823          	sw	a0,16(sp)
   178a4:	3c050063          	beqz	a0,17c64 <__gdtoa+0x890>
   178a8:	00100593          	li	a1,1
   178ac:	00040513          	mv	a0,s0
   178b0:	060020ef          	jal	ra,19910 <__i2b>
   178b4:	00050313          	mv	t1,a0
   178b8:	3a050663          	beqz	a0,17c64 <__gdtoa+0x890>
   178bc:	01812783          	lw	a5,24(sp)
   178c0:	420792e3          	bnez	a5,184e4 <__gdtoa+0x1110>
   178c4:	00100693          	li	a3,1
   178c8:	17b6d4e3          	bge	a3,s11,18230 <__gdtoa+0xe5c>
   178cc:	01f00993          	li	s3,31
   178d0:	01c12783          	lw	a5,28(sp)
   178d4:	40f989b3          	sub	s3,s3,a5
   178d8:	02812783          	lw	a5,40(sp)
   178dc:	ffc98993          	addi	s3,s3,-4
   178e0:	01f9f993          	andi	s3,s3,31
   178e4:	01378633          	add	a2,a5,s3
   178e8:	07312e23          	sw	s3,124(sp)
   178ec:	00098793          	mv	a5,s3
   178f0:	22c042e3          	bgtz	a2,18314 <__gdtoa+0xf40>
   178f4:	01c12703          	lw	a4,28(sp)
   178f8:	00f70633          	add	a2,a4,a5
   178fc:	34c04a63          	bgtz	a2,17c50 <__gdtoa+0x87c>
   17900:	04812783          	lw	a5,72(sp)
   17904:	22079ae3          	bnez	a5,18338 <__gdtoa+0xf64>
   17908:	02012783          	lw	a5,32(sp)
   1790c:	36f052e3          	blez	a5,18470 <__gdtoa+0x109c>
   17910:	03812783          	lw	a5,56(sp)
   17914:	26078ee3          	beqz	a5,18390 <__gdtoa+0xfbc>
   17918:	01698633          	add	a2,s3,s6
   1791c:	5ac040e3          	bgtz	a2,186bc <__gdtoa+0x12e8>
   17920:	01812703          	lw	a4,24(sp)
   17924:	000a8793          	mv	a5,s5
   17928:	60071ce3          	bnez	a4,18740 <__gdtoa+0x136c>
   1792c:	000c0c93          	mv	s9,s8
   17930:	01812a23          	sw	s8,20(sp)
   17934:	01712c23          	sw	s7,24(sp)
   17938:	00100693          	li	a3,1
   1793c:	01012b83          	lw	s7,16(sp)
   17940:	00200493          	li	s1,2
   17944:	00030913          	mv	s2,t1
   17948:	00078c13          	mv	s8,a5
   1794c:	0b00006f          	j	179fc <__gdtoa+0x628>
   17950:	00040513          	mv	a0,s0
   17954:	391010ef          	jal	ra,194e4 <_Bfree>
   17958:	0009d463          	bgez	s3,17960 <__gdtoa+0x58c>
   1795c:	7890006f          	j	188e4 <__gdtoa+0x1510>
   17960:	013de9b3          	or	s3,s11,s3
   17964:	00099a63          	bnez	s3,17978 <__gdtoa+0x5a4>
   17968:	000a2783          	lw	a5,0(s4)
   1796c:	0017f793          	andi	a5,a5,1
   17970:	00079463          	bnez	a5,17978 <__gdtoa+0x5a4>
   17974:	7710006f          	j	188e4 <__gdtoa+0x1510>
   17978:	02c12783          	lw	a5,44(sp)
   1797c:	00978463          	beq	a5,s1,17984 <__gdtoa+0x5b0>
   17980:	2d00106f          	j	18c50 <__gdtoa+0x187c>
   17984:	01ac8023          	sb	s10,0(s9)
   17988:	07c12783          	lw	a5,124(sp)
   1798c:	02012703          	lw	a4,32(sp)
   17990:	001c8c93          	addi	s9,s9,1
   17994:	00f71463          	bne	a4,a5,1799c <__gdtoa+0x5c8>
   17998:	1d40106f          	j	18b6c <__gdtoa+0x1798>
   1799c:	000b8593          	mv	a1,s7
   179a0:	00000693          	li	a3,0
   179a4:	00a00613          	li	a2,10
   179a8:	00040513          	mv	a0,s0
   179ac:	35d010ef          	jal	ra,19508 <__multadd>
   179b0:	00050b93          	mv	s7,a0
   179b4:	2a050863          	beqz	a0,17c64 <__gdtoa+0x890>
   179b8:	000a8593          	mv	a1,s5
   179bc:	00000693          	li	a3,0
   179c0:	00a00613          	li	a2,10
   179c4:	00040513          	mv	a0,s0
   179c8:	0b8a88e3          	beq	s5,s8,18278 <__gdtoa+0xea4>
   179cc:	33d010ef          	jal	ra,19508 <__multadd>
   179d0:	00050a93          	mv	s5,a0
   179d4:	28050863          	beqz	a0,17c64 <__gdtoa+0x890>
   179d8:	000c0593          	mv	a1,s8
   179dc:	00000693          	li	a3,0
   179e0:	00a00613          	li	a2,10
   179e4:	00040513          	mv	a0,s0
   179e8:	321010ef          	jal	ra,19508 <__multadd>
   179ec:	00050c13          	mv	s8,a0
   179f0:	26050a63          	beqz	a0,17c64 <__gdtoa+0x890>
   179f4:	07c12683          	lw	a3,124(sp)
   179f8:	00168693          	addi	a3,a3,1
   179fc:	00090593          	mv	a1,s2
   17a00:	000b8513          	mv	a0,s7
   17a04:	06d12e23          	sw	a3,124(sp)
   17a08:	638010ef          	jal	ra,19040 <__quorem_D2A>
   17a0c:	00050b13          	mv	s6,a0
   17a10:	000a8593          	mv	a1,s5
   17a14:	000b8513          	mv	a0,s7
   17a18:	534020ef          	jal	ra,19f4c <__mcmp>
   17a1c:	00090593          	mv	a1,s2
   17a20:	00050993          	mv	s3,a0
   17a24:	000c0613          	mv	a2,s8
   17a28:	00040513          	mv	a0,s0
   17a2c:	578020ef          	jal	ra,19fa4 <__mdiff>
   17a30:	00050593          	mv	a1,a0
   17a34:	030b0d13          	addi	s10,s6,48
   17a38:	22050663          	beqz	a0,17c64 <__gdtoa+0x890>
   17a3c:	00c52783          	lw	a5,12(a0)
   17a40:	f00798e3          	bnez	a5,17950 <__gdtoa+0x57c>
   17a44:	00a12823          	sw	a0,16(sp)
   17a48:	000b8513          	mv	a0,s7
   17a4c:	500020ef          	jal	ra,19f4c <__mcmp>
   17a50:	01012583          	lw	a1,16(sp)
   17a54:	00050693          	mv	a3,a0
   17a58:	00dde633          	or	a2,s11,a3
   17a5c:	00040513          	mv	a0,s0
   17a60:	00d12423          	sw	a3,8(sp)
   17a64:	00c12823          	sw	a2,16(sp)
   17a68:	27d010ef          	jal	ra,194e4 <_Bfree>
   17a6c:	01012603          	lw	a2,16(sp)
   17a70:	00812683          	lw	a3,8(sp)
   17a74:	00060463          	beqz	a2,17a7c <__gdtoa+0x6a8>
   17a78:	4340106f          	j	18eac <__gdtoa+0x1ad8>
   17a7c:	000a2783          	lw	a5,0(s4)
   17a80:	0017f793          	andi	a5,a5,1
   17a84:	000794e3          	bnez	a5,1828c <__gdtoa+0xeb8>
   17a88:	02c12783          	lw	a5,44(sp)
   17a8c:	00079463          	bnez	a5,17a94 <__gdtoa+0x6c0>
   17a90:	3280106f          	j	18db8 <__gdtoa+0x19e4>
   17a94:	ef3048e3          	bgtz	s3,17984 <__gdtoa+0x5b0>
   17a98:	01712823          	sw	s7,16(sp)
   17a9c:	01012703          	lw	a4,16(sp)
   17aa0:	00090313          	mv	t1,s2
   17aa4:	00060913          	mv	s2,a2
   17aa8:	01072603          	lw	a2,16(a4)
   17aac:	00100693          	li	a3,1
   17ab0:	000c0793          	mv	a5,s8
   17ab4:	01812b83          	lw	s7,24(sp)
   17ab8:	01412c03          	lw	s8,20(sp)
   17abc:	00c6c463          	blt	a3,a2,17ac4 <__gdtoa+0x6f0>
   17ac0:	3dc0106f          	j	18e9c <__gdtoa+0x1ac8>
   17ac4:	02c12703          	lw	a4,44(sp)
   17ac8:	00200693          	li	a3,2
   17acc:	00d71463          	bne	a4,a3,17ad4 <__gdtoa+0x700>
   17ad0:	37c0106f          	j	18e4c <__gdtoa+0x1a78>
   17ad4:	01012903          	lw	s2,16(sp)
   17ad8:	00078a13          	mv	s4,a5
   17adc:	00030b13          	mv	s6,t1
   17ae0:	0240006f          	j	17b04 <__gdtoa+0x730>
   17ae4:	225010ef          	jal	ra,19508 <__multadd>
   17ae8:	000b0593          	mv	a1,s6
   17aec:	00050913          	mv	s2,a0
   17af0:	16050a63          	beqz	a0,17c64 <__gdtoa+0x890>
   17af4:	54c010ef          	jal	ra,19040 <__quorem_D2A>
   17af8:	03050d13          	addi	s10,a0,48
   17afc:	00098c93          	mv	s9,s3
   17b00:	00048a13          	mv	s4,s1
   17b04:	000a0593          	mv	a1,s4
   17b08:	000b0513          	mv	a0,s6
   17b0c:	440020ef          	jal	ra,19f4c <__mcmp>
   17b10:	00050793          	mv	a5,a0
   17b14:	000a0593          	mv	a1,s4
   17b18:	00000693          	li	a3,0
   17b1c:	00a00613          	li	a2,10
   17b20:	00040513          	mv	a0,s0
   17b24:	001c8993          	addi	s3,s9,1
   17b28:	00f04463          	bgtz	a5,17b30 <__gdtoa+0x75c>
   17b2c:	3000106f          	j	18e2c <__gdtoa+0x1a58>
   17b30:	ffa98fa3          	sb	s10,-1(s3)
   17b34:	1d5010ef          	jal	ra,19508 <__multadd>
   17b38:	00050493          	mv	s1,a0
   17b3c:	00090593          	mv	a1,s2
   17b40:	00000693          	li	a3,0
   17b44:	00a00613          	li	a2,10
   17b48:	00040513          	mv	a0,s0
   17b4c:	10048c63          	beqz	s1,17c64 <__gdtoa+0x890>
   17b50:	f94a9ae3          	bne	s5,s4,17ae4 <__gdtoa+0x710>
   17b54:	00048a93          	mv	s5,s1
   17b58:	f8dff06f          	j	17ae4 <__gdtoa+0x710>
   17b5c:	00400793          	li	a5,4
   17b60:	10f31263          	bne	t1,a5,17c64 <__gdtoa+0x890>
   17b64:	00012703          	lw	a4,0(sp)
   17b68:	00412603          	lw	a2,4(sp)
   17b6c:	ffff87b7          	lui	a5,0xffff8
   17b70:	00f72023          	sw	a5,0(a4)
   17b74:	00300693          	li	a3,3
   17b78:	0000a597          	auipc	a1,0xa
   17b7c:	77858593          	addi	a1,a1,1912 # 222f0 <blanks.1+0x74>
   17b80:	0b812403          	lw	s0,184(sp)
   17b84:	0bc12083          	lw	ra,188(sp)
   17b88:	0b412483          	lw	s1,180(sp)
   17b8c:	0b012903          	lw	s2,176(sp)
   17b90:	0ac12983          	lw	s3,172(sp)
   17b94:	0a812a03          	lw	s4,168(sp)
   17b98:	0a412a83          	lw	s5,164(sp)
   17b9c:	0a012b03          	lw	s6,160(sp)
   17ba0:	09c12b83          	lw	s7,156(sp)
   17ba4:	09812c03          	lw	s8,152(sp)
   17ba8:	09412c83          	lw	s9,148(sp)
   17bac:	09012d03          	lw	s10,144(sp)
   17bb0:	08c12d83          	lw	s11,140(sp)
   17bb4:	0c010113          	addi	sp,sp,192
   17bb8:	3bc0106f          	j	18f74 <__nrv_alloc_D2A>
   17bbc:	00078593          	mv	a1,a5
   17bc0:	00040513          	mv	a0,s0
   17bc4:	121010ef          	jal	ra,194e4 <_Bfree>
   17bc8:	00012703          	lw	a4,0(sp)
   17bcc:	00412603          	lw	a2,4(sp)
   17bd0:	00100793          	li	a5,1
   17bd4:	00f72023          	sw	a5,0(a4)
   17bd8:	00100693          	li	a3,1
   17bdc:	0000a597          	auipc	a1,0xa
   17be0:	2cc58593          	addi	a1,a1,716 # 21ea8 <__clzsi2+0x190>
   17be4:	00040513          	mv	a0,s0
   17be8:	38c010ef          	jal	ra,18f74 <__nrv_alloc_D2A>
   17bec:	00050c13          	mv	s8,a0
   17bf0:	0bc12083          	lw	ra,188(sp)
   17bf4:	0b812403          	lw	s0,184(sp)
   17bf8:	0b412483          	lw	s1,180(sp)
   17bfc:	0b012903          	lw	s2,176(sp)
   17c00:	0ac12983          	lw	s3,172(sp)
   17c04:	0a812a03          	lw	s4,168(sp)
   17c08:	0a412a83          	lw	s5,164(sp)
   17c0c:	0a012b03          	lw	s6,160(sp)
   17c10:	09c12b83          	lw	s7,156(sp)
   17c14:	09412c83          	lw	s9,148(sp)
   17c18:	09012d03          	lw	s10,144(sp)
   17c1c:	08c12d83          	lw	s11,140(sp)
   17c20:	000c0513          	mv	a0,s8
   17c24:	09812c03          	lw	s8,152(sp)
   17c28:	0c010113          	addi	sp,sp,192
   17c2c:	00008067          	ret
   17c30:	00012703          	lw	a4,0(sp)
   17c34:	ffff87b7          	lui	a5,0xffff8
   17c38:	00412603          	lw	a2,4(sp)
   17c3c:	00f72023          	sw	a5,0(a4)
   17c40:	00800693          	li	a3,8
   17c44:	0000a597          	auipc	a1,0xa
   17c48:	6a058593          	addi	a1,a1,1696 # 222e4 <blanks.1+0x68>
   17c4c:	f35ff06f          	j	17b80 <__gdtoa+0x7ac>
   17c50:	00030593          	mv	a1,t1
   17c54:	00040513          	mv	a0,s0
   17c58:	164020ef          	jal	ra,19dbc <__lshift>
   17c5c:	00050313          	mv	t1,a0
   17c60:	ca0510e3          	bnez	a0,17900 <__gdtoa+0x52c>
   17c64:	00000c13          	li	s8,0
   17c68:	f89ff06f          	j	17bf0 <__gdtoa+0x81c>
   17c6c:	01012783          	lw	a5,16(sp)
   17c70:	0007a823          	sw	zero,16(a5) # ffff8010 <__BSS_END__+0xfffd450c>
   17c74:	8a9ff06f          	j	1751c <__gdtoa+0x148>
   17c78:	00100793          	li	a5,1
   17c7c:	04f12423          	sw	a5,72(sp)
   17c80:	02012423          	sw	zero,40(sp)
   17c84:	fff48793          	addi	a5,s1,-1
   17c88:	3607c863          	bltz	a5,17ff8 <__gdtoa+0xc24>
   17c8c:	01812783          	lw	a5,24(sp)
   17c90:	a607dce3          	bgez	a5,17708 <__gdtoa+0x334>
   17c94:	01812783          	lw	a5,24(sp)
   17c98:	02812703          	lw	a4,40(sp)
   17c9c:	00012c23          	sw	zero,24(sp)
   17ca0:	02f12a23          	sw	a5,52(sp)
   17ca4:	40f70733          	sub	a4,a4,a5
   17ca8:	02e12423          	sw	a4,40(sp)
   17cac:	40f00733          	neg	a4,a5
   17cb0:	02e12823          	sw	a4,48(sp)
   17cb4:	a6dff06f          	j	17720 <__gdtoa+0x34c>
   17cb8:	00050593          	mv	a1,a0
   17cbc:	01012503          	lw	a0,16(sp)
   17cc0:	5c4010ef          	jal	ra,19284 <__rshift_D2A>
   17cc4:	07c12683          	lw	a3,124(sp)
   17cc8:	00812783          	lw	a5,8(sp)
   17ccc:	40dc8cb3          	sub	s9,s9,a3
   17cd0:	00f687b3          	add	a5,a3,a5
   17cd4:	02f12223          	sw	a5,36(sp)
   17cd8:	85dff06f          	j	17534 <__gdtoa+0x160>
   17cdc:	02012783          	lw	a5,32(sp)
   17ce0:	00000d93          	li	s11,0
   17ce4:	3fd78793          	addi	a5,a5,1021
   17ce8:	7f87b493          	sltiu	s1,a5,2040
   17cec:	000d0513          	mv	a0,s10
   17cf0:	511060ef          	jal	ra,1ea00 <__floatsidf>
   17cf4:	0000c697          	auipc	a3,0xc
   17cf8:	a9c68693          	addi	a3,a3,-1380 # 23790 <__SDATA_BEGIN__+0x28>
   17cfc:	0006a603          	lw	a2,0(a3)
   17d00:	0046a683          	lw	a3,4(a3)
   17d04:	00100793          	li	a5,1
   17d08:	02f12c23          	sw	a5,56(sp)
   17d0c:	00012a23          	sw	zero,20(sp)
   17d10:	561050ef          	jal	ra,1da70 <__muldf3>
   17d14:	46d060ef          	jal	ra,1e980 <__fixdfsi>
   17d18:	fff00793          	li	a5,-1
   17d1c:	00350593          	addi	a1,a0,3
   17d20:	00058693          	mv	a3,a1
   17d24:	04f12623          	sw	a5,76(sp)
   17d28:	02f12023          	sw	a5,32(sp)
   17d2c:	a49ff06f          	j	17774 <__gdtoa+0x3a0>
   17d30:	02c12783          	lw	a5,44(sp)
   17d34:	00300693          	li	a3,3
   17d38:	40f687b3          	sub	a5,a3,a5
   17d3c:	02f12623          	sw	a5,44(sp)
   17d40:	02012783          	lw	a5,32(sp)
   17d44:	00e00693          	li	a3,14
   17d48:	a4f6eee3          	bltu	a3,a5,177a4 <__gdtoa+0x3d0>
   17d4c:	a4048ce3          	beqz	s1,177a4 <__gdtoa+0x3d0>
   17d50:	02c12703          	lw	a4,44(sp)
   17d54:	03412683          	lw	a3,52(sp)
   17d58:	00d766b3          	or	a3,a4,a3
   17d5c:	a40694e3          	bnez	a3,177a4 <__gdtoa+0x3d0>
   17d60:	03c12483          	lw	s1,60(sp)
   17d64:	04812703          	lw	a4,72(sp)
   17d68:	06012e23          	sw	zero,124(sp)
   17d6c:	02912623          	sw	s1,44(sp)
   17d70:	03512e23          	sw	s5,60(sp)
   17d74:	02070263          	beqz	a4,17d98 <__gdtoa+0x9c4>
   17d78:	0000c697          	auipc	a3,0xc
   17d7c:	a2068693          	addi	a3,a3,-1504 # 23798 <__SDATA_BEGIN__+0x30>
   17d80:	0006a603          	lw	a2,0(a3)
   17d84:	0046a683          	lw	a3,4(a3)
   17d88:	00048513          	mv	a0,s1
   17d8c:	000a8593          	mv	a1,s5
   17d90:	3d1050ef          	jal	ra,1d960 <__ledf2>
   17d94:	5e054ce3          	bltz	a0,18b8c <__gdtoa+0x17b8>
   17d98:	02c12783          	lw	a5,44(sp)
   17d9c:	00078613          	mv	a2,a5
   17da0:	00078513          	mv	a0,a5
   17da4:	03c12783          	lw	a5,60(sp)
   17da8:	00078693          	mv	a3,a5
   17dac:	00078593          	mv	a1,a5
   17db0:	259040ef          	jal	ra,1c808 <__adddf3>
   17db4:	0000c697          	auipc	a3,0xc
   17db8:	9fc68693          	addi	a3,a3,-1540 # 237b0 <__SDATA_BEGIN__+0x48>
   17dbc:	0006a603          	lw	a2,0(a3)
   17dc0:	0046a683          	lw	a3,4(a3)
   17dc4:	245040ef          	jal	ra,1c808 <__adddf3>
   17dc8:	fcc00737          	lui	a4,0xfcc00
   17dcc:	00b70b33          	add	s6,a4,a1
   17dd0:	02012703          	lw	a4,32(sp)
   17dd4:	00050793          	mv	a5,a0
   17dd8:	1e0708e3          	beqz	a4,187c8 <__gdtoa+0x13f4>
   17ddc:	02012703          	lw	a4,32(sp)
   17de0:	04012a23          	sw	zero,84(sp)
   17de4:	04e12823          	sw	a4,80(sp)
   17de8:	02c12703          	lw	a4,44(sp)
   17dec:	04e12c23          	sw	a4,88(sp)
   17df0:	03c12703          	lw	a4,60(sp)
   17df4:	04e12e23          	sw	a4,92(sp)
   17df8:	05012703          	lw	a4,80(sp)
   17dfc:	03812583          	lw	a1,56(sp)
   17e00:	0000a317          	auipc	t1,0xa
   17e04:	5d030313          	addi	t1,t1,1488 # 223d0 <__mprec_tens>
   17e08:	fff70693          	addi	a3,a4,-1 # fcbfffff <__BSS_END__+0xfcbdc4fb>
   17e0c:	00369693          	slli	a3,a3,0x3
   17e10:	00d306b3          	add	a3,t1,a3
   17e14:	0006a603          	lw	a2,0(a3)
   17e18:	000b0493          	mv	s1,s6
   17e1c:	0046a683          	lw	a3,4(a3)
   17e20:	3c0580e3          	beqz	a1,189e0 <__gdtoa+0x160c>
   17e24:	0000c597          	auipc	a1,0xc
   17e28:	99c58593          	addi	a1,a1,-1636 # 237c0 <__SDATA_BEGIN__+0x58>
   17e2c:	0005a503          	lw	a0,0(a1)
   17e30:	0045a583          	lw	a1,4(a1)
   17e34:	06612623          	sw	t1,108(sp)
   17e38:	04f12023          	sw	a5,64(sp)
   17e3c:	1b8050ef          	jal	ra,1cff4 <__divdf3>
   17e40:	04012783          	lw	a5,64(sp)
   17e44:	00048693          	mv	a3,s1
   17e48:	001c0b13          	addi	s6,s8,1
   17e4c:	00078613          	mv	a2,a5
   17e50:	2dc060ef          	jal	ra,1e12c <__subdf3>
   17e54:	05812a83          	lw	s5,88(sp)
   17e58:	05c12483          	lw	s1,92(sp)
   17e5c:	00050613          	mv	a2,a0
   17e60:	00058693          	mv	a3,a1
   17e64:	000a8513          	mv	a0,s5
   17e68:	00048593          	mv	a1,s1
   17e6c:	04c12c23          	sw	a2,88(sp)
   17e70:	04d12e23          	sw	a3,92(sp)
   17e74:	30d060ef          	jal	ra,1e980 <__fixdfsi>
   17e78:	04a12023          	sw	a0,64(sp)
   17e7c:	385060ef          	jal	ra,1ea00 <__floatsidf>
   17e80:	00050613          	mv	a2,a0
   17e84:	00058693          	mv	a3,a1
   17e88:	000a8513          	mv	a0,s5
   17e8c:	00048593          	mv	a1,s1
   17e90:	29c060ef          	jal	ra,1e12c <__subdf3>
   17e94:	04012e83          	lw	t4,64(sp)
   17e98:	00050493          	mv	s1,a0
   17e9c:	00058a93          	mv	s5,a1
   17ea0:	00050613          	mv	a2,a0
   17ea4:	00058693          	mv	a3,a1
   17ea8:	05812503          	lw	a0,88(sp)
   17eac:	05c12583          	lw	a1,92(sp)
   17eb0:	030e8e93          	addi	t4,t4,48
   17eb4:	01dc0023          	sb	t4,0(s8)
   17eb8:	199050ef          	jal	ra,1d850 <__gedf2>
   17ebc:	62a046e3          	bgtz	a0,18ce8 <__gdtoa+0x1914>
   17ec0:	0000c697          	auipc	a3,0xc
   17ec4:	8d868693          	addi	a3,a3,-1832 # 23798 <__SDATA_BEGIN__+0x30>
   17ec8:	0006a783          	lw	a5,0(a3)
   17ecc:	0046a803          	lw	a6,4(a3)
   17ed0:	07a12023          	sw	s10,96(sp)
   17ed4:	07912223          	sw	s9,100(sp)
   17ed8:	05012d03          	lw	s10,80(sp)
   17edc:	07212423          	sw	s2,104(sp)
   17ee0:	05c12c83          	lw	s9,92(sp)
   17ee4:	05812903          	lw	s2,88(sp)
   17ee8:	04f12023          	sw	a5,64(sp)
   17eec:	05012223          	sw	a6,68(sp)
   17ef0:	04812823          	sw	s0,80(sp)
   17ef4:	0900006f          	j	17f84 <__gdtoa+0xbb0>
   17ef8:	07c12783          	lw	a5,124(sp)
   17efc:	001b0b13          	addi	s6,s6,1
   17f00:	00178793          	addi	a5,a5,1
   17f04:	06f12e23          	sw	a5,124(sp)
   17f08:	65a7dae3          	bge	a5,s10,18d5c <__gdtoa+0x1988>
   17f0c:	0000c417          	auipc	s0,0xc
   17f10:	89440413          	addi	s0,s0,-1900 # 237a0 <__SDATA_BEGIN__+0x38>
   17f14:	00042603          	lw	a2,0(s0)
   17f18:	00442683          	lw	a3,4(s0)
   17f1c:	355050ef          	jal	ra,1da70 <__muldf3>
   17f20:	00042603          	lw	a2,0(s0)
   17f24:	00442683          	lw	a3,4(s0)
   17f28:	00050913          	mv	s2,a0
   17f2c:	00058c93          	mv	s9,a1
   17f30:	00048513          	mv	a0,s1
   17f34:	000a8593          	mv	a1,s5
   17f38:	339050ef          	jal	ra,1da70 <__muldf3>
   17f3c:	00058a93          	mv	s5,a1
   17f40:	00050413          	mv	s0,a0
   17f44:	23d060ef          	jal	ra,1e980 <__fixdfsi>
   17f48:	00050493          	mv	s1,a0
   17f4c:	2b5060ef          	jal	ra,1ea00 <__floatsidf>
   17f50:	00050613          	mv	a2,a0
   17f54:	00058693          	mv	a3,a1
   17f58:	00040513          	mv	a0,s0
   17f5c:	000a8593          	mv	a1,s5
   17f60:	1cc060ef          	jal	ra,1e12c <__subdf3>
   17f64:	03048793          	addi	a5,s1,48
   17f68:	00090613          	mv	a2,s2
   17f6c:	000c8693          	mv	a3,s9
   17f70:	fefb0fa3          	sb	a5,-1(s6)
   17f74:	00050493          	mv	s1,a0
   17f78:	00058a93          	mv	s5,a1
   17f7c:	1e5050ef          	jal	ra,1d960 <__ledf2>
   17f80:	560542e3          	bltz	a0,18ce4 <__gdtoa+0x1910>
   17f84:	04012503          	lw	a0,64(sp)
   17f88:	04412583          	lw	a1,68(sp)
   17f8c:	00048613          	mv	a2,s1
   17f90:	000a8693          	mv	a3,s5
   17f94:	198060ef          	jal	ra,1e12c <__subdf3>
   17f98:	00090613          	mv	a2,s2
   17f9c:	000c8693          	mv	a3,s9
   17fa0:	1c1050ef          	jal	ra,1d960 <__ledf2>
   17fa4:	00050793          	mv	a5,a0
   17fa8:	000c8593          	mv	a1,s9
   17fac:	00090513          	mv	a0,s2
   17fb0:	f407d4e3          	bgez	a5,17ef8 <__gdtoa+0xb24>
   17fb4:	05412783          	lw	a5,84(sp)
   17fb8:	05012403          	lw	s0,80(sp)
   17fbc:	fffb4d03          	lbu	s10,-1(s6)
   17fc0:	00178d93          	addi	s11,a5,1
   17fc4:	03900693          	li	a3,57
   17fc8:	0100006f          	j	17fd8 <__gdtoa+0xc04>
   17fcc:	20fc04e3          	beq	s8,a5,189d4 <__gdtoa+0x1600>
   17fd0:	fff7cd03          	lbu	s10,-1(a5)
   17fd4:	00078b13          	mv	s6,a5
   17fd8:	fffb0793          	addi	a5,s6,-1
   17fdc:	fedd08e3          	beq	s10,a3,17fcc <__gdtoa+0xbf8>
   17fe0:	001d0693          	addi	a3,s10,1
   17fe4:	0ff6f693          	zext.b	a3,a3
   17fe8:	00d78023          	sb	a3,0(a5)
   17fec:	000d8d13          	mv	s10,s11
   17ff0:	02000913          	li	s2,32
   17ff4:	2080006f          	j	181fc <__gdtoa+0xe28>
   17ff8:	00100693          	li	a3,1
   17ffc:	409687b3          	sub	a5,a3,s1
   18000:	02f12423          	sw	a5,40(sp)
   18004:	00012e23          	sw	zero,28(sp)
   18008:	c85ff06f          	j	17c8c <__gdtoa+0x8b8>
   1800c:	03012d03          	lw	s10,48(sp)
   18010:	02812b03          	lw	s6,40(sp)
   18014:	00000a93          	li	s5,0
   18018:	82dff06f          	j	17844 <__gdtoa+0x470>
   1801c:	00200793          	li	a5,2
   18020:	02f12623          	sw	a5,44(sp)
   18024:	f78ff06f          	j	1779c <__gdtoa+0x3c8>
   18028:	01812783          	lw	a5,24(sp)
   1802c:	04012423          	sw	zero,72(sp)
   18030:	fff78793          	addi	a5,a5,-1
   18034:	00f12c23          	sw	a5,24(sp)
   18038:	c49ff06f          	j	17c80 <__gdtoa+0x8ac>
   1803c:	ffcd8d93          	addi	s11,s11,-4
   18040:	00400613          	li	a2,4
   18044:	6acd8663          	beq	s11,a2,186f0 <__gdtoa+0x131c>
   18048:	68dd8c63          	beq	s11,a3,186e0 <__gdtoa+0x130c>
   1804c:	00200693          	li	a3,2
   18050:	02012c23          	sw	zero,56(sp)
   18054:	00000493          	li	s1,0
   18058:	f0dd8063          	beq	s11,a3,17758 <__gdtoa+0x384>
   1805c:	00300d93          	li	s11,3
   18060:	01412783          	lw	a5,20(sp)
   18064:	03412703          	lw	a4,52(sp)
   18068:	00e787b3          	add	a5,a5,a4
   1806c:	04f12623          	sw	a5,76(sp)
   18070:	00178793          	addi	a5,a5,1
   18074:	02f12023          	sw	a5,32(sp)
   18078:	46f05063          	blez	a5,184d8 <__gdtoa+0x1104>
   1807c:	00078693          	mv	a3,a5
   18080:	00078593          	mv	a1,a5
   18084:	ef0ff06f          	j	17774 <__gdtoa+0x3a0>
   18088:	00379693          	slli	a3,a5,0x3
   1808c:	0000a797          	auipc	a5,0xa
   18090:	34478793          	addi	a5,a5,836 # 223d0 <__mprec_tens>
   18094:	00d787b3          	add	a5,a5,a3
   18098:	0047a803          	lw	a6,4(a5)
   1809c:	0007a783          	lw	a5,0(a5)
   180a0:	01012623          	sw	a6,12(sp)
   180a4:	00f12423          	sw	a5,8(sp)
   180a8:	01412783          	lw	a5,20(sp)
   180ac:	4c07cc63          	bltz	a5,18584 <__gdtoa+0x11b0>
   180b0:	00812d03          	lw	s10,8(sp)
   180b4:	00c12d83          	lw	s11,12(sp)
   180b8:	04012c83          	lw	s9,64(sp)
   180bc:	00100793          	li	a5,1
   180c0:	000d0613          	mv	a2,s10
   180c4:	000d8693          	mv	a3,s11
   180c8:	000a8593          	mv	a1,s5
   180cc:	000c8513          	mv	a0,s9
   180d0:	06f12e23          	sw	a5,124(sp)
   180d4:	721040ef          	jal	ra,1cff4 <__divdf3>
   180d8:	0a9060ef          	jal	ra,1e980 <__fixdfsi>
   180dc:	00050993          	mv	s3,a0
   180e0:	121060ef          	jal	ra,1ea00 <__floatsidf>
   180e4:	000d0613          	mv	a2,s10
   180e8:	000d8693          	mv	a3,s11
   180ec:	185050ef          	jal	ra,1da70 <__muldf3>
   180f0:	00050613          	mv	a2,a0
   180f4:	00058693          	mv	a3,a1
   180f8:	000c8513          	mv	a0,s9
   180fc:	000a8593          	mv	a1,s5
   18100:	02c060ef          	jal	ra,1e12c <__subdf3>
   18104:	03098793          	addi	a5,s3,48
   18108:	00fc0023          	sb	a5,0(s8)
   1810c:	03412783          	lw	a5,52(sp)
   18110:	00000613          	li	a2,0
   18114:	00000693          	li	a3,0
   18118:	00178d93          	addi	s11,a5,1
   1811c:	00050a93          	mv	s5,a0
   18120:	00058a13          	mv	s4,a1
   18124:	6a0050ef          	jal	ra,1d7c4 <__eqdf2>
   18128:	001c0b13          	addi	s6,s8,1
   1812c:	000d8d13          	mv	s10,s11
   18130:	0c050663          	beqz	a0,181fc <__gdtoa+0xe28>
   18134:	01212c23          	sw	s2,24(sp)
   18138:	01b12a23          	sw	s11,20(sp)
   1813c:	000a8913          	mv	s2,s5
   18140:	000a0d93          	mv	s11,s4
   18144:	02012483          	lw	s1,32(sp)
   18148:	00812a03          	lw	s4,8(sp)
   1814c:	00c12a83          	lw	s5,12(sp)
   18150:	0000bc97          	auipc	s9,0xb
   18154:	650c8c93          	addi	s9,s9,1616 # 237a0 <__SDATA_BEGIN__+0x38>
   18158:	0780006f          	j	181d0 <__gdtoa+0xdfc>
   1815c:	000ca603          	lw	a2,0(s9)
   18160:	004ca683          	lw	a3,4(s9)
   18164:	07012e23          	sw	a6,124(sp)
   18168:	001b0b13          	addi	s6,s6,1
   1816c:	105050ef          	jal	ra,1da70 <__muldf3>
   18170:	000a0613          	mv	a2,s4
   18174:	000a8693          	mv	a3,s5
   18178:	00050d93          	mv	s11,a0
   1817c:	00058913          	mv	s2,a1
   18180:	675040ef          	jal	ra,1cff4 <__divdf3>
   18184:	7fc060ef          	jal	ra,1e980 <__fixdfsi>
   18188:	00050993          	mv	s3,a0
   1818c:	075060ef          	jal	ra,1ea00 <__floatsidf>
   18190:	000a0613          	mv	a2,s4
   18194:	000a8693          	mv	a3,s5
   18198:	0d9050ef          	jal	ra,1da70 <__muldf3>
   1819c:	00050613          	mv	a2,a0
   181a0:	00058693          	mv	a3,a1
   181a4:	000d8513          	mv	a0,s11
   181a8:	00090593          	mv	a1,s2
   181ac:	781050ef          	jal	ra,1e12c <__subdf3>
   181b0:	03098793          	addi	a5,s3,48
   181b4:	fefb0fa3          	sb	a5,-1(s6)
   181b8:	00000613          	li	a2,0
   181bc:	00000693          	li	a3,0
   181c0:	00050913          	mv	s2,a0
   181c4:	00058d93          	mv	s11,a1
   181c8:	5fc050ef          	jal	ra,1d7c4 <__eqdf2>
   181cc:	3a050863          	beqz	a0,1857c <__gdtoa+0x11a8>
   181d0:	07c12683          	lw	a3,124(sp)
   181d4:	00090513          	mv	a0,s2
   181d8:	000d8593          	mv	a1,s11
   181dc:	00168813          	addi	a6,a3,1
   181e0:	f6969ee3          	bne	a3,s1,1815c <__gdtoa+0xd88>
   181e4:	02c12703          	lw	a4,44(sp)
   181e8:	01412d83          	lw	s11,20(sp)
   181ec:	76070e63          	beqz	a4,18968 <__gdtoa+0x1594>
   181f0:	00100793          	li	a5,1
   181f4:	01000913          	li	s2,16
   181f8:	20f70ee3          	beq	a4,a5,18c14 <__gdtoa+0x1840>
   181fc:	01012583          	lw	a1,16(sp)
   18200:	00040513          	mv	a0,s0
   18204:	2e0010ef          	jal	ra,194e4 <_Bfree>
   18208:	00012783          	lw	a5,0(sp)
   1820c:	000b0023          	sb	zero,0(s6)
   18210:	01a7a023          	sw	s10,0(a5)
   18214:	00412783          	lw	a5,4(sp)
   18218:	00078463          	beqz	a5,18220 <__gdtoa+0xe4c>
   1821c:	0167a023          	sw	s6,0(a5)
   18220:	000ba783          	lw	a5,0(s7)
   18224:	0127e7b3          	or	a5,a5,s2
   18228:	00fba023          	sw	a5,0(s7)
   1822c:	9c5ff06f          	j	17bf0 <__gdtoa+0x81c>
   18230:	e8dc9e63          	bne	s9,a3,178cc <__gdtoa+0x4f8>
   18234:	0049a783          	lw	a5,4(s3)
   18238:	00812703          	lw	a4,8(sp)
   1823c:	00178793          	addi	a5,a5,1
   18240:	e8e7d663          	bge	a5,a4,178cc <__gdtoa+0x4f8>
   18244:	02812783          	lw	a5,40(sp)
   18248:	00178793          	addi	a5,a5,1
   1824c:	02f12423          	sw	a5,40(sp)
   18250:	01c12783          	lw	a5,28(sp)
   18254:	00178793          	addi	a5,a5,1
   18258:	00f12e23          	sw	a5,28(sp)
   1825c:	00100793          	li	a5,1
   18260:	00f12c23          	sw	a5,24(sp)
   18264:	e68ff06f          	j	178cc <__gdtoa+0x4f8>
   18268:	00300693          	li	a3,3
   1826c:	02012c23          	sw	zero,56(sp)
   18270:	dedd88e3          	beq	s11,a3,18060 <__gdtoa+0xc8c>
   18274:	a79ff06f          	j	17cec <__gdtoa+0x918>
   18278:	290010ef          	jal	ra,19508 <__multadd>
   1827c:	00050a93          	mv	s5,a0
   18280:	9e0502e3          	beqz	a0,17c64 <__gdtoa+0x890>
   18284:	00050c13          	mv	s8,a0
   18288:	f6cff06f          	j	179f4 <__gdtoa+0x620>
   1828c:	ee09dc63          	bgez	s3,17984 <__gdtoa+0x5b0>
   18290:	02c12703          	lw	a4,44(sp)
   18294:	01712823          	sw	s7,16(sp)
   18298:	000c0793          	mv	a5,s8
   1829c:	00090313          	mv	t1,s2
   182a0:	01412c03          	lw	s8,20(sp)
   182a4:	01812b83          	lw	s7,24(sp)
   182a8:	00060913          	mv	s2,a2
   182ac:	3c071ee3          	bnez	a4,18e88 <__gdtoa+0x1ab4>
   182b0:	01012703          	lw	a4,16(sp)
   182b4:	00100693          	li	a3,1
   182b8:	01000913          	li	s2,16
   182bc:	01072603          	lw	a2,16(a4)
   182c0:	001c8993          	addi	s3,s9,1
   182c4:	34c6d6e3          	bge	a3,a2,18e10 <__gdtoa+0x1a3c>
   182c8:	000a8a13          	mv	s4,s5
   182cc:	00098b13          	mv	s6,s3
   182d0:	01ac8023          	sb	s10,0(s9)
   182d4:	00078a93          	mv	s5,a5
   182d8:	00030593          	mv	a1,t1
   182dc:	00040513          	mv	a0,s0
   182e0:	204010ef          	jal	ra,194e4 <_Bfree>
   182e4:	03412783          	lw	a5,52(sp)
   182e8:	00178d13          	addi	s10,a5,1
   182ec:	f00a88e3          	beqz	s5,181fc <__gdtoa+0xe28>
   182f0:	000a0a63          	beqz	s4,18304 <__gdtoa+0xf30>
   182f4:	015a0863          	beq	s4,s5,18304 <__gdtoa+0xf30>
   182f8:	000a0593          	mv	a1,s4
   182fc:	00040513          	mv	a0,s0
   18300:	1e4010ef          	jal	ra,194e4 <_Bfree>
   18304:	000a8593          	mv	a1,s5
   18308:	00040513          	mv	a0,s0
   1830c:	1d8010ef          	jal	ra,194e4 <_Bfree>
   18310:	eedff06f          	j	181fc <__gdtoa+0xe28>
   18314:	01012583          	lw	a1,16(sp)
   18318:	00040513          	mv	a0,s0
   1831c:	00612423          	sw	t1,8(sp)
   18320:	29d010ef          	jal	ra,19dbc <__lshift>
   18324:	00a12823          	sw	a0,16(sp)
   18328:	92050ee3          	beqz	a0,17c64 <__gdtoa+0x890>
   1832c:	07c12783          	lw	a5,124(sp)
   18330:	00812303          	lw	t1,8(sp)
   18334:	dc0ff06f          	j	178f4 <__gdtoa+0x520>
   18338:	01012503          	lw	a0,16(sp)
   1833c:	00030593          	mv	a1,t1
   18340:	00612423          	sw	t1,8(sp)
   18344:	409010ef          	jal	ra,19f4c <__mcmp>
   18348:	00812303          	lw	t1,8(sp)
   1834c:	da055e63          	bgez	a0,17908 <__gdtoa+0x534>
   18350:	01012583          	lw	a1,16(sp)
   18354:	00000693          	li	a3,0
   18358:	00a00613          	li	a2,10
   1835c:	00040513          	mv	a0,s0
   18360:	1a8010ef          	jal	ra,19508 <__multadd>
   18364:	03412703          	lw	a4,52(sp)
   18368:	00a12823          	sw	a0,16(sp)
   1836c:	fff70713          	addi	a4,a4,-1
   18370:	02e12a23          	sw	a4,52(sp)
   18374:	8e0508e3          	beqz	a0,17c64 <__gdtoa+0x890>
   18378:	03812783          	lw	a5,56(sp)
   1837c:	00812303          	lw	t1,8(sp)
   18380:	10079ee3          	bnez	a5,18c9c <__gdtoa+0x18c8>
   18384:	04c12783          	lw	a5,76(sp)
   18388:	1cf05a63          	blez	a5,1855c <__gdtoa+0x1188>
   1838c:	02f12023          	sw	a5,32(sp)
   18390:	02012903          	lw	s2,32(sp)
   18394:	01012483          	lw	s1,16(sp)
   18398:	000c0c93          	mv	s9,s8
   1839c:	00100793          	li	a5,1
   183a0:	00030993          	mv	s3,t1
   183a4:	0180006f          	j	183bc <__gdtoa+0xfe8>
   183a8:	160010ef          	jal	ra,19508 <__multadd>
   183ac:	00050493          	mv	s1,a0
   183b0:	8a050ae3          	beqz	a0,17c64 <__gdtoa+0x890>
   183b4:	07c12783          	lw	a5,124(sp)
   183b8:	00178793          	addi	a5,a5,1
   183bc:	00098593          	mv	a1,s3
   183c0:	00048513          	mv	a0,s1
   183c4:	06f12e23          	sw	a5,124(sp)
   183c8:	479000ef          	jal	ra,19040 <__quorem_D2A>
   183cc:	03050d13          	addi	s10,a0,48
   183d0:	01ac8023          	sb	s10,0(s9)
   183d4:	07c12783          	lw	a5,124(sp)
   183d8:	00048593          	mv	a1,s1
   183dc:	00000693          	li	a3,0
   183e0:	00a00613          	li	a2,10
   183e4:	00040513          	mv	a0,s0
   183e8:	001c8c93          	addi	s9,s9,1
   183ec:	fb27cee3          	blt	a5,s2,183a8 <__gdtoa+0xfd4>
   183f0:	00912823          	sw	s1,16(sp)
   183f4:	00098313          	mv	t1,s3
   183f8:	00000a13          	li	s4,0
   183fc:	02c12703          	lw	a4,44(sp)
   18400:	46070663          	beqz	a4,1886c <__gdtoa+0x1498>
   18404:	01012603          	lw	a2,16(sp)
   18408:	00200793          	li	a5,2
   1840c:	01062683          	lw	a3,16(a2)
   18410:	48f70c63          	beq	a4,a5,188a8 <__gdtoa+0x14d4>
   18414:	00100793          	li	a5,1
   18418:	26d7cc63          	blt	a5,a3,18690 <__gdtoa+0x12bc>
   1841c:	01462783          	lw	a5,20(a2)
   18420:	26079863          	bnez	a5,18690 <__gdtoa+0x12bc>
   18424:	00f037b3          	snez	a5,a5
   18428:	00479913          	slli	s2,a5,0x4
   1842c:	03000693          	li	a3,48
   18430:	fffcc783          	lbu	a5,-1(s9)
   18434:	000c8b13          	mv	s6,s9
   18438:	fffc8c93          	addi	s9,s9,-1
   1843c:	fed78ae3          	beq	a5,a3,18430 <__gdtoa+0x105c>
   18440:	e99ff06f          	j	182d8 <__gdtoa+0xf04>
   18444:	02012783          	lw	a5,32(sp)
   18448:	03012703          	lw	a4,48(sp)
   1844c:	fff78693          	addi	a3,a5,-1
   18450:	18d74663          	blt	a4,a3,185dc <__gdtoa+0x1208>
   18454:	40d70d33          	sub	s10,a4,a3
   18458:	7c07d263          	bgez	a5,18c1c <__gdtoa+0x1848>
   1845c:	02812783          	lw	a5,40(sp)
   18460:	02012703          	lw	a4,32(sp)
   18464:	06012e23          	sw	zero,124(sp)
   18468:	40e78b33          	sub	s6,a5,a4
   1846c:	bc4ff06f          	j	17830 <__gdtoa+0x45c>
   18470:	00200793          	li	a5,2
   18474:	c9b7de63          	bge	a5,s11,17910 <__gdtoa+0x53c>
   18478:	00030593          	mv	a1,t1
   1847c:	00000693          	li	a3,0
   18480:	00500613          	li	a2,5
   18484:	00040513          	mv	a0,s0
   18488:	080010ef          	jal	ra,19508 <__multadd>
   1848c:	00050593          	mv	a1,a0
   18490:	fc050a63          	beqz	a0,17c64 <__gdtoa+0x890>
   18494:	02012783          	lw	a5,32(sp)
   18498:	12079863          	bnez	a5,185c8 <__gdtoa+0x11f4>
   1849c:	00a12423          	sw	a0,8(sp)
   184a0:	01012503          	lw	a0,16(sp)
   184a4:	2a9010ef          	jal	ra,19f4c <__mcmp>
   184a8:	00812583          	lw	a1,8(sp)
   184ac:	10a05e63          	blez	a0,185c8 <__gdtoa+0x11f4>
   184b0:	03412783          	lw	a5,52(sp)
   184b4:	00278d13          	addi	s10,a5,2
   184b8:	03100793          	li	a5,49
   184bc:	001c0b13          	addi	s6,s8,1
   184c0:	00fc0023          	sb	a5,0(s8)
   184c4:	02000913          	li	s2,32
   184c8:	00040513          	mv	a0,s0
   184cc:	018010ef          	jal	ra,194e4 <_Bfree>
   184d0:	d20a86e3          	beqz	s5,181fc <__gdtoa+0xe28>
   184d4:	e31ff06f          	j	18304 <__gdtoa+0xf30>
   184d8:	00100693          	li	a3,1
   184dc:	00100593          	li	a1,1
   184e0:	a94ff06f          	j	17774 <__gdtoa+0x3a0>
   184e4:	00050593          	mv	a1,a0
   184e8:	00078613          	mv	a2,a5
   184ec:	00040513          	mv	a0,s0
   184f0:	77c010ef          	jal	ra,19c6c <__pow5mult>
   184f4:	00050313          	mv	t1,a0
   184f8:	f6050663          	beqz	a0,17c64 <__gdtoa+0x890>
   184fc:	00100693          	li	a3,1
   18500:	21b6d663          	bge	a3,s11,1870c <__gdtoa+0x1338>
   18504:	01032783          	lw	a5,16(t1)
   18508:	00612423          	sw	t1,8(sp)
   1850c:	01212c23          	sw	s2,24(sp)
   18510:	00378793          	addi	a5,a5,3
   18514:	00279793          	slli	a5,a5,0x2
   18518:	00f307b3          	add	a5,t1,a5
   1851c:	0047a503          	lw	a0,4(a5)
   18520:	298010ef          	jal	ra,197b8 <__hi0bits>
   18524:	00812303          	lw	t1,8(sp)
   18528:	00050993          	mv	s3,a0
   1852c:	ba4ff06f          	j	178d0 <__gdtoa+0x4fc>
   18530:	00100693          	li	a3,1
   18534:	f1b6c8e3          	blt	a3,s11,18444 <__gdtoa+0x1070>
   18538:	02812783          	lw	a5,40(sp)
   1853c:	01c12703          	lw	a4,28(sp)
   18540:	03012d03          	lw	s10,48(sp)
   18544:	00078b13          	mv	s6,a5
   18548:	00c70733          	add	a4,a4,a2
   1854c:	00f607b3          	add	a5,a2,a5
   18550:	00e12e23          	sw	a4,28(sp)
   18554:	02f12423          	sw	a5,40(sp)
   18558:	ad8ff06f          	j	17830 <__gdtoa+0x45c>
   1855c:	00200793          	li	a5,2
   18560:	0db7c0e3          	blt	a5,s11,18e20 <__gdtoa+0x1a4c>
   18564:	04c12783          	lw	a5,76(sp)
   18568:	02f12023          	sw	a5,32(sp)
   1856c:	e25ff06f          	j	18390 <__gdtoa+0xfbc>
   18570:	00100793          	li	a5,1
   18574:	02f12c23          	sw	a5,56(sp)
   18578:	ae9ff06f          	j	18060 <__gdtoa+0xc8c>
   1857c:	01812903          	lw	s2,24(sp)
   18580:	c7dff06f          	j	181fc <__gdtoa+0xe28>
   18584:	02012783          	lw	a5,32(sp)
   18588:	b2f044e3          	bgtz	a5,180b0 <__gdtoa+0xcdc>
   1858c:	02079a63          	bnez	a5,185c0 <__gdtoa+0x11ec>
   18590:	0000b797          	auipc	a5,0xb
   18594:	22878793          	addi	a5,a5,552 # 237b8 <__SDATA_BEGIN__+0x50>
   18598:	0007a603          	lw	a2,0(a5)
   1859c:	0047a683          	lw	a3,4(a5)
   185a0:	00812503          	lw	a0,8(sp)
   185a4:	00c12583          	lw	a1,12(sp)
   185a8:	4c8050ef          	jal	ra,1da70 <__muldf3>
   185ac:	04012883          	lw	a7,64(sp)
   185b0:	000a8693          	mv	a3,s5
   185b4:	00088613          	mv	a2,a7
   185b8:	298050ef          	jal	ra,1d850 <__gedf2>
   185bc:	6c054663          	bltz	a0,18c88 <__gdtoa+0x18b4>
   185c0:	00000593          	li	a1,0
   185c4:	00000a93          	li	s5,0
   185c8:	01412783          	lw	a5,20(sp)
   185cc:	000c0b13          	mv	s6,s8
   185d0:	01000913          	li	s2,16
   185d4:	40f00d33          	neg	s10,a5
   185d8:	ef1ff06f          	j	184c8 <__gdtoa+0x10f4>
   185dc:	03012783          	lw	a5,48(sp)
   185e0:	02812703          	lw	a4,40(sp)
   185e4:	00000d13          	li	s10,0
   185e8:	40f68633          	sub	a2,a3,a5
   185ec:	01812783          	lw	a5,24(sp)
   185f0:	00070b13          	mv	s6,a4
   185f4:	02d12823          	sw	a3,48(sp)
   185f8:	00c787b3          	add	a5,a5,a2
   185fc:	00f12c23          	sw	a5,24(sp)
   18600:	01c12603          	lw	a2,28(sp)
   18604:	02012783          	lw	a5,32(sp)
   18608:	00f60633          	add	a2,a2,a5
   1860c:	06f12e23          	sw	a5,124(sp)
   18610:	00f707b3          	add	a5,a4,a5
   18614:	00c12e23          	sw	a2,28(sp)
   18618:	02f12423          	sw	a5,40(sp)
   1861c:	a14ff06f          	j	17830 <__gdtoa+0x45c>
   18620:	000a8593          	mv	a1,s5
   18624:	000d0613          	mv	a2,s10
   18628:	00040513          	mv	a0,s0
   1862c:	640010ef          	jal	ra,19c6c <__pow5mult>
   18630:	00050a93          	mv	s5,a0
   18634:	e2050863          	beqz	a0,17c64 <__gdtoa+0x890>
   18638:	01012603          	lw	a2,16(sp)
   1863c:	00050593          	mv	a1,a0
   18640:	00040513          	mv	a0,s0
   18644:	37c010ef          	jal	ra,199c0 <__multiply>
   18648:	00050493          	mv	s1,a0
   1864c:	e0050c63          	beqz	a0,17c64 <__gdtoa+0x890>
   18650:	03012783          	lw	a5,48(sp)
   18654:	01012583          	lw	a1,16(sp)
   18658:	00040513          	mv	a0,s0
   1865c:	41a78d33          	sub	s10,a5,s10
   18660:	03a12823          	sw	s10,48(sp)
   18664:	681000ef          	jal	ra,194e4 <_Bfree>
   18668:	00912823          	sw	s1,16(sp)
   1866c:	a20d0e63          	beqz	s10,178a8 <__gdtoa+0x4d4>
   18670:	a20ff06f          	j	17890 <__gdtoa+0x4bc>
   18674:	000a8a13          	mv	s4,s5
   18678:	000c8693          	mv	a3,s9
   1867c:	001c8993          	addi	s3,s9,1
   18680:	00078a93          	mv	s5,a5
   18684:	03900793          	li	a5,57
   18688:	00098c93          	mv	s9,s3
   1868c:	00f68023          	sb	a5,0(a3)
   18690:	03900693          	li	a3,57
   18694:	0080006f          	j	1869c <__gdtoa+0x12c8>
   18698:	239c0863          	beq	s8,s9,188c8 <__gdtoa+0x14f4>
   1869c:	fffcc783          	lbu	a5,-1(s9)
   186a0:	000c8b13          	mv	s6,s9
   186a4:	fffc8c93          	addi	s9,s9,-1
   186a8:	fed788e3          	beq	a5,a3,18698 <__gdtoa+0x12c4>
   186ac:	00178793          	addi	a5,a5,1
   186b0:	00fc8023          	sb	a5,0(s9)
   186b4:	02000913          	li	s2,32
   186b8:	c21ff06f          	j	182d8 <__gdtoa+0xf04>
   186bc:	000a8593          	mv	a1,s5
   186c0:	00040513          	mv	a0,s0
   186c4:	00612423          	sw	t1,8(sp)
   186c8:	6f4010ef          	jal	ra,19dbc <__lshift>
   186cc:	00812303          	lw	t1,8(sp)
   186d0:	00050a93          	mv	s5,a0
   186d4:	a4051663          	bnez	a0,17920 <__gdtoa+0x54c>
   186d8:	00000c13          	li	s8,0
   186dc:	d14ff06f          	j	17bf0 <__gdtoa+0x81c>
   186e0:	00100793          	li	a5,1
   186e4:	00000493          	li	s1,0
   186e8:	02f12c23          	sw	a5,56(sp)
   186ec:	975ff06f          	j	18060 <__gdtoa+0xc8c>
   186f0:	00100793          	li	a5,1
   186f4:	00000493          	li	s1,0
   186f8:	02f12c23          	sw	a5,56(sp)
   186fc:	85cff06f          	j	17758 <__gdtoa+0x384>
   18700:	00100793          	li	a5,1
   18704:	02f12c23          	sw	a5,56(sp)
   18708:	850ff06f          	j	17758 <__gdtoa+0x384>
   1870c:	dedc9ce3          	bne	s9,a3,18504 <__gdtoa+0x1130>
   18710:	0049a783          	lw	a5,4(s3)
   18714:	00812703          	lw	a4,8(sp)
   18718:	00178793          	addi	a5,a5,1
   1871c:	dee7d4e3          	bge	a5,a4,18504 <__gdtoa+0x1130>
   18720:	02812783          	lw	a5,40(sp)
   18724:	00100913          	li	s2,1
   18728:	00178793          	addi	a5,a5,1
   1872c:	02f12423          	sw	a5,40(sp)
   18730:	01c12783          	lw	a5,28(sp)
   18734:	00178793          	addi	a5,a5,1
   18738:	00f12e23          	sw	a5,28(sp)
   1873c:	dc9ff06f          	j	18504 <__gdtoa+0x1130>
   18740:	004aa583          	lw	a1,4(s5)
   18744:	00040513          	mv	a0,s0
   18748:	00612423          	sw	t1,8(sp)
   1874c:	4f1000ef          	jal	ra,1943c <_Balloc>
   18750:	00050993          	mv	s3,a0
   18754:	d0050863          	beqz	a0,17c64 <__gdtoa+0x890>
   18758:	010aa603          	lw	a2,16(s5)
   1875c:	00ca8593          	addi	a1,s5,12
   18760:	00c50513          	addi	a0,a0,12
   18764:	00260613          	addi	a2,a2,2
   18768:	00261613          	slli	a2,a2,0x2
   1876c:	d78f80ef          	jal	ra,10ce4 <memcpy>
   18770:	00100613          	li	a2,1
   18774:	00098593          	mv	a1,s3
   18778:	00040513          	mv	a0,s0
   1877c:	640010ef          	jal	ra,19dbc <__lshift>
   18780:	00812303          	lw	t1,8(sp)
   18784:	00050793          	mv	a5,a0
   18788:	9a051263          	bnez	a0,1792c <__gdtoa+0x558>
   1878c:	00000c13          	li	s8,0
   18790:	c60ff06f          	j	17bf0 <__gdtoa+0x81c>
   18794:	00048613          	mv	a2,s1
   18798:	000a8693          	mv	a3,s5
   1879c:	00048513          	mv	a0,s1
   187a0:	000a8593          	mv	a1,s5
   187a4:	064040ef          	jal	ra,1c808 <__adddf3>
   187a8:	0000b697          	auipc	a3,0xb
   187ac:	00868693          	addi	a3,a3,8 # 237b0 <__SDATA_BEGIN__+0x48>
   187b0:	0006a603          	lw	a2,0(a3)
   187b4:	0046a683          	lw	a3,4(a3)
   187b8:	050040ef          	jal	ra,1c808 <__adddf3>
   187bc:	fcc00737          	lui	a4,0xfcc00
   187c0:	00050793          	mv	a5,a0
   187c4:	00b70b33          	add	s6,a4,a1
   187c8:	0000b697          	auipc	a3,0xb
   187cc:	ff068693          	addi	a3,a3,-16 # 237b8 <__SDATA_BEGIN__+0x50>
   187d0:	0006a603          	lw	a2,0(a3)
   187d4:	02c12503          	lw	a0,44(sp)
   187d8:	0046a683          	lw	a3,4(a3)
   187dc:	03c12583          	lw	a1,60(sp)
   187e0:	04f12023          	sw	a5,64(sp)
   187e4:	149050ef          	jal	ra,1e12c <__subdf3>
   187e8:	04012783          	lw	a5,64(sp)
   187ec:	000b0693          	mv	a3,s6
   187f0:	00050a93          	mv	s5,a0
   187f4:	00078613          	mv	a2,a5
   187f8:	00058493          	mv	s1,a1
   187fc:	054050ef          	jal	ra,1d850 <__gedf2>
   18800:	44a04063          	bgtz	a0,18c40 <__gdtoa+0x186c>
   18804:	04012783          	lw	a5,64(sp)
   18808:	800008b7          	lui	a7,0x80000
   1880c:	0168c8b3          	xor	a7,a7,s6
   18810:	000a8513          	mv	a0,s5
   18814:	00078613          	mv	a2,a5
   18818:	00088693          	mv	a3,a7
   1881c:	00048593          	mv	a1,s1
   18820:	140050ef          	jal	ra,1d960 <__ledf2>
   18824:	d8054ee3          	bltz	a0,185c0 <__gdtoa+0x11ec>
   18828:	02c12783          	lw	a5,44(sp)
   1882c:	03c12a83          	lw	s5,60(sp)
   18830:	0000a317          	auipc	t1,0xa
   18834:	ba030313          	addi	t1,t1,-1120 # 223d0 <__mprec_tens>
   18838:	04f12023          	sw	a5,64(sp)
   1883c:	02412783          	lw	a5,36(sp)
   18840:	4c07ce63          	bltz	a5,18d1c <__gdtoa+0x1948>
   18844:	00032783          	lw	a5,0(t1)
   18848:	00432803          	lw	a6,4(t1)
   1884c:	02012623          	sw	zero,44(sp)
   18850:	00f12423          	sw	a5,8(sp)
   18854:	01412783          	lw	a5,20(sp)
   18858:	01012623          	sw	a6,12(sp)
   1885c:	8407dae3          	bgez	a5,180b0 <__gdtoa+0xcdc>
   18860:	02012783          	lw	a5,32(sp)
   18864:	840796e3          	bnez	a5,180b0 <__gdtoa+0xcdc>
   18868:	d29ff06f          	j	18590 <__gdtoa+0x11bc>
   1886c:	01012583          	lw	a1,16(sp)
   18870:	00100613          	li	a2,1
   18874:	00040513          	mv	a0,s0
   18878:	00612423          	sw	t1,8(sp)
   1887c:	540010ef          	jal	ra,19dbc <__lshift>
   18880:	00a12823          	sw	a0,16(sp)
   18884:	be050063          	beqz	a0,17c64 <__gdtoa+0x890>
   18888:	00812303          	lw	t1,8(sp)
   1888c:	00030593          	mv	a1,t1
   18890:	6bc010ef          	jal	ra,19f4c <__mcmp>
   18894:	00812303          	lw	t1,8(sp)
   18898:	dea04ce3          	bgtz	a0,18690 <__gdtoa+0x12bc>
   1889c:	00051663          	bnez	a0,188a8 <__gdtoa+0x14d4>
   188a0:	001d7d13          	andi	s10,s10,1
   188a4:	de0d16e3          	bnez	s10,18690 <__gdtoa+0x12bc>
   188a8:	01012783          	lw	a5,16(sp)
   188ac:	01000913          	li	s2,16
   188b0:	0107a683          	lw	a3,16(a5)
   188b4:	00100793          	li	a5,1
   188b8:	b6d7cae3          	blt	a5,a3,1842c <__gdtoa+0x1058>
   188bc:	01012783          	lw	a5,16(sp)
   188c0:	0147a783          	lw	a5,20(a5)
   188c4:	b61ff06f          	j	18424 <__gdtoa+0x1050>
   188c8:	03412783          	lw	a5,52(sp)
   188cc:	02000913          	li	s2,32
   188d0:	00178793          	addi	a5,a5,1
   188d4:	02f12a23          	sw	a5,52(sp)
   188d8:	03100793          	li	a5,49
   188dc:	00fc0023          	sb	a5,0(s8)
   188e0:	9f9ff06f          	j	182d8 <__gdtoa+0xf04>
   188e4:	02c12703          	lw	a4,44(sp)
   188e8:	01712823          	sw	s7,16(sp)
   188ec:	000c0793          	mv	a5,s8
   188f0:	01812b83          	lw	s7,24(sp)
   188f4:	01412c03          	lw	s8,20(sp)
   188f8:	00090313          	mv	t1,s2
   188fc:	00070e63          	beqz	a4,18918 <__gdtoa+0x1544>
   18900:	01012703          	lw	a4,16(sp)
   18904:	00100693          	li	a3,1
   18908:	01072603          	lw	a2,16(a4) # fcc00010 <__BSS_END__+0xfcbdc50c>
   1890c:	9ac6cc63          	blt	a3,a2,17ac4 <__gdtoa+0x6f0>
   18910:	01472683          	lw	a3,20(a4)
   18914:	9a069863          	bnez	a3,17ac4 <__gdtoa+0x6f0>
   18918:	01012583          	lw	a1,16(sp)
   1891c:	00100613          	li	a2,1
   18920:	00040513          	mv	a0,s0
   18924:	00612423          	sw	t1,8(sp)
   18928:	00f12a23          	sw	a5,20(sp)
   1892c:	490010ef          	jal	ra,19dbc <__lshift>
   18930:	00a12823          	sw	a0,16(sp)
   18934:	b2050863          	beqz	a0,17c64 <__gdtoa+0x890>
   18938:	00812303          	lw	t1,8(sp)
   1893c:	00030593          	mv	a1,t1
   18940:	60c010ef          	jal	ra,19f4c <__mcmp>
   18944:	00812303          	lw	t1,8(sp)
   18948:	01412783          	lw	a5,20(sp)
   1894c:	4aa05663          	blez	a0,18df8 <__gdtoa+0x1a24>
   18950:	03900693          	li	a3,57
   18954:	d2dd00e3          	beq	s10,a3,18674 <__gdtoa+0x12a0>
   18958:	02000713          	li	a4,32
   1895c:	031b0d13          	addi	s10,s6,49
   18960:	02e12623          	sw	a4,44(sp)
   18964:	94dff06f          	j	182b0 <__gdtoa+0xedc>
   18968:	00090613          	mv	a2,s2
   1896c:	00058693          	mv	a3,a1
   18970:	699030ef          	jal	ra,1c808 <__adddf3>
   18974:	00812603          	lw	a2,8(sp)
   18978:	00c12683          	lw	a3,12(sp)
   1897c:	00050a93          	mv	s5,a0
   18980:	00058a13          	mv	s4,a1
   18984:	6cd040ef          	jal	ra,1d850 <__gedf2>
   18988:	fffb4d03          	lbu	s10,-1(s6)
   1898c:	e2a04c63          	bgtz	a0,17fc4 <__gdtoa+0xbf0>
   18990:	00812603          	lw	a2,8(sp)
   18994:	00c12683          	lw	a3,12(sp)
   18998:	000a8513          	mv	a0,s5
   1899c:	000a0593          	mv	a1,s4
   189a0:	625040ef          	jal	ra,1d7c4 <__eqdf2>
   189a4:	00051663          	bnez	a0,189b0 <__gdtoa+0x15dc>
   189a8:	0019f993          	andi	s3,s3,1
   189ac:	e0099c63          	bnez	s3,17fc4 <__gdtoa+0xbf0>
   189b0:	000b0793          	mv	a5,s6
   189b4:	01000913          	li	s2,16
   189b8:	03000613          	li	a2,48
   189bc:	fff7c703          	lbu	a4,-1(a5)
   189c0:	00078b13          	mv	s6,a5
   189c4:	fff78793          	addi	a5,a5,-1
   189c8:	fec70ae3          	beq	a4,a2,189bc <__gdtoa+0x15e8>
   189cc:	000d8d13          	mv	s10,s11
   189d0:	82dff06f          	j	181fc <__gdtoa+0xe28>
   189d4:	03100693          	li	a3,49
   189d8:	001d8d93          	addi	s11,s11,1
   189dc:	e0cff06f          	j	17fe8 <__gdtoa+0xc14>
   189e0:	00078513          	mv	a0,a5
   189e4:	000b0593          	mv	a1,s6
   189e8:	06612623          	sw	t1,108(sp)
   189ec:	084050ef          	jal	ra,1da70 <__muldf3>
   189f0:	04012603          	lw	a2,64(sp)
   189f4:	04b12e23          	sw	a1,92(sp)
   189f8:	00100593          	li	a1,1
   189fc:	00060493          	mv	s1,a2
   18a00:	00060793          	mv	a5,a2
   18a04:	00000613          	li	a2,0
   18a08:	05512023          	sw	s5,64(sp)
   18a0c:	07212023          	sw	s2,96(sp)
   18a10:	06812223          	sw	s0,100(sp)
   18a14:	07312423          	sw	s3,104(sp)
   18a18:	00048d13          	mv	s10,s1
   18a1c:	000a8993          	mv	s3,s5
   18a20:	05012483          	lw	s1,80(sp)
   18a24:	04a12c23          	sw	a0,88(sp)
   18a28:	06b12e23          	sw	a1,124(sp)
   18a2c:	000c0b13          	mv	s6,s8
   18a30:	00060413          	mv	s0,a2
   18a34:	00078913          	mv	s2,a5
   18a38:	000a0a93          	mv	s5,s4
   18a3c:	0280006f          	j	18a64 <__gdtoa+0x1690>
   18a40:	0000b797          	auipc	a5,0xb
   18a44:	d6078793          	addi	a5,a5,-672 # 237a0 <__SDATA_BEGIN__+0x38>
   18a48:	0007a603          	lw	a2,0(a5)
   18a4c:	0047a683          	lw	a3,4(a5)
   18a50:	07112e23          	sw	a7,124(sp)
   18a54:	00100413          	li	s0,1
   18a58:	018050ef          	jal	ra,1da70 <__muldf3>
   18a5c:	00050913          	mv	s2,a0
   18a60:	00058993          	mv	s3,a1
   18a64:	00090513          	mv	a0,s2
   18a68:	00098593          	mv	a1,s3
   18a6c:	715050ef          	jal	ra,1e980 <__fixdfsi>
   18a70:	001b0b13          	addi	s6,s6,1
   18a74:	00050a13          	mv	s4,a0
   18a78:	02050463          	beqz	a0,18aa0 <__gdtoa+0x16cc>
   18a7c:	785050ef          	jal	ra,1ea00 <__floatsidf>
   18a80:	00050613          	mv	a2,a0
   18a84:	00058693          	mv	a3,a1
   18a88:	00090513          	mv	a0,s2
   18a8c:	00098593          	mv	a1,s3
   18a90:	69c050ef          	jal	ra,1e12c <__subdf3>
   18a94:	00050913          	mv	s2,a0
   18a98:	00058993          	mv	s3,a1
   18a9c:	00100413          	li	s0,1
   18aa0:	030a0713          	addi	a4,s4,48
   18aa4:	0ff77713          	zext.b	a4,a4
   18aa8:	feeb0fa3          	sb	a4,-1(s6)
   18aac:	07c12683          	lw	a3,124(sp)
   18ab0:	00090513          	mv	a0,s2
   18ab4:	00098593          	mv	a1,s3
   18ab8:	00168893          	addi	a7,a3,1
   18abc:	f89692e3          	bne	a3,s1,18a40 <__gdtoa+0x166c>
   18ac0:	00040613          	mv	a2,s0
   18ac4:	000d0493          	mv	s1,s10
   18ac8:	06412403          	lw	s0,100(sp)
   18acc:	06c12303          	lw	t1,108(sp)
   18ad0:	06012903          	lw	s2,96(sp)
   18ad4:	06812983          	lw	s3,104(sp)
   18ad8:	000a8a13          	mv	s4,s5
   18adc:	00070d13          	mv	s10,a4
   18ae0:	00060663          	beqz	a2,18aec <__gdtoa+0x1718>
   18ae4:	00050493          	mv	s1,a0
   18ae8:	04b12023          	sw	a1,64(sp)
   18aec:	0000ba97          	auipc	s5,0xb
   18af0:	cd4a8a93          	addi	s5,s5,-812 # 237c0 <__SDATA_BEGIN__+0x58>
   18af4:	000aa603          	lw	a2,0(s5)
   18af8:	004aa683          	lw	a3,4(s5)
   18afc:	05812503          	lw	a0,88(sp)
   18b00:	05c12583          	lw	a1,92(sp)
   18b04:	04612823          	sw	t1,80(sp)
   18b08:	501030ef          	jal	ra,1c808 <__adddf3>
   18b0c:	04012683          	lw	a3,64(sp)
   18b10:	00048613          	mv	a2,s1
   18b14:	64d040ef          	jal	ra,1d960 <__ledf2>
   18b18:	1e054c63          	bltz	a0,18d10 <__gdtoa+0x193c>
   18b1c:	05812603          	lw	a2,88(sp)
   18b20:	05c12683          	lw	a3,92(sp)
   18b24:	000aa503          	lw	a0,0(s5)
   18b28:	004aa583          	lw	a1,4(s5)
   18b2c:	600050ef          	jal	ra,1e12c <__subdf3>
   18b30:	04012683          	lw	a3,64(sp)
   18b34:	00048613          	mv	a2,s1
   18b38:	519040ef          	jal	ra,1d850 <__gedf2>
   18b3c:	05012303          	lw	t1,80(sp)
   18b40:	24a04663          	bgtz	a0,18d8c <__gdtoa+0x19b8>
   18b44:	02c12783          	lw	a5,44(sp)
   18b48:	03c12a83          	lw	s5,60(sp)
   18b4c:	04f12023          	sw	a5,64(sp)
   18b50:	02412783          	lw	a5,36(sp)
   18b54:	ce07d8e3          	bgez	a5,18844 <__gdtoa+0x1470>
   18b58:	03012d03          	lw	s10,48(sp)
   18b5c:	02812b03          	lw	s6,40(sp)
   18b60:	02012623          	sw	zero,44(sp)
   18b64:	00000a93          	li	s5,0
   18b68:	cddfe06f          	j	17844 <__gdtoa+0x470>
   18b6c:	000c0793          	mv	a5,s8
   18b70:	01712823          	sw	s7,16(sp)
   18b74:	000a8a13          	mv	s4,s5
   18b78:	01412c03          	lw	s8,20(sp)
   18b7c:	01812b83          	lw	s7,24(sp)
   18b80:	00090313          	mv	t1,s2
   18b84:	00078a93          	mv	s5,a5
   18b88:	875ff06f          	j	183fc <__gdtoa+0x1028>
   18b8c:	02012783          	lw	a5,32(sp)
   18b90:	c00782e3          	beqz	a5,18794 <__gdtoa+0x13c0>
   18b94:	04c12783          	lw	a5,76(sp)
   18b98:	c8f058e3          	blez	a5,18828 <__gdtoa+0x1454>
   18b9c:	0000b697          	auipc	a3,0xb
   18ba0:	c0468693          	addi	a3,a3,-1020 # 237a0 <__SDATA_BEGIN__+0x38>
   18ba4:	0006a603          	lw	a2,0(a3)
   18ba8:	0046a683          	lw	a3,4(a3)
   18bac:	00048513          	mv	a0,s1
   18bb0:	000a8593          	mv	a1,s5
   18bb4:	6bd040ef          	jal	ra,1da70 <__muldf3>
   18bb8:	0000b697          	auipc	a3,0xb
   18bbc:	bf068693          	addi	a3,a3,-1040 # 237a8 <__SDATA_BEGIN__+0x40>
   18bc0:	0006a603          	lw	a2,0(a3)
   18bc4:	0046a683          	lw	a3,4(a3)
   18bc8:	00050493          	mv	s1,a0
   18bcc:	04a12c23          	sw	a0,88(sp)
   18bd0:	00058a93          	mv	s5,a1
   18bd4:	04b12e23          	sw	a1,92(sp)
   18bd8:	699040ef          	jal	ra,1da70 <__muldf3>
   18bdc:	0000b697          	auipc	a3,0xb
   18be0:	bd468693          	addi	a3,a3,-1068 # 237b0 <__SDATA_BEGIN__+0x48>
   18be4:	0006a603          	lw	a2,0(a3)
   18be8:	0046a683          	lw	a3,4(a3)
   18bec:	04912023          	sw	s1,64(sp)
   18bf0:	419030ef          	jal	ra,1c808 <__adddf3>
   18bf4:	fcc00737          	lui	a4,0xfcc00
   18bf8:	00b70b33          	add	s6,a4,a1
   18bfc:	04c12703          	lw	a4,76(sp)
   18c00:	00050793          	mv	a5,a0
   18c04:	04e12823          	sw	a4,80(sp)
   18c08:	fff00713          	li	a4,-1
   18c0c:	04e12a23          	sw	a4,84(sp)
   18c10:	9e8ff06f          	j	17df8 <__gdtoa+0xa24>
   18c14:	fffb4d03          	lbu	s10,-1(s6)
   18c18:	bacff06f          	j	17fc4 <__gdtoa+0xbf0>
   18c1c:	02812703          	lw	a4,40(sp)
   18c20:	01c12683          	lw	a3,28(sp)
   18c24:	06f12e23          	sw	a5,124(sp)
   18c28:	00070b13          	mv	s6,a4
   18c2c:	00f686b3          	add	a3,a3,a5
   18c30:	00f707b3          	add	a5,a4,a5
   18c34:	00d12e23          	sw	a3,28(sp)
   18c38:	02f12423          	sw	a5,40(sp)
   18c3c:	bf5fe06f          	j	17830 <__gdtoa+0x45c>
   18c40:	00200d13          	li	s10,2
   18c44:	00000593          	li	a1,0
   18c48:	00000a93          	li	s5,0
   18c4c:	86dff06f          	j	184b8 <__gdtoa+0x10e4>
   18c50:	01712823          	sw	s7,16(sp)
   18c54:	03900693          	li	a3,57
   18c58:	000c0793          	mv	a5,s8
   18c5c:	01812b83          	lw	s7,24(sp)
   18c60:	01412c03          	lw	s8,20(sp)
   18c64:	00090313          	mv	t1,s2
   18c68:	a0dd06e3          	beq	s10,a3,18674 <__gdtoa+0x12a0>
   18c6c:	001d0d13          	addi	s10,s10,1
   18c70:	000a8a13          	mv	s4,s5
   18c74:	001c8b13          	addi	s6,s9,1
   18c78:	01ac8023          	sb	s10,0(s9)
   18c7c:	00078a93          	mv	s5,a5
   18c80:	02000913          	li	s2,32
   18c84:	e54ff06f          	j	182d8 <__gdtoa+0xf04>
   18c88:	03412783          	lw	a5,52(sp)
   18c8c:	00000593          	li	a1,0
   18c90:	00000a93          	li	s5,0
   18c94:	00278d13          	addi	s10,a5,2
   18c98:	821ff06f          	j	184b8 <__gdtoa+0x10e4>
   18c9c:	000a8593          	mv	a1,s5
   18ca0:	00000693          	li	a3,0
   18ca4:	00a00613          	li	a2,10
   18ca8:	00040513          	mv	a0,s0
   18cac:	05d000ef          	jal	ra,19508 <__multadd>
   18cb0:	00050a93          	mv	s5,a0
   18cb4:	00051463          	bnez	a0,18cbc <__gdtoa+0x18e8>
   18cb8:	fadfe06f          	j	17c64 <__gdtoa+0x890>
   18cbc:	04c12783          	lw	a5,76(sp)
   18cc0:	00812303          	lw	t1,8(sp)
   18cc4:	00f05663          	blez	a5,18cd0 <__gdtoa+0x18fc>
   18cc8:	02f12023          	sw	a5,32(sp)
   18ccc:	c4dfe06f          	j	17918 <__gdtoa+0x544>
   18cd0:	00200793          	li	a5,2
   18cd4:	15b7c663          	blt	a5,s11,18e20 <__gdtoa+0x1a4c>
   18cd8:	04c12783          	lw	a5,76(sp)
   18cdc:	02f12023          	sw	a5,32(sp)
   18ce0:	c39fe06f          	j	17918 <__gdtoa+0x544>
   18ce4:	05012403          	lw	s0,80(sp)
   18ce8:	00048513          	mv	a0,s1
   18cec:	000a8593          	mv	a1,s5
   18cf0:	00000613          	li	a2,0
   18cf4:	00000693          	li	a3,0
   18cf8:	2cd040ef          	jal	ra,1d7c4 <__eqdf2>
   18cfc:	00a037b3          	snez	a5,a0
   18d00:	00479913          	slli	s2,a5,0x4
   18d04:	05412783          	lw	a5,84(sp)
   18d08:	00178d13          	addi	s10,a5,1
   18d0c:	cf0ff06f          	j	181fc <__gdtoa+0xe28>
   18d10:	05412783          	lw	a5,84(sp)
   18d14:	00178d93          	addi	s11,a5,1
   18d18:	aacff06f          	j	17fc4 <__gdtoa+0xbf0>
   18d1c:	02012623          	sw	zero,44(sp)
   18d20:	a99fe06f          	j	177b8 <__gdtoa+0x3e4>
   18d24:	02012783          	lw	a5,32(sp)
   18d28:	03012703          	lw	a4,48(sp)
   18d2c:	fff78693          	addi	a3,a5,-1
   18d30:	8ad746e3          	blt	a4,a3,185dc <__gdtoa+0x1208>
   18d34:	02812583          	lw	a1,40(sp)
   18d38:	01c12603          	lw	a2,28(sp)
   18d3c:	06f12e23          	sw	a5,124(sp)
   18d40:	00058b13          	mv	s6,a1
   18d44:	00f60633          	add	a2,a2,a5
   18d48:	00f587b3          	add	a5,a1,a5
   18d4c:	00c12e23          	sw	a2,28(sp)
   18d50:	40d70d33          	sub	s10,a4,a3
   18d54:	02f12423          	sw	a5,40(sp)
   18d58:	ad9fe06f          	j	17830 <__gdtoa+0x45c>
   18d5c:	02c12783          	lw	a5,44(sp)
   18d60:	06012d03          	lw	s10,96(sp)
   18d64:	06412c83          	lw	s9,100(sp)
   18d68:	04f12023          	sw	a5,64(sp)
   18d6c:	02412783          	lw	a5,36(sp)
   18d70:	06812903          	lw	s2,104(sp)
   18d74:	05012403          	lw	s0,80(sp)
   18d78:	06c12303          	lw	t1,108(sp)
   18d7c:	03c12a83          	lw	s5,60(sp)
   18d80:	ac07d2e3          	bgez	a5,18844 <__gdtoa+0x1470>
   18d84:	02012623          	sw	zero,44(sp)
   18d88:	a39fe06f          	j	177c0 <__gdtoa+0x3ec>
   18d8c:	04012583          	lw	a1,64(sp)
   18d90:	00048513          	mv	a0,s1
   18d94:	00000613          	li	a2,0
   18d98:	00000693          	li	a3,0
   18d9c:	229040ef          	jal	ra,1d7c4 <__eqdf2>
   18da0:	05412703          	lw	a4,84(sp)
   18da4:	00a037b3          	snez	a5,a0
   18da8:	00479913          	slli	s2,a5,0x4
   18dac:	00170d93          	addi	s11,a4,1 # fcc00001 <__BSS_END__+0xfcbdc4fd>
   18db0:	000b0793          	mv	a5,s6
   18db4:	c05ff06f          	j	189b8 <__gdtoa+0x15e4>
   18db8:	01712823          	sw	s7,16(sp)
   18dbc:	03900693          	li	a3,57
   18dc0:	000b8713          	mv	a4,s7
   18dc4:	000c0793          	mv	a5,s8
   18dc8:	01812b83          	lw	s7,24(sp)
   18dcc:	01412c03          	lw	s8,20(sp)
   18dd0:	00090313          	mv	t1,s2
   18dd4:	8add00e3          	beq	s10,a3,18674 <__gdtoa+0x12a0>
   18dd8:	09305863          	blez	s3,18e68 <__gdtoa+0x1a94>
   18ddc:	031b0d13          	addi	s10,s6,49
   18de0:	02000913          	li	s2,32
   18de4:	000a8a13          	mv	s4,s5
   18de8:	001c8b13          	addi	s6,s9,1
   18dec:	01ac8023          	sb	s10,0(s9)
   18df0:	00078a93          	mv	s5,a5
   18df4:	ce4ff06f          	j	182d8 <__gdtoa+0xf04>
   18df8:	00051663          	bnez	a0,18e04 <__gdtoa+0x1a30>
   18dfc:	001d7693          	andi	a3,s10,1
   18e00:	b40698e3          	bnez	a3,18950 <__gdtoa+0x157c>
   18e04:	02000713          	li	a4,32
   18e08:	02e12623          	sw	a4,44(sp)
   18e0c:	ca4ff06f          	j	182b0 <__gdtoa+0xedc>
   18e10:	01472683          	lw	a3,20(a4)
   18e14:	ca069a63          	bnez	a3,182c8 <__gdtoa+0xef4>
   18e18:	02c12903          	lw	s2,44(sp)
   18e1c:	cacff06f          	j	182c8 <__gdtoa+0xef4>
   18e20:	04c12783          	lw	a5,76(sp)
   18e24:	02f12023          	sw	a5,32(sp)
   18e28:	e50ff06f          	j	18478 <__gdtoa+0x10a4>
   18e2c:	01212823          	sw	s2,16(sp)
   18e30:	03900693          	li	a3,57
   18e34:	000a0793          	mv	a5,s4
   18e38:	000b0313          	mv	t1,s6
   18e3c:	00dd0e63          	beq	s10,a3,18e58 <__gdtoa+0x1a84>
   18e40:	001d0d13          	addi	s10,s10,1
   18e44:	02000913          	li	s2,32
   18e48:	c80ff06f          	j	182c8 <__gdtoa+0xef4>
   18e4c:	01000913          	li	s2,16
   18e50:	001c8993          	addi	s3,s9,1
   18e54:	c74ff06f          	j	182c8 <__gdtoa+0xef4>
   18e58:	000a8a13          	mv	s4,s5
   18e5c:	000c8693          	mv	a3,s9
   18e60:	00058a93          	mv	s5,a1
   18e64:	821ff06f          	j	18684 <__gdtoa+0x12b0>
   18e68:	01072603          	lw	a2,16(a4)
   18e6c:	00100693          	li	a3,1
   18e70:	01000913          	li	s2,16
   18e74:	f6c6c8e3          	blt	a3,a2,18de4 <__gdtoa+0x1a10>
   18e78:	01472683          	lw	a3,20(a4)
   18e7c:	00d036b3          	snez	a3,a3
   18e80:	00469913          	slli	s2,a3,0x4
   18e84:	f61ff06f          	j	18de4 <__gdtoa+0x1a10>
   18e88:	01012703          	lw	a4,16(sp)
   18e8c:	00100693          	li	a3,1
   18e90:	01072603          	lw	a2,16(a4)
   18e94:	00c6d463          	bge	a3,a2,18e9c <__gdtoa+0x1ac8>
   18e98:	c2dfe06f          	j	17ac4 <__gdtoa+0x6f0>
   18e9c:	01472683          	lw	a3,20(a4)
   18ea0:	001c8993          	addi	s3,s9,1
   18ea4:	c2068263          	beqz	a3,182c8 <__gdtoa+0xef4>
   18ea8:	c1dfe06f          	j	17ac4 <__gdtoa+0x6f0>
   18eac:	0209c263          	bltz	s3,18ed0 <__gdtoa+0x1afc>
   18eb0:	013de9b3          	or	s3,s11,s3
   18eb4:	00099863          	bnez	s3,18ec4 <__gdtoa+0x1af0>
   18eb8:	000a2783          	lw	a5,0(s4)
   18ebc:	0017f793          	andi	a5,a5,1
   18ec0:	00078863          	beqz	a5,18ed0 <__gdtoa+0x1afc>
   18ec4:	00d04463          	bgtz	a3,18ecc <__gdtoa+0x1af8>
   18ec8:	abdfe06f          	j	17984 <__gdtoa+0x5b0>
   18ecc:	aadfe06f          	j	17978 <__gdtoa+0x5a4>
   18ed0:	02c12603          	lw	a2,44(sp)
   18ed4:	01712823          	sw	s7,16(sp)
   18ed8:	000b8713          	mv	a4,s7
   18edc:	000c0793          	mv	a5,s8
   18ee0:	01812b83          	lw	s7,24(sp)
   18ee4:	01412c03          	lw	s8,20(sp)
   18ee8:	00090313          	mv	t1,s2
   18eec:	00061663          	bnez	a2,18ef8 <__gdtoa+0x1b24>
   18ef0:	bcd05063          	blez	a3,182b0 <__gdtoa+0xedc>
   18ef4:	a25ff06f          	j	18918 <__gdtoa+0x1544>
   18ef8:	01072583          	lw	a1,16(a4)
   18efc:	00100613          	li	a2,1
   18f00:	00b65463          	bge	a2,a1,18f08 <__gdtoa+0x1b34>
   18f04:	bc1fe06f          	j	17ac4 <__gdtoa+0x6f0>
   18f08:	01472603          	lw	a2,20(a4)
   18f0c:	00060463          	beqz	a2,18f14 <__gdtoa+0x1b40>
   18f10:	bb5fe06f          	j	17ac4 <__gdtoa+0x6f0>
   18f14:	a0d042e3          	bgtz	a3,18918 <__gdtoa+0x1544>
   18f18:	00000913          	li	s2,0
   18f1c:	001c8993          	addi	s3,s9,1
   18f20:	ba8ff06f          	j	182c8 <__gdtoa+0xef4>

00018f24 <__rv_alloc_D2A>:
   18f24:	ff010113          	addi	sp,sp,-16
   18f28:	00812423          	sw	s0,8(sp)
   18f2c:	00112623          	sw	ra,12(sp)
   18f30:	01300793          	li	a5,19
   18f34:	00000413          	li	s0,0
   18f38:	00b7fc63          	bgeu	a5,a1,18f50 <__rv_alloc_D2A+0x2c>
   18f3c:	00400793          	li	a5,4
   18f40:	00179793          	slli	a5,a5,0x1
   18f44:	01078713          	addi	a4,a5,16
   18f48:	00140413          	addi	s0,s0,1
   18f4c:	fee5fae3          	bgeu	a1,a4,18f40 <__rv_alloc_D2A+0x1c>
   18f50:	00040593          	mv	a1,s0
   18f54:	4e8000ef          	jal	ra,1943c <_Balloc>
   18f58:	00050663          	beqz	a0,18f64 <__rv_alloc_D2A+0x40>
   18f5c:	00852023          	sw	s0,0(a0)
   18f60:	00450513          	addi	a0,a0,4
   18f64:	00c12083          	lw	ra,12(sp)
   18f68:	00812403          	lw	s0,8(sp)
   18f6c:	01010113          	addi	sp,sp,16
   18f70:	00008067          	ret

00018f74 <__nrv_alloc_D2A>:
   18f74:	ff010113          	addi	sp,sp,-16
   18f78:	00812423          	sw	s0,8(sp)
   18f7c:	01212023          	sw	s2,0(sp)
   18f80:	00112623          	sw	ra,12(sp)
   18f84:	00912223          	sw	s1,4(sp)
   18f88:	01300793          	li	a5,19
   18f8c:	00058413          	mv	s0,a1
   18f90:	00060913          	mv	s2,a2
   18f94:	06d7fe63          	bgeu	a5,a3,19010 <__nrv_alloc_D2A+0x9c>
   18f98:	00400793          	li	a5,4
   18f9c:	00000493          	li	s1,0
   18fa0:	00179793          	slli	a5,a5,0x1
   18fa4:	01078713          	addi	a4,a5,16
   18fa8:	00148493          	addi	s1,s1,1
   18fac:	fee6fae3          	bgeu	a3,a4,18fa0 <__nrv_alloc_D2A+0x2c>
   18fb0:	00048593          	mv	a1,s1
   18fb4:	488000ef          	jal	ra,1943c <_Balloc>
   18fb8:	00050793          	mv	a5,a0
   18fbc:	04050e63          	beqz	a0,19018 <__nrv_alloc_D2A+0xa4>
   18fc0:	00952023          	sw	s1,0(a0)
   18fc4:	00044703          	lbu	a4,0(s0)
   18fc8:	00450513          	addi	a0,a0,4
   18fcc:	00140593          	addi	a1,s0,1
   18fd0:	00e78223          	sb	a4,4(a5)
   18fd4:	00050793          	mv	a5,a0
   18fd8:	00070c63          	beqz	a4,18ff0 <__nrv_alloc_D2A+0x7c>
   18fdc:	0005c703          	lbu	a4,0(a1)
   18fe0:	00178793          	addi	a5,a5,1
   18fe4:	00158593          	addi	a1,a1,1
   18fe8:	00e78023          	sb	a4,0(a5)
   18fec:	fe0718e3          	bnez	a4,18fdc <__nrv_alloc_D2A+0x68>
   18ff0:	00090463          	beqz	s2,18ff8 <__nrv_alloc_D2A+0x84>
   18ff4:	00f92023          	sw	a5,0(s2)
   18ff8:	00c12083          	lw	ra,12(sp)
   18ffc:	00812403          	lw	s0,8(sp)
   19000:	00412483          	lw	s1,4(sp)
   19004:	00012903          	lw	s2,0(sp)
   19008:	01010113          	addi	sp,sp,16
   1900c:	00008067          	ret
   19010:	00000493          	li	s1,0
   19014:	f9dff06f          	j	18fb0 <__nrv_alloc_D2A+0x3c>
   19018:	00000513          	li	a0,0
   1901c:	fddff06f          	j	18ff8 <__nrv_alloc_D2A+0x84>

00019020 <__freedtoa>:
   19020:	ffc5a683          	lw	a3,-4(a1)
   19024:	00100713          	li	a4,1
   19028:	00058793          	mv	a5,a1
   1902c:	00d71733          	sll	a4,a4,a3
   19030:	ffc58593          	addi	a1,a1,-4
   19034:	00d7a023          	sw	a3,0(a5)
   19038:	00e7a223          	sw	a4,4(a5)
   1903c:	4a80006f          	j	194e4 <_Bfree>

00019040 <__quorem_D2A>:
   19040:	fb010113          	addi	sp,sp,-80
   19044:	04912223          	sw	s1,68(sp)
   19048:	01052783          	lw	a5,16(a0)
   1904c:	0105a483          	lw	s1,16(a1)
   19050:	04112623          	sw	ra,76(sp)
   19054:	04812423          	sw	s0,72(sp)
   19058:	05212023          	sw	s2,64(sp)
   1905c:	03312e23          	sw	s3,60(sp)
   19060:	03412c23          	sw	s4,56(sp)
   19064:	03512a23          	sw	s5,52(sp)
   19068:	03612823          	sw	s6,48(sp)
   1906c:	03712623          	sw	s7,44(sp)
   19070:	03812423          	sw	s8,40(sp)
   19074:	03912223          	sw	s9,36(sp)
   19078:	03a12023          	sw	s10,32(sp)
   1907c:	01b12e23          	sw	s11,28(sp)
   19080:	00b12423          	sw	a1,8(sp)
   19084:	1e97cc63          	blt	a5,s1,1927c <__quorem_D2A+0x23c>
   19088:	fff48493          	addi	s1,s1,-1
   1908c:	00249a93          	slli	s5,s1,0x2
   19090:	01458b93          	addi	s7,a1,20
   19094:	01450993          	addi	s3,a0,20
   19098:	015b8933          	add	s2,s7,s5
   1909c:	015987b3          	add	a5,s3,s5
   190a0:	00092c03          	lw	s8,0(s2)
   190a4:	0007ac83          	lw	s9,0(a5)
   190a8:	00050a13          	mv	s4,a0
   190ac:	001c0c13          	addi	s8,s8,1
   190b0:	000c0593          	mv	a1,s8
   190b4:	000c8513          	mv	a0,s9
   190b8:	00f12623          	sw	a5,12(sp)
   190bc:	3b1080ef          	jal	ra,21c6c <__hidden___udivsi3>
   190c0:	00050413          	mv	s0,a0
   190c4:	0d8ce663          	bltu	s9,s8,19190 <__quorem_D2A+0x150>
   190c8:	00010cb7          	lui	s9,0x10
   190cc:	000b8d93          	mv	s11,s7
   190d0:	00098d13          	mv	s10,s3
   190d4:	00000c13          	li	s8,0
   190d8:	00000a93          	li	s5,0
   190dc:	fffc8c93          	addi	s9,s9,-1 # ffff <exit-0x95>
   190e0:	000dab03          	lw	s6,0(s11)
   190e4:	00040593          	mv	a1,s0
   190e8:	004d0d13          	addi	s10,s10,4
   190ec:	019b7533          	and	a0,s6,s9
   190f0:	351080ef          	jal	ra,21c40 <__mulsi3>
   190f4:	00050793          	mv	a5,a0
   190f8:	00040593          	mv	a1,s0
   190fc:	010b5513          	srli	a0,s6,0x10
   19100:	01878c33          	add	s8,a5,s8
   19104:	33d080ef          	jal	ra,21c40 <__mulsi3>
   19108:	ffcd2783          	lw	a5,-4(s10)
   1910c:	019c7633          	and	a2,s8,s9
   19110:	010c5c13          	srli	s8,s8,0x10
   19114:	0197f733          	and	a4,a5,s9
   19118:	40c70733          	sub	a4,a4,a2
   1911c:	41570733          	sub	a4,a4,s5
   19120:	01850533          	add	a0,a0,s8
   19124:	01075693          	srli	a3,a4,0x10
   19128:	0016f693          	andi	a3,a3,1
   1912c:	01957633          	and	a2,a0,s9
   19130:	00c686b3          	add	a3,a3,a2
   19134:	0107d793          	srli	a5,a5,0x10
   19138:	40d787b3          	sub	a5,a5,a3
   1913c:	01079693          	slli	a3,a5,0x10
   19140:	01977733          	and	a4,a4,s9
   19144:	00e6e733          	or	a4,a3,a4
   19148:	0107d793          	srli	a5,a5,0x10
   1914c:	004d8d93          	addi	s11,s11,4
   19150:	feed2e23          	sw	a4,-4(s10)
   19154:	01055c13          	srli	s8,a0,0x10
   19158:	0017fa93          	andi	s5,a5,1
   1915c:	f9b972e3          	bgeu	s2,s11,190e0 <__quorem_D2A+0xa0>
   19160:	00c12703          	lw	a4,12(sp)
   19164:	00072783          	lw	a5,0(a4)
   19168:	02079463          	bnez	a5,19190 <__quorem_D2A+0x150>
   1916c:	ffc70a93          	addi	s5,a4,-4
   19170:	0159e863          	bltu	s3,s5,19180 <__quorem_D2A+0x140>
   19174:	0180006f          	j	1918c <__quorem_D2A+0x14c>
   19178:	fff48493          	addi	s1,s1,-1
   1917c:	0159f863          	bgeu	s3,s5,1918c <__quorem_D2A+0x14c>
   19180:	000aa783          	lw	a5,0(s5)
   19184:	ffca8a93          	addi	s5,s5,-4
   19188:	fe0788e3          	beqz	a5,19178 <__quorem_D2A+0x138>
   1918c:	009a2823          	sw	s1,16(s4)
   19190:	00812583          	lw	a1,8(sp)
   19194:	000a0513          	mv	a0,s4
   19198:	5b5000ef          	jal	ra,19f4c <__mcmp>
   1919c:	0a054063          	bltz	a0,1923c <__quorem_D2A+0x1fc>
   191a0:	00010537          	lui	a0,0x10
   191a4:	00098593          	mv	a1,s3
   191a8:	00000693          	li	a3,0
   191ac:	fff50513          	addi	a0,a0,-1 # ffff <exit-0x95>
   191b0:	0005a783          	lw	a5,0(a1)
   191b4:	000ba603          	lw	a2,0(s7)
   191b8:	00458593          	addi	a1,a1,4
   191bc:	00a7f733          	and	a4,a5,a0
   191c0:	00a67833          	and	a6,a2,a0
   191c4:	41070733          	sub	a4,a4,a6
   191c8:	40d70733          	sub	a4,a4,a3
   191cc:	01075693          	srli	a3,a4,0x10
   191d0:	0016f693          	andi	a3,a3,1
   191d4:	01065613          	srli	a2,a2,0x10
   191d8:	00c686b3          	add	a3,a3,a2
   191dc:	0107d793          	srli	a5,a5,0x10
   191e0:	40d787b3          	sub	a5,a5,a3
   191e4:	01079693          	slli	a3,a5,0x10
   191e8:	00a77733          	and	a4,a4,a0
   191ec:	00e6e733          	or	a4,a3,a4
   191f0:	0107d793          	srli	a5,a5,0x10
   191f4:	004b8b93          	addi	s7,s7,4
   191f8:	fee5ae23          	sw	a4,-4(a1)
   191fc:	0017f693          	andi	a3,a5,1
   19200:	fb7978e3          	bgeu	s2,s7,191b0 <__quorem_D2A+0x170>
   19204:	00249793          	slli	a5,s1,0x2
   19208:	00f987b3          	add	a5,s3,a5
   1920c:	0007a703          	lw	a4,0(a5)
   19210:	02071463          	bnez	a4,19238 <__quorem_D2A+0x1f8>
   19214:	ffc78793          	addi	a5,a5,-4
   19218:	00f9e863          	bltu	s3,a5,19228 <__quorem_D2A+0x1e8>
   1921c:	0180006f          	j	19234 <__quorem_D2A+0x1f4>
   19220:	fff48493          	addi	s1,s1,-1
   19224:	00f9f863          	bgeu	s3,a5,19234 <__quorem_D2A+0x1f4>
   19228:	0007a703          	lw	a4,0(a5)
   1922c:	ffc78793          	addi	a5,a5,-4
   19230:	fe0708e3          	beqz	a4,19220 <__quorem_D2A+0x1e0>
   19234:	009a2823          	sw	s1,16(s4)
   19238:	00140413          	addi	s0,s0,1
   1923c:	00040513          	mv	a0,s0
   19240:	04c12083          	lw	ra,76(sp)
   19244:	04812403          	lw	s0,72(sp)
   19248:	04412483          	lw	s1,68(sp)
   1924c:	04012903          	lw	s2,64(sp)
   19250:	03c12983          	lw	s3,60(sp)
   19254:	03812a03          	lw	s4,56(sp)
   19258:	03412a83          	lw	s5,52(sp)
   1925c:	03012b03          	lw	s6,48(sp)
   19260:	02c12b83          	lw	s7,44(sp)
   19264:	02812c03          	lw	s8,40(sp)
   19268:	02412c83          	lw	s9,36(sp)
   1926c:	02012d03          	lw	s10,32(sp)
   19270:	01c12d83          	lw	s11,28(sp)
   19274:	05010113          	addi	sp,sp,80
   19278:	00008067          	ret
   1927c:	00000513          	li	a0,0
   19280:	fc1ff06f          	j	19240 <__quorem_D2A+0x200>

00019284 <__rshift_D2A>:
   19284:	01052803          	lw	a6,16(a0)
   19288:	4055de13          	srai	t3,a1,0x5
   1928c:	010e4863          	blt	t3,a6,1929c <__rshift_D2A+0x18>
   19290:	00052823          	sw	zero,16(a0)
   19294:	00052a23          	sw	zero,20(a0)
   19298:	00008067          	ret
   1929c:	01450313          	addi	t1,a0,20
   192a0:	00281613          	slli	a2,a6,0x2
   192a4:	002e1793          	slli	a5,t3,0x2
   192a8:	01f5f593          	andi	a1,a1,31
   192ac:	00c30633          	add	a2,t1,a2
   192b0:	00f307b3          	add	a5,t1,a5
   192b4:	06058263          	beqz	a1,19318 <__rshift_D2A+0x94>
   192b8:	0007a683          	lw	a3,0(a5)
   192bc:	02000e93          	li	t4,32
   192c0:	00478793          	addi	a5,a5,4
   192c4:	40be8eb3          	sub	t4,t4,a1
   192c8:	00b6d6b3          	srl	a3,a3,a1
   192cc:	08c7f463          	bgeu	a5,a2,19354 <__rshift_D2A+0xd0>
   192d0:	00030893          	mv	a7,t1
   192d4:	0007a703          	lw	a4,0(a5)
   192d8:	00488893          	addi	a7,a7,4 # 80000004 <__BSS_END__+0x7ffdc500>
   192dc:	00478793          	addi	a5,a5,4
   192e0:	01d71733          	sll	a4,a4,t4
   192e4:	00d76733          	or	a4,a4,a3
   192e8:	fee8ae23          	sw	a4,-4(a7)
   192ec:	ffc7a683          	lw	a3,-4(a5)
   192f0:	00b6d6b3          	srl	a3,a3,a1
   192f4:	fec7e0e3          	bltu	a5,a2,192d4 <__rshift_D2A+0x50>
   192f8:	41c80833          	sub	a6,a6,t3
   192fc:	00281813          	slli	a6,a6,0x2
   19300:	ffc80813          	addi	a6,a6,-4
   19304:	01030833          	add	a6,t1,a6
   19308:	00d82023          	sw	a3,0(a6)
   1930c:	02068a63          	beqz	a3,19340 <__rshift_D2A+0xbc>
   19310:	00480813          	addi	a6,a6,4
   19314:	02c0006f          	j	19340 <__rshift_D2A+0xbc>
   19318:	00030713          	mv	a4,t1
   1931c:	f6c7fae3          	bgeu	a5,a2,19290 <__rshift_D2A+0xc>
   19320:	0007a683          	lw	a3,0(a5)
   19324:	00478793          	addi	a5,a5,4
   19328:	00470713          	addi	a4,a4,4
   1932c:	fed72e23          	sw	a3,-4(a4)
   19330:	fec7e8e3          	bltu	a5,a2,19320 <__rshift_D2A+0x9c>
   19334:	41c80833          	sub	a6,a6,t3
   19338:	00281813          	slli	a6,a6,0x2
   1933c:	01030833          	add	a6,t1,a6
   19340:	406807b3          	sub	a5,a6,t1
   19344:	4027d793          	srai	a5,a5,0x2
   19348:	00f52823          	sw	a5,16(a0)
   1934c:	f46804e3          	beq	a6,t1,19294 <__rshift_D2A+0x10>
   19350:	00008067          	ret
   19354:	00d52a23          	sw	a3,20(a0)
   19358:	f2068ce3          	beqz	a3,19290 <__rshift_D2A+0xc>
   1935c:	00030813          	mv	a6,t1
   19360:	00480813          	addi	a6,a6,4
   19364:	fddff06f          	j	19340 <__rshift_D2A+0xbc>

00019368 <__trailz_D2A>:
   19368:	01052703          	lw	a4,16(a0)
   1936c:	fe010113          	addi	sp,sp,-32
   19370:	01450513          	addi	a0,a0,20
   19374:	00271713          	slli	a4,a4,0x2
   19378:	00812c23          	sw	s0,24(sp)
   1937c:	00112e23          	sw	ra,28(sp)
   19380:	00e50733          	add	a4,a0,a4
   19384:	00000413          	li	s0,0
   19388:	00e56a63          	bltu	a0,a4,1939c <__trailz_D2A+0x34>
   1938c:	02c0006f          	j	193b8 <__trailz_D2A+0x50>
   19390:	00450513          	addi	a0,a0,4
   19394:	02040413          	addi	s0,s0,32
   19398:	02e57063          	bgeu	a0,a4,193b8 <__trailz_D2A+0x50>
   1939c:	00052783          	lw	a5,0(a0)
   193a0:	fe0788e3          	beqz	a5,19390 <__trailz_D2A+0x28>
   193a4:	00e57a63          	bgeu	a0,a4,193b8 <__trailz_D2A+0x50>
   193a8:	00c10513          	addi	a0,sp,12
   193ac:	00f12623          	sw	a5,12(sp)
   193b0:	480000ef          	jal	ra,19830 <__lo0bits>
   193b4:	00a40433          	add	s0,s0,a0
   193b8:	01c12083          	lw	ra,28(sp)
   193bc:	00040513          	mv	a0,s0
   193c0:	01812403          	lw	s0,24(sp)
   193c4:	02010113          	addi	sp,sp,32
   193c8:	00008067          	ret

000193cc <_mbtowc_r>:
   193cc:	e1c1a783          	lw	a5,-484(gp) # 236dc <__global_locale+0xe4>
   193d0:	00078067          	jr	a5

000193d4 <__ascii_mbtowc>:
   193d4:	02058063          	beqz	a1,193f4 <__ascii_mbtowc+0x20>
   193d8:	04060263          	beqz	a2,1941c <__ascii_mbtowc+0x48>
   193dc:	04068863          	beqz	a3,1942c <__ascii_mbtowc+0x58>
   193e0:	00064783          	lbu	a5,0(a2)
   193e4:	00f5a023          	sw	a5,0(a1)
   193e8:	00064503          	lbu	a0,0(a2)
   193ec:	00a03533          	snez	a0,a0
   193f0:	00008067          	ret
   193f4:	ff010113          	addi	sp,sp,-16
   193f8:	00c10593          	addi	a1,sp,12
   193fc:	02060463          	beqz	a2,19424 <__ascii_mbtowc+0x50>
   19400:	02068a63          	beqz	a3,19434 <__ascii_mbtowc+0x60>
   19404:	00064783          	lbu	a5,0(a2)
   19408:	00f5a023          	sw	a5,0(a1)
   1940c:	00064503          	lbu	a0,0(a2)
   19410:	00a03533          	snez	a0,a0
   19414:	01010113          	addi	sp,sp,16
   19418:	00008067          	ret
   1941c:	00000513          	li	a0,0
   19420:	00008067          	ret
   19424:	00000513          	li	a0,0
   19428:	fedff06f          	j	19414 <__ascii_mbtowc+0x40>
   1942c:	ffe00513          	li	a0,-2
   19430:	00008067          	ret
   19434:	ffe00513          	li	a0,-2
   19438:	fddff06f          	j	19414 <__ascii_mbtowc+0x40>

0001943c <_Balloc>:
   1943c:	04452783          	lw	a5,68(a0)
   19440:	ff010113          	addi	sp,sp,-16
   19444:	00812423          	sw	s0,8(sp)
   19448:	00912223          	sw	s1,4(sp)
   1944c:	00112623          	sw	ra,12(sp)
   19450:	01212023          	sw	s2,0(sp)
   19454:	00050413          	mv	s0,a0
   19458:	00058493          	mv	s1,a1
   1945c:	02078e63          	beqz	a5,19498 <_Balloc+0x5c>
   19460:	00249713          	slli	a4,s1,0x2
   19464:	00e787b3          	add	a5,a5,a4
   19468:	0007a503          	lw	a0,0(a5)
   1946c:	04050663          	beqz	a0,194b8 <_Balloc+0x7c>
   19470:	00052703          	lw	a4,0(a0)
   19474:	00e7a023          	sw	a4,0(a5)
   19478:	00052823          	sw	zero,16(a0)
   1947c:	00052623          	sw	zero,12(a0)
   19480:	00c12083          	lw	ra,12(sp)
   19484:	00812403          	lw	s0,8(sp)
   19488:	00412483          	lw	s1,4(sp)
   1948c:	00012903          	lw	s2,0(sp)
   19490:	01010113          	addi	sp,sp,16
   19494:	00008067          	ret
   19498:	02100613          	li	a2,33
   1949c:	00400593          	li	a1,4
   194a0:	5d1010ef          	jal	ra,1b270 <_calloc_r>
   194a4:	04a42223          	sw	a0,68(s0)
   194a8:	00050793          	mv	a5,a0
   194ac:	fa051ae3          	bnez	a0,19460 <_Balloc+0x24>
   194b0:	00000513          	li	a0,0
   194b4:	fcdff06f          	j	19480 <_Balloc+0x44>
   194b8:	00100913          	li	s2,1
   194bc:	00991933          	sll	s2,s2,s1
   194c0:	00590613          	addi	a2,s2,5
   194c4:	00261613          	slli	a2,a2,0x2
   194c8:	00100593          	li	a1,1
   194cc:	00040513          	mv	a0,s0
   194d0:	5a1010ef          	jal	ra,1b270 <_calloc_r>
   194d4:	fc050ee3          	beqz	a0,194b0 <_Balloc+0x74>
   194d8:	00952223          	sw	s1,4(a0)
   194dc:	01252423          	sw	s2,8(a0)
   194e0:	f99ff06f          	j	19478 <_Balloc+0x3c>

000194e4 <_Bfree>:
   194e4:	02058063          	beqz	a1,19504 <_Bfree+0x20>
   194e8:	0045a703          	lw	a4,4(a1)
   194ec:	04452783          	lw	a5,68(a0)
   194f0:	00271713          	slli	a4,a4,0x2
   194f4:	00e787b3          	add	a5,a5,a4
   194f8:	0007a703          	lw	a4,0(a5)
   194fc:	00e5a023          	sw	a4,0(a1)
   19500:	00b7a023          	sw	a1,0(a5)
   19504:	00008067          	ret

00019508 <__multadd>:
   19508:	fd010113          	addi	sp,sp,-48
   1950c:	01312e23          	sw	s3,28(sp)
   19510:	0105a983          	lw	s3,16(a1)
   19514:	01812423          	sw	s8,8(sp)
   19518:	00010c37          	lui	s8,0x10
   1951c:	02812423          	sw	s0,40(sp)
   19520:	02912223          	sw	s1,36(sp)
   19524:	03212023          	sw	s2,32(sp)
   19528:	01412c23          	sw	s4,24(sp)
   1952c:	01512a23          	sw	s5,20(sp)
   19530:	01612823          	sw	s6,16(sp)
   19534:	02112623          	sw	ra,44(sp)
   19538:	01712623          	sw	s7,12(sp)
   1953c:	00058a13          	mv	s4,a1
   19540:	00050a93          	mv	s5,a0
   19544:	00060913          	mv	s2,a2
   19548:	00068413          	mv	s0,a3
   1954c:	01458493          	addi	s1,a1,20
   19550:	00000b13          	li	s6,0
   19554:	fffc0c13          	addi	s8,s8,-1 # ffff <exit-0x95>
   19558:	0004ab83          	lw	s7,0(s1)
   1955c:	00090593          	mv	a1,s2
   19560:	00448493          	addi	s1,s1,4
   19564:	018bf533          	and	a0,s7,s8
   19568:	6d8080ef          	jal	ra,21c40 <__mulsi3>
   1956c:	00850433          	add	s0,a0,s0
   19570:	00090593          	mv	a1,s2
   19574:	010bd513          	srli	a0,s7,0x10
   19578:	6c8080ef          	jal	ra,21c40 <__mulsi3>
   1957c:	01045793          	srli	a5,s0,0x10
   19580:	00f50533          	add	a0,a0,a5
   19584:	01847433          	and	s0,s0,s8
   19588:	01051793          	slli	a5,a0,0x10
   1958c:	008787b3          	add	a5,a5,s0
   19590:	fef4ae23          	sw	a5,-4(s1)
   19594:	001b0b13          	addi	s6,s6,1
   19598:	01055413          	srli	s0,a0,0x10
   1959c:	fb3b4ee3          	blt	s6,s3,19558 <__multadd+0x50>
   195a0:	02040263          	beqz	s0,195c4 <__multadd+0xbc>
   195a4:	008a2783          	lw	a5,8(s4)
   195a8:	04f9d863          	bge	s3,a5,195f8 <__multadd+0xf0>
   195ac:	00498793          	addi	a5,s3,4
   195b0:	00279793          	slli	a5,a5,0x2
   195b4:	00fa07b3          	add	a5,s4,a5
   195b8:	0087a223          	sw	s0,4(a5)
   195bc:	00198993          	addi	s3,s3,1
   195c0:	013a2823          	sw	s3,16(s4)
   195c4:	02c12083          	lw	ra,44(sp)
   195c8:	02812403          	lw	s0,40(sp)
   195cc:	02412483          	lw	s1,36(sp)
   195d0:	02012903          	lw	s2,32(sp)
   195d4:	01c12983          	lw	s3,28(sp)
   195d8:	01412a83          	lw	s5,20(sp)
   195dc:	01012b03          	lw	s6,16(sp)
   195e0:	00c12b83          	lw	s7,12(sp)
   195e4:	00812c03          	lw	s8,8(sp)
   195e8:	000a0513          	mv	a0,s4
   195ec:	01812a03          	lw	s4,24(sp)
   195f0:	03010113          	addi	sp,sp,48
   195f4:	00008067          	ret
   195f8:	004a2583          	lw	a1,4(s4)
   195fc:	000a8513          	mv	a0,s5
   19600:	00158593          	addi	a1,a1,1
   19604:	e39ff0ef          	jal	ra,1943c <_Balloc>
   19608:	00050493          	mv	s1,a0
   1960c:	04050c63          	beqz	a0,19664 <__multadd+0x15c>
   19610:	010a2603          	lw	a2,16(s4)
   19614:	00ca0593          	addi	a1,s4,12
   19618:	00c50513          	addi	a0,a0,12
   1961c:	00260613          	addi	a2,a2,2
   19620:	00261613          	slli	a2,a2,0x2
   19624:	ec0f70ef          	jal	ra,10ce4 <memcpy>
   19628:	004a2703          	lw	a4,4(s4)
   1962c:	044aa783          	lw	a5,68(s5)
   19630:	00271713          	slli	a4,a4,0x2
   19634:	00e787b3          	add	a5,a5,a4
   19638:	0007a703          	lw	a4,0(a5)
   1963c:	00ea2023          	sw	a4,0(s4)
   19640:	0147a023          	sw	s4,0(a5)
   19644:	00498793          	addi	a5,s3,4
   19648:	00048a13          	mv	s4,s1
   1964c:	00279793          	slli	a5,a5,0x2
   19650:	00fa07b3          	add	a5,s4,a5
   19654:	0087a223          	sw	s0,4(a5)
   19658:	00198993          	addi	s3,s3,1
   1965c:	013a2823          	sw	s3,16(s4)
   19660:	f65ff06f          	j	195c4 <__multadd+0xbc>
   19664:	00009697          	auipc	a3,0x9
   19668:	c9068693          	addi	a3,a3,-880 # 222f4 <blanks.1+0x78>
   1966c:	00000613          	li	a2,0
   19670:	0ba00593          	li	a1,186
   19674:	00009517          	auipc	a0,0x9
   19678:	c9450513          	addi	a0,a0,-876 # 22308 <blanks.1+0x8c>
   1967c:	38d010ef          	jal	ra,1b208 <__assert_func>

00019680 <__s2b>:
   19680:	fe010113          	addi	sp,sp,-32
   19684:	00812c23          	sw	s0,24(sp)
   19688:	01212823          	sw	s2,16(sp)
   1968c:	00058413          	mv	s0,a1
   19690:	00050913          	mv	s2,a0
   19694:	00900593          	li	a1,9
   19698:	00868513          	addi	a0,a3,8
   1969c:	00912a23          	sw	s1,20(sp)
   196a0:	01312623          	sw	s3,12(sp)
   196a4:	01412423          	sw	s4,8(sp)
   196a8:	00112e23          	sw	ra,28(sp)
   196ac:	01512223          	sw	s5,4(sp)
   196b0:	00068493          	mv	s1,a3
   196b4:	00060993          	mv	s3,a2
   196b8:	00070a13          	mv	s4,a4
   196bc:	5a8080ef          	jal	ra,21c64 <__divsi3>
   196c0:	00900793          	li	a5,9
   196c4:	0c97d863          	bge	a5,s1,19794 <__s2b+0x114>
   196c8:	00100793          	li	a5,1
   196cc:	00000593          	li	a1,0
   196d0:	00179793          	slli	a5,a5,0x1
   196d4:	00158593          	addi	a1,a1,1
   196d8:	fea7cce3          	blt	a5,a0,196d0 <__s2b+0x50>
   196dc:	00090513          	mv	a0,s2
   196e0:	d5dff0ef          	jal	ra,1943c <_Balloc>
   196e4:	00050593          	mv	a1,a0
   196e8:	0a050a63          	beqz	a0,1979c <__s2b+0x11c>
   196ec:	00100793          	li	a5,1
   196f0:	00f52823          	sw	a5,16(a0)
   196f4:	01452a23          	sw	s4,20(a0)
   196f8:	00900793          	li	a5,9
   196fc:	0937d663          	bge	a5,s3,19788 <__s2b+0x108>
   19700:	00940a93          	addi	s5,s0,9
   19704:	01340a33          	add	s4,s0,s3
   19708:	000a8413          	mv	s0,s5
   1970c:	00044683          	lbu	a3,0(s0)
   19710:	00a00613          	li	a2,10
   19714:	00090513          	mv	a0,s2
   19718:	fd068693          	addi	a3,a3,-48
   1971c:	dedff0ef          	jal	ra,19508 <__multadd>
   19720:	00140413          	addi	s0,s0,1
   19724:	00050593          	mv	a1,a0
   19728:	ff4412e3          	bne	s0,s4,1970c <__s2b+0x8c>
   1972c:	ff898413          	addi	s0,s3,-8
   19730:	008a8433          	add	s0,s5,s0
   19734:	0299d663          	bge	s3,s1,19760 <__s2b+0xe0>
   19738:	413484b3          	sub	s1,s1,s3
   1973c:	009404b3          	add	s1,s0,s1
   19740:	00044683          	lbu	a3,0(s0)
   19744:	00a00613          	li	a2,10
   19748:	00090513          	mv	a0,s2
   1974c:	fd068693          	addi	a3,a3,-48
   19750:	db9ff0ef          	jal	ra,19508 <__multadd>
   19754:	00140413          	addi	s0,s0,1
   19758:	00050593          	mv	a1,a0
   1975c:	fe8492e3          	bne	s1,s0,19740 <__s2b+0xc0>
   19760:	01c12083          	lw	ra,28(sp)
   19764:	01812403          	lw	s0,24(sp)
   19768:	01412483          	lw	s1,20(sp)
   1976c:	01012903          	lw	s2,16(sp)
   19770:	00c12983          	lw	s3,12(sp)
   19774:	00812a03          	lw	s4,8(sp)
   19778:	00412a83          	lw	s5,4(sp)
   1977c:	00058513          	mv	a0,a1
   19780:	02010113          	addi	sp,sp,32
   19784:	00008067          	ret
   19788:	00a40413          	addi	s0,s0,10
   1978c:	00900993          	li	s3,9
   19790:	fa5ff06f          	j	19734 <__s2b+0xb4>
   19794:	00000593          	li	a1,0
   19798:	f45ff06f          	j	196dc <__s2b+0x5c>
   1979c:	00009697          	auipc	a3,0x9
   197a0:	b5868693          	addi	a3,a3,-1192 # 222f4 <blanks.1+0x78>
   197a4:	00000613          	li	a2,0
   197a8:	0d300593          	li	a1,211
   197ac:	00009517          	auipc	a0,0x9
   197b0:	b5c50513          	addi	a0,a0,-1188 # 22308 <blanks.1+0x8c>
   197b4:	255010ef          	jal	ra,1b208 <__assert_func>

000197b8 <__hi0bits>:
   197b8:	00050793          	mv	a5,a0
   197bc:	00010737          	lui	a4,0x10
   197c0:	00000513          	li	a0,0
   197c4:	00e7f663          	bgeu	a5,a4,197d0 <__hi0bits+0x18>
   197c8:	01079793          	slli	a5,a5,0x10
   197cc:	01000513          	li	a0,16
   197d0:	01000737          	lui	a4,0x1000
   197d4:	00e7f663          	bgeu	a5,a4,197e0 <__hi0bits+0x28>
   197d8:	00850513          	addi	a0,a0,8
   197dc:	00879793          	slli	a5,a5,0x8
   197e0:	10000737          	lui	a4,0x10000
   197e4:	00e7f663          	bgeu	a5,a4,197f0 <__hi0bits+0x38>
   197e8:	00450513          	addi	a0,a0,4
   197ec:	00479793          	slli	a5,a5,0x4
   197f0:	40000737          	lui	a4,0x40000
   197f4:	00e7ea63          	bltu	a5,a4,19808 <__hi0bits+0x50>
   197f8:	fff7c793          	not	a5,a5
   197fc:	01f7d793          	srli	a5,a5,0x1f
   19800:	00f50533          	add	a0,a0,a5
   19804:	00008067          	ret
   19808:	00279793          	slli	a5,a5,0x2
   1980c:	0007ca63          	bltz	a5,19820 <__hi0bits+0x68>
   19810:	00e7f7b3          	and	a5,a5,a4
   19814:	00079a63          	bnez	a5,19828 <__hi0bits+0x70>
   19818:	02000513          	li	a0,32
   1981c:	00008067          	ret
   19820:	00250513          	addi	a0,a0,2
   19824:	00008067          	ret
   19828:	00350513          	addi	a0,a0,3
   1982c:	00008067          	ret

00019830 <__lo0bits>:
   19830:	00052783          	lw	a5,0(a0)
   19834:	00050713          	mv	a4,a0
   19838:	0077f693          	andi	a3,a5,7
   1983c:	02068463          	beqz	a3,19864 <__lo0bits+0x34>
   19840:	0017f693          	andi	a3,a5,1
   19844:	00000513          	li	a0,0
   19848:	04069e63          	bnez	a3,198a4 <__lo0bits+0x74>
   1984c:	0027f693          	andi	a3,a5,2
   19850:	0a068863          	beqz	a3,19900 <__lo0bits+0xd0>
   19854:	0017d793          	srli	a5,a5,0x1
   19858:	00f72023          	sw	a5,0(a4) # 40000000 <__BSS_END__+0x3ffdc4fc>
   1985c:	00100513          	li	a0,1
   19860:	00008067          	ret
   19864:	01079693          	slli	a3,a5,0x10
   19868:	0106d693          	srli	a3,a3,0x10
   1986c:	00000513          	li	a0,0
   19870:	06068e63          	beqz	a3,198ec <__lo0bits+0xbc>
   19874:	0ff7f693          	zext.b	a3,a5
   19878:	06068063          	beqz	a3,198d8 <__lo0bits+0xa8>
   1987c:	00f7f693          	andi	a3,a5,15
   19880:	04068263          	beqz	a3,198c4 <__lo0bits+0x94>
   19884:	0037f693          	andi	a3,a5,3
   19888:	02068463          	beqz	a3,198b0 <__lo0bits+0x80>
   1988c:	0017f693          	andi	a3,a5,1
   19890:	00069c63          	bnez	a3,198a8 <__lo0bits+0x78>
   19894:	0017d793          	srli	a5,a5,0x1
   19898:	00150513          	addi	a0,a0,1
   1989c:	00079663          	bnez	a5,198a8 <__lo0bits+0x78>
   198a0:	02000513          	li	a0,32
   198a4:	00008067          	ret
   198a8:	00f72023          	sw	a5,0(a4)
   198ac:	00008067          	ret
   198b0:	0027d793          	srli	a5,a5,0x2
   198b4:	0017f693          	andi	a3,a5,1
   198b8:	00250513          	addi	a0,a0,2
   198bc:	fe0696e3          	bnez	a3,198a8 <__lo0bits+0x78>
   198c0:	fd5ff06f          	j	19894 <__lo0bits+0x64>
   198c4:	0047d793          	srli	a5,a5,0x4
   198c8:	0037f693          	andi	a3,a5,3
   198cc:	00450513          	addi	a0,a0,4
   198d0:	fa069ee3          	bnez	a3,1988c <__lo0bits+0x5c>
   198d4:	fddff06f          	j	198b0 <__lo0bits+0x80>
   198d8:	0087d793          	srli	a5,a5,0x8
   198dc:	00f7f693          	andi	a3,a5,15
   198e0:	00850513          	addi	a0,a0,8
   198e4:	fa0690e3          	bnez	a3,19884 <__lo0bits+0x54>
   198e8:	fddff06f          	j	198c4 <__lo0bits+0x94>
   198ec:	0107d793          	srli	a5,a5,0x10
   198f0:	0ff7f693          	zext.b	a3,a5
   198f4:	01000513          	li	a0,16
   198f8:	f80692e3          	bnez	a3,1987c <__lo0bits+0x4c>
   198fc:	fddff06f          	j	198d8 <__lo0bits+0xa8>
   19900:	0027d793          	srli	a5,a5,0x2
   19904:	00f72023          	sw	a5,0(a4)
   19908:	00200513          	li	a0,2
   1990c:	00008067          	ret

00019910 <__i2b>:
   19910:	04452783          	lw	a5,68(a0)
   19914:	ff010113          	addi	sp,sp,-16
   19918:	00812423          	sw	s0,8(sp)
   1991c:	00912223          	sw	s1,4(sp)
   19920:	00112623          	sw	ra,12(sp)
   19924:	00050413          	mv	s0,a0
   19928:	00058493          	mv	s1,a1
   1992c:	02078c63          	beqz	a5,19964 <__i2b+0x54>
   19930:	0047a503          	lw	a0,4(a5)
   19934:	06050263          	beqz	a0,19998 <__i2b+0x88>
   19938:	00052703          	lw	a4,0(a0)
   1993c:	00e7a223          	sw	a4,4(a5)
   19940:	00c12083          	lw	ra,12(sp)
   19944:	00812403          	lw	s0,8(sp)
   19948:	00100793          	li	a5,1
   1994c:	00952a23          	sw	s1,20(a0)
   19950:	00052623          	sw	zero,12(a0)
   19954:	00f52823          	sw	a5,16(a0)
   19958:	00412483          	lw	s1,4(sp)
   1995c:	01010113          	addi	sp,sp,16
   19960:	00008067          	ret
   19964:	02100613          	li	a2,33
   19968:	00400593          	li	a1,4
   1996c:	105010ef          	jal	ra,1b270 <_calloc_r>
   19970:	04a42223          	sw	a0,68(s0)
   19974:	00050793          	mv	a5,a0
   19978:	fa051ce3          	bnez	a0,19930 <__i2b+0x20>
   1997c:	00009697          	auipc	a3,0x9
   19980:	97868693          	addi	a3,a3,-1672 # 222f4 <blanks.1+0x78>
   19984:	00000613          	li	a2,0
   19988:	14500593          	li	a1,325
   1998c:	00009517          	auipc	a0,0x9
   19990:	97c50513          	addi	a0,a0,-1668 # 22308 <blanks.1+0x8c>
   19994:	075010ef          	jal	ra,1b208 <__assert_func>
   19998:	01c00613          	li	a2,28
   1999c:	00100593          	li	a1,1
   199a0:	00040513          	mv	a0,s0
   199a4:	0cd010ef          	jal	ra,1b270 <_calloc_r>
   199a8:	fc050ae3          	beqz	a0,1997c <__i2b+0x6c>
   199ac:	00100793          	li	a5,1
   199b0:	00f52223          	sw	a5,4(a0)
   199b4:	00200793          	li	a5,2
   199b8:	00f52423          	sw	a5,8(a0)
   199bc:	f85ff06f          	j	19940 <__i2b+0x30>

000199c0 <__multiply>:
   199c0:	fb010113          	addi	sp,sp,-80
   199c4:	03312e23          	sw	s3,60(sp)
   199c8:	03812423          	sw	s8,40(sp)
   199cc:	01062983          	lw	s3,16(a2)
   199d0:	0105ac03          	lw	s8,16(a1)
   199d4:	04812423          	sw	s0,72(sp)
   199d8:	03412c23          	sw	s4,56(sp)
   199dc:	04112623          	sw	ra,76(sp)
   199e0:	04912223          	sw	s1,68(sp)
   199e4:	05212023          	sw	s2,64(sp)
   199e8:	03512a23          	sw	s5,52(sp)
   199ec:	03612823          	sw	s6,48(sp)
   199f0:	03712623          	sw	s7,44(sp)
   199f4:	03912223          	sw	s9,36(sp)
   199f8:	03a12023          	sw	s10,32(sp)
   199fc:	01b12e23          	sw	s11,28(sp)
   19a00:	00058a13          	mv	s4,a1
   19a04:	00060413          	mv	s0,a2
   19a08:	013c4c63          	blt	s8,s3,19a20 <__multiply+0x60>
   19a0c:	00098713          	mv	a4,s3
   19a10:	00058413          	mv	s0,a1
   19a14:	000c0993          	mv	s3,s8
   19a18:	00060a13          	mv	s4,a2
   19a1c:	00070c13          	mv	s8,a4
   19a20:	00842783          	lw	a5,8(s0)
   19a24:	00442583          	lw	a1,4(s0)
   19a28:	01898bb3          	add	s7,s3,s8
   19a2c:	0177a7b3          	slt	a5,a5,s7
   19a30:	00f585b3          	add	a1,a1,a5
   19a34:	a09ff0ef          	jal	ra,1943c <_Balloc>
   19a38:	00a12623          	sw	a0,12(sp)
   19a3c:	20050a63          	beqz	a0,19c50 <__multiply+0x290>
   19a40:	00c12783          	lw	a5,12(sp)
   19a44:	002b9a93          	slli	s5,s7,0x2
   19a48:	01478b13          	addi	s6,a5,20
   19a4c:	015b0ab3          	add	s5,s6,s5
   19a50:	000b0793          	mv	a5,s6
   19a54:	015b7863          	bgeu	s6,s5,19a64 <__multiply+0xa4>
   19a58:	0007a023          	sw	zero,0(a5)
   19a5c:	00478793          	addi	a5,a5,4
   19a60:	ff57ece3          	bltu	a5,s5,19a58 <__multiply+0x98>
   19a64:	014a0a13          	addi	s4,s4,20
   19a68:	002c1c13          	slli	s8,s8,0x2
   19a6c:	01440793          	addi	a5,s0,20
   19a70:	018a0733          	add	a4,s4,s8
   19a74:	00299993          	slli	s3,s3,0x2
   19a78:	00f12423          	sw	a5,8(sp)
   19a7c:	00e12023          	sw	a4,0(sp)
   19a80:	013789b3          	add	s3,a5,s3
   19a84:	14ea7863          	bgeu	s4,a4,19bd4 <__multiply+0x214>
   19a88:	00400713          	li	a4,4
   19a8c:	01540793          	addi	a5,s0,21
   19a90:	00e12223          	sw	a4,4(sp)
   19a94:	1af9f263          	bgeu	s3,a5,19c38 <__multiply+0x278>
   19a98:	00010437          	lui	s0,0x10
   19a9c:	fff40413          	addi	s0,s0,-1 # ffff <exit-0x95>
   19aa0:	01c0006f          	j	19abc <__multiply+0xfc>
   19aa4:	01095913          	srli	s2,s2,0x10
   19aa8:	0a091063          	bnez	s2,19b48 <__multiply+0x188>
   19aac:	00012783          	lw	a5,0(sp)
   19ab0:	004a0a13          	addi	s4,s4,4
   19ab4:	004b0b13          	addi	s6,s6,4
   19ab8:	10fa7e63          	bgeu	s4,a5,19bd4 <__multiply+0x214>
   19abc:	000a2903          	lw	s2,0(s4)
   19ac0:	008974b3          	and	s1,s2,s0
   19ac4:	fe0480e3          	beqz	s1,19aa4 <__multiply+0xe4>
   19ac8:	00812c83          	lw	s9,8(sp)
   19acc:	000b0d13          	mv	s10,s6
   19ad0:	00000c13          	li	s8,0
   19ad4:	000cad83          	lw	s11,0(s9)
   19ad8:	000d2903          	lw	s2,0(s10)
   19adc:	00048593          	mv	a1,s1
   19ae0:	008df533          	and	a0,s11,s0
   19ae4:	15c080ef          	jal	ra,21c40 <__mulsi3>
   19ae8:	00897733          	and	a4,s2,s0
   19aec:	00e50733          	add	a4,a0,a4
   19af0:	00048593          	mv	a1,s1
   19af4:	010dd513          	srli	a0,s11,0x10
   19af8:	01870c33          	add	s8,a4,s8
   19afc:	01095913          	srli	s2,s2,0x10
   19b00:	140080ef          	jal	ra,21c40 <__mulsi3>
   19b04:	010c5713          	srli	a4,s8,0x10
   19b08:	01250533          	add	a0,a0,s2
   19b0c:	00e50533          	add	a0,a0,a4
   19b10:	008c77b3          	and	a5,s8,s0
   19b14:	01051713          	slli	a4,a0,0x10
   19b18:	004d0d13          	addi	s10,s10,4
   19b1c:	00f767b3          	or	a5,a4,a5
   19b20:	004c8c93          	addi	s9,s9,4
   19b24:	fefd2e23          	sw	a5,-4(s10)
   19b28:	01055c13          	srli	s8,a0,0x10
   19b2c:	fb3ce4e3          	bltu	s9,s3,19ad4 <__multiply+0x114>
   19b30:	00412783          	lw	a5,4(sp)
   19b34:	00fb0733          	add	a4,s6,a5
   19b38:	01872023          	sw	s8,0(a4)
   19b3c:	000a2903          	lw	s2,0(s4)
   19b40:	01095913          	srli	s2,s2,0x10
   19b44:	f60904e3          	beqz	s2,19aac <__multiply+0xec>
   19b48:	000b2c83          	lw	s9,0(s6)
   19b4c:	00812d03          	lw	s10,8(sp)
   19b50:	000b0c13          	mv	s8,s6
   19b54:	000c8493          	mv	s1,s9
   19b58:	00000d93          	li	s11,0
   19b5c:	000d2503          	lw	a0,0(s10)
   19b60:	00090593          	mv	a1,s2
   19b64:	0104d493          	srli	s1,s1,0x10
   19b68:	00857533          	and	a0,a0,s0
   19b6c:	0d4080ef          	jal	ra,21c40 <__mulsi3>
   19b70:	01b50733          	add	a4,a0,s11
   19b74:	00970db3          	add	s11,a4,s1
   19b78:	010d9593          	slli	a1,s11,0x10
   19b7c:	008cf7b3          	and	a5,s9,s0
   19b80:	00f5e7b3          	or	a5,a1,a5
   19b84:	00fc2023          	sw	a5,0(s8)
   19b88:	002d5503          	lhu	a0,2(s10)
   19b8c:	004c2483          	lw	s1,4(s8)
   19b90:	00090593          	mv	a1,s2
   19b94:	0ac080ef          	jal	ra,21c40 <__mulsi3>
   19b98:	0084f7b3          	and	a5,s1,s0
   19b9c:	010dd713          	srli	a4,s11,0x10
   19ba0:	00f507b3          	add	a5,a0,a5
   19ba4:	00e78cb3          	add	s9,a5,a4
   19ba8:	004d0d13          	addi	s10,s10,4
   19bac:	004c0c13          	addi	s8,s8,4
   19bb0:	010cdd93          	srli	s11,s9,0x10
   19bb4:	fb3d64e3          	bltu	s10,s3,19b5c <__multiply+0x19c>
   19bb8:	00412783          	lw	a5,4(sp)
   19bbc:	004a0a13          	addi	s4,s4,4
   19bc0:	00fb0733          	add	a4,s6,a5
   19bc4:	00012783          	lw	a5,0(sp)
   19bc8:	01972023          	sw	s9,0(a4)
   19bcc:	004b0b13          	addi	s6,s6,4
   19bd0:	eefa66e3          	bltu	s4,a5,19abc <__multiply+0xfc>
   19bd4:	01704863          	bgtz	s7,19be4 <__multiply+0x224>
   19bd8:	0180006f          	j	19bf0 <__multiply+0x230>
   19bdc:	fffb8b93          	addi	s7,s7,-1
   19be0:	000b8863          	beqz	s7,19bf0 <__multiply+0x230>
   19be4:	ffcaa783          	lw	a5,-4(s5)
   19be8:	ffca8a93          	addi	s5,s5,-4
   19bec:	fe0788e3          	beqz	a5,19bdc <__multiply+0x21c>
   19bf0:	00c12783          	lw	a5,12(sp)
   19bf4:	04c12083          	lw	ra,76(sp)
   19bf8:	04812403          	lw	s0,72(sp)
   19bfc:	0177a823          	sw	s7,16(a5)
   19c00:	04412483          	lw	s1,68(sp)
   19c04:	04012903          	lw	s2,64(sp)
   19c08:	03c12983          	lw	s3,60(sp)
   19c0c:	03812a03          	lw	s4,56(sp)
   19c10:	03412a83          	lw	s5,52(sp)
   19c14:	03012b03          	lw	s6,48(sp)
   19c18:	02c12b83          	lw	s7,44(sp)
   19c1c:	02812c03          	lw	s8,40(sp)
   19c20:	02412c83          	lw	s9,36(sp)
   19c24:	02012d03          	lw	s10,32(sp)
   19c28:	01c12d83          	lw	s11,28(sp)
   19c2c:	00078513          	mv	a0,a5
   19c30:	05010113          	addi	sp,sp,80
   19c34:	00008067          	ret
   19c38:	408987b3          	sub	a5,s3,s0
   19c3c:	feb78793          	addi	a5,a5,-21
   19c40:	ffc7f793          	andi	a5,a5,-4
   19c44:	00478793          	addi	a5,a5,4
   19c48:	00f12223          	sw	a5,4(sp)
   19c4c:	e4dff06f          	j	19a98 <__multiply+0xd8>
   19c50:	00008697          	auipc	a3,0x8
   19c54:	6a468693          	addi	a3,a3,1700 # 222f4 <blanks.1+0x78>
   19c58:	00000613          	li	a2,0
   19c5c:	16200593          	li	a1,354
   19c60:	00008517          	auipc	a0,0x8
   19c64:	6a850513          	addi	a0,a0,1704 # 22308 <blanks.1+0x8c>
   19c68:	5a0010ef          	jal	ra,1b208 <__assert_func>

00019c6c <__pow5mult>:
   19c6c:	fe010113          	addi	sp,sp,-32
   19c70:	00812c23          	sw	s0,24(sp)
   19c74:	01212823          	sw	s2,16(sp)
   19c78:	01312623          	sw	s3,12(sp)
   19c7c:	00112e23          	sw	ra,28(sp)
   19c80:	00912a23          	sw	s1,20(sp)
   19c84:	00367793          	andi	a5,a2,3
   19c88:	00060413          	mv	s0,a2
   19c8c:	00050993          	mv	s3,a0
   19c90:	00058913          	mv	s2,a1
   19c94:	0a079a63          	bnez	a5,19d48 <__pow5mult+0xdc>
   19c98:	40245413          	srai	s0,s0,0x2
   19c9c:	06040663          	beqz	s0,19d08 <__pow5mult+0x9c>
   19ca0:	0409a483          	lw	s1,64(s3)
   19ca4:	0c048663          	beqz	s1,19d70 <__pow5mult+0x104>
   19ca8:	00147793          	andi	a5,s0,1
   19cac:	02079063          	bnez	a5,19ccc <__pow5mult+0x60>
   19cb0:	40145413          	srai	s0,s0,0x1
   19cb4:	04040a63          	beqz	s0,19d08 <__pow5mult+0x9c>
   19cb8:	0004a503          	lw	a0,0(s1)
   19cbc:	06050663          	beqz	a0,19d28 <__pow5mult+0xbc>
   19cc0:	00050493          	mv	s1,a0
   19cc4:	00147793          	andi	a5,s0,1
   19cc8:	fe0784e3          	beqz	a5,19cb0 <__pow5mult+0x44>
   19ccc:	00048613          	mv	a2,s1
   19cd0:	00090593          	mv	a1,s2
   19cd4:	00098513          	mv	a0,s3
   19cd8:	ce9ff0ef          	jal	ra,199c0 <__multiply>
   19cdc:	02090063          	beqz	s2,19cfc <__pow5mult+0x90>
   19ce0:	00492703          	lw	a4,4(s2)
   19ce4:	0449a783          	lw	a5,68(s3)
   19ce8:	00271713          	slli	a4,a4,0x2
   19cec:	00e787b3          	add	a5,a5,a4
   19cf0:	0007a703          	lw	a4,0(a5)
   19cf4:	00e92023          	sw	a4,0(s2)
   19cf8:	0127a023          	sw	s2,0(a5)
   19cfc:	40145413          	srai	s0,s0,0x1
   19d00:	00050913          	mv	s2,a0
   19d04:	fa041ae3          	bnez	s0,19cb8 <__pow5mult+0x4c>
   19d08:	01c12083          	lw	ra,28(sp)
   19d0c:	01812403          	lw	s0,24(sp)
   19d10:	01412483          	lw	s1,20(sp)
   19d14:	00c12983          	lw	s3,12(sp)
   19d18:	00090513          	mv	a0,s2
   19d1c:	01012903          	lw	s2,16(sp)
   19d20:	02010113          	addi	sp,sp,32
   19d24:	00008067          	ret
   19d28:	00048613          	mv	a2,s1
   19d2c:	00048593          	mv	a1,s1
   19d30:	00098513          	mv	a0,s3
   19d34:	c8dff0ef          	jal	ra,199c0 <__multiply>
   19d38:	00a4a023          	sw	a0,0(s1)
   19d3c:	00052023          	sw	zero,0(a0)
   19d40:	00050493          	mv	s1,a0
   19d44:	f81ff06f          	j	19cc4 <__pow5mult+0x58>
   19d48:	fff78793          	addi	a5,a5,-1
   19d4c:	00008717          	auipc	a4,0x8
   19d50:	62470713          	addi	a4,a4,1572 # 22370 <p05.0>
   19d54:	00279793          	slli	a5,a5,0x2
   19d58:	00f707b3          	add	a5,a4,a5
   19d5c:	0007a603          	lw	a2,0(a5)
   19d60:	00000693          	li	a3,0
   19d64:	fa4ff0ef          	jal	ra,19508 <__multadd>
   19d68:	00050913          	mv	s2,a0
   19d6c:	f2dff06f          	j	19c98 <__pow5mult+0x2c>
   19d70:	00100593          	li	a1,1
   19d74:	00098513          	mv	a0,s3
   19d78:	ec4ff0ef          	jal	ra,1943c <_Balloc>
   19d7c:	00050493          	mv	s1,a0
   19d80:	02050063          	beqz	a0,19da0 <__pow5mult+0x134>
   19d84:	27100793          	li	a5,625
   19d88:	00f52a23          	sw	a5,20(a0)
   19d8c:	00100793          	li	a5,1
   19d90:	00f52823          	sw	a5,16(a0)
   19d94:	04a9a023          	sw	a0,64(s3)
   19d98:	00052023          	sw	zero,0(a0)
   19d9c:	f0dff06f          	j	19ca8 <__pow5mult+0x3c>
   19da0:	00008697          	auipc	a3,0x8
   19da4:	55468693          	addi	a3,a3,1364 # 222f4 <blanks.1+0x78>
   19da8:	00000613          	li	a2,0
   19dac:	14500593          	li	a1,325
   19db0:	00008517          	auipc	a0,0x8
   19db4:	55850513          	addi	a0,a0,1368 # 22308 <blanks.1+0x8c>
   19db8:	450010ef          	jal	ra,1b208 <__assert_func>

00019dbc <__lshift>:
   19dbc:	fe010113          	addi	sp,sp,-32
   19dc0:	01512223          	sw	s5,4(sp)
   19dc4:	0105aa83          	lw	s5,16(a1)
   19dc8:	0085a783          	lw	a5,8(a1)
   19dcc:	01312623          	sw	s3,12(sp)
   19dd0:	40565993          	srai	s3,a2,0x5
   19dd4:	01598ab3          	add	s5,s3,s5
   19dd8:	00812c23          	sw	s0,24(sp)
   19ddc:	00912a23          	sw	s1,20(sp)
   19de0:	01212823          	sw	s2,16(sp)
   19de4:	01412423          	sw	s4,8(sp)
   19de8:	00112e23          	sw	ra,28(sp)
   19dec:	001a8913          	addi	s2,s5,1
   19df0:	00058493          	mv	s1,a1
   19df4:	00060413          	mv	s0,a2
   19df8:	0045a583          	lw	a1,4(a1)
   19dfc:	00050a13          	mv	s4,a0
   19e00:	0127d863          	bge	a5,s2,19e10 <__lshift+0x54>
   19e04:	00179793          	slli	a5,a5,0x1
   19e08:	00158593          	addi	a1,a1,1
   19e0c:	ff27cce3          	blt	a5,s2,19e04 <__lshift+0x48>
   19e10:	000a0513          	mv	a0,s4
   19e14:	e28ff0ef          	jal	ra,1943c <_Balloc>
   19e18:	10050c63          	beqz	a0,19f30 <__lshift+0x174>
   19e1c:	01450813          	addi	a6,a0,20
   19e20:	03305463          	blez	s3,19e48 <__lshift+0x8c>
   19e24:	00598993          	addi	s3,s3,5
   19e28:	00299993          	slli	s3,s3,0x2
   19e2c:	01350733          	add	a4,a0,s3
   19e30:	00080793          	mv	a5,a6
   19e34:	00478793          	addi	a5,a5,4
   19e38:	fe07ae23          	sw	zero,-4(a5)
   19e3c:	fee79ce3          	bne	a5,a4,19e34 <__lshift+0x78>
   19e40:	fec98993          	addi	s3,s3,-20
   19e44:	01380833          	add	a6,a6,s3
   19e48:	0104a883          	lw	a7,16(s1)
   19e4c:	01448793          	addi	a5,s1,20
   19e50:	01f47613          	andi	a2,s0,31
   19e54:	00289893          	slli	a7,a7,0x2
   19e58:	011788b3          	add	a7,a5,a7
   19e5c:	0a060463          	beqz	a2,19f04 <__lshift+0x148>
   19e60:	02000593          	li	a1,32
   19e64:	40c585b3          	sub	a1,a1,a2
   19e68:	00080313          	mv	t1,a6
   19e6c:	00000693          	li	a3,0
   19e70:	0007a703          	lw	a4,0(a5)
   19e74:	00430313          	addi	t1,t1,4
   19e78:	00478793          	addi	a5,a5,4
   19e7c:	00c71733          	sll	a4,a4,a2
   19e80:	00d76733          	or	a4,a4,a3
   19e84:	fee32e23          	sw	a4,-4(t1)
   19e88:	ffc7a683          	lw	a3,-4(a5)
   19e8c:	00b6d6b3          	srl	a3,a3,a1
   19e90:	ff17e0e3          	bltu	a5,a7,19e70 <__lshift+0xb4>
   19e94:	01548793          	addi	a5,s1,21
   19e98:	00400713          	li	a4,4
   19e9c:	00f8ea63          	bltu	a7,a5,19eb0 <__lshift+0xf4>
   19ea0:	409887b3          	sub	a5,a7,s1
   19ea4:	feb78793          	addi	a5,a5,-21
   19ea8:	ffc7f793          	andi	a5,a5,-4
   19eac:	00478713          	addi	a4,a5,4
   19eb0:	00e80833          	add	a6,a6,a4
   19eb4:	00d82023          	sw	a3,0(a6)
   19eb8:	00069463          	bnez	a3,19ec0 <__lshift+0x104>
   19ebc:	000a8913          	mv	s2,s5
   19ec0:	0044a703          	lw	a4,4(s1)
   19ec4:	044a2783          	lw	a5,68(s4)
   19ec8:	01c12083          	lw	ra,28(sp)
   19ecc:	00271713          	slli	a4,a4,0x2
   19ed0:	00e787b3          	add	a5,a5,a4
   19ed4:	0007a703          	lw	a4,0(a5)
   19ed8:	01252823          	sw	s2,16(a0)
   19edc:	01812403          	lw	s0,24(sp)
   19ee0:	00e4a023          	sw	a4,0(s1)
   19ee4:	0097a023          	sw	s1,0(a5)
   19ee8:	01012903          	lw	s2,16(sp)
   19eec:	01412483          	lw	s1,20(sp)
   19ef0:	00c12983          	lw	s3,12(sp)
   19ef4:	00812a03          	lw	s4,8(sp)
   19ef8:	00412a83          	lw	s5,4(sp)
   19efc:	02010113          	addi	sp,sp,32
   19f00:	00008067          	ret
   19f04:	0007a703          	lw	a4,0(a5)
   19f08:	00478793          	addi	a5,a5,4
   19f0c:	00480813          	addi	a6,a6,4
   19f10:	fee82e23          	sw	a4,-4(a6)
   19f14:	fb17f4e3          	bgeu	a5,a7,19ebc <__lshift+0x100>
   19f18:	0007a703          	lw	a4,0(a5)
   19f1c:	00478793          	addi	a5,a5,4
   19f20:	00480813          	addi	a6,a6,4
   19f24:	fee82e23          	sw	a4,-4(a6)
   19f28:	fd17eee3          	bltu	a5,a7,19f04 <__lshift+0x148>
   19f2c:	f91ff06f          	j	19ebc <__lshift+0x100>
   19f30:	00008697          	auipc	a3,0x8
   19f34:	3c468693          	addi	a3,a3,964 # 222f4 <blanks.1+0x78>
   19f38:	00000613          	li	a2,0
   19f3c:	1de00593          	li	a1,478
   19f40:	00008517          	auipc	a0,0x8
   19f44:	3c850513          	addi	a0,a0,968 # 22308 <blanks.1+0x8c>
   19f48:	2c0010ef          	jal	ra,1b208 <__assert_func>

00019f4c <__mcmp>:
   19f4c:	01052703          	lw	a4,16(a0)
   19f50:	0105a783          	lw	a5,16(a1)
   19f54:	00050813          	mv	a6,a0
   19f58:	40f70533          	sub	a0,a4,a5
   19f5c:	04f71263          	bne	a4,a5,19fa0 <__mcmp+0x54>
   19f60:	00279793          	slli	a5,a5,0x2
   19f64:	01480813          	addi	a6,a6,20
   19f68:	01458593          	addi	a1,a1,20
   19f6c:	00f80733          	add	a4,a6,a5
   19f70:	00f587b3          	add	a5,a1,a5
   19f74:	0080006f          	j	19f7c <__mcmp+0x30>
   19f78:	02e87463          	bgeu	a6,a4,19fa0 <__mcmp+0x54>
   19f7c:	ffc72603          	lw	a2,-4(a4)
   19f80:	ffc7a683          	lw	a3,-4(a5)
   19f84:	ffc70713          	addi	a4,a4,-4
   19f88:	ffc78793          	addi	a5,a5,-4
   19f8c:	fed606e3          	beq	a2,a3,19f78 <__mcmp+0x2c>
   19f90:	00100513          	li	a0,1
   19f94:	00d67663          	bgeu	a2,a3,19fa0 <__mcmp+0x54>
   19f98:	fff00513          	li	a0,-1
   19f9c:	00008067          	ret
   19fa0:	00008067          	ret

00019fa4 <__mdiff>:
   19fa4:	0105a703          	lw	a4,16(a1)
   19fa8:	01062783          	lw	a5,16(a2)
   19fac:	ff010113          	addi	sp,sp,-16
   19fb0:	00812423          	sw	s0,8(sp)
   19fb4:	00912223          	sw	s1,4(sp)
   19fb8:	01212023          	sw	s2,0(sp)
   19fbc:	00112623          	sw	ra,12(sp)
   19fc0:	00058493          	mv	s1,a1
   19fc4:	00060413          	mv	s0,a2
   19fc8:	40f70933          	sub	s2,a4,a5
   19fcc:	04f71663          	bne	a4,a5,1a018 <__mdiff+0x74>
   19fd0:	00279693          	slli	a3,a5,0x2
   19fd4:	01458593          	addi	a1,a1,20
   19fd8:	01460713          	addi	a4,a2,20
   19fdc:	00d587b3          	add	a5,a1,a3
   19fe0:	00d70733          	add	a4,a4,a3
   19fe4:	0080006f          	j	19fec <__mdiff+0x48>
   19fe8:	18f5f463          	bgeu	a1,a5,1a170 <__mdiff+0x1cc>
   19fec:	ffc7a603          	lw	a2,-4(a5)
   19ff0:	ffc72683          	lw	a3,-4(a4)
   19ff4:	ffc78793          	addi	a5,a5,-4
   19ff8:	ffc70713          	addi	a4,a4,-4
   19ffc:	fed606e3          	beq	a2,a3,19fe8 <__mdiff+0x44>
   1a000:	02d67063          	bgeu	a2,a3,1a020 <__mdiff+0x7c>
   1a004:	00048793          	mv	a5,s1
   1a008:	00100913          	li	s2,1
   1a00c:	00040493          	mv	s1,s0
   1a010:	00078413          	mv	s0,a5
   1a014:	00c0006f          	j	1a020 <__mdiff+0x7c>
   1a018:	fe0946e3          	bltz	s2,1a004 <__mdiff+0x60>
   1a01c:	00000913          	li	s2,0
   1a020:	0044a583          	lw	a1,4(s1)
   1a024:	c18ff0ef          	jal	ra,1943c <_Balloc>
   1a028:	1a050863          	beqz	a0,1a1d8 <__mdiff+0x234>
   1a02c:	0104a303          	lw	t1,16(s1)
   1a030:	01042603          	lw	a2,16(s0)
   1a034:	01448293          	addi	t0,s1,20
   1a038:	00231e13          	slli	t3,t1,0x2
   1a03c:	01440813          	addi	a6,s0,20
   1a040:	00261613          	slli	a2,a2,0x2
   1a044:	01450f93          	addi	t6,a0,20
   1a048:	000108b7          	lui	a7,0x10
   1a04c:	01252623          	sw	s2,12(a0)
   1a050:	01c28e33          	add	t3,t0,t3
   1a054:	00c80633          	add	a2,a6,a2
   1a058:	000f8f13          	mv	t5,t6
   1a05c:	00028e93          	mv	t4,t0
   1a060:	00000693          	li	a3,0
   1a064:	fff88893          	addi	a7,a7,-1 # ffff <exit-0x95>
   1a068:	000ea703          	lw	a4,0(t4)
   1a06c:	00082583          	lw	a1,0(a6)
   1a070:	004f0f13          	addi	t5,t5,4
   1a074:	011777b3          	and	a5,a4,a7
   1a078:	0115f3b3          	and	t2,a1,a7
   1a07c:	407787b3          	sub	a5,a5,t2
   1a080:	00d787b3          	add	a5,a5,a3
   1a084:	01075713          	srli	a4,a4,0x10
   1a088:	0105d593          	srli	a1,a1,0x10
   1a08c:	4107d693          	srai	a3,a5,0x10
   1a090:	40b70733          	sub	a4,a4,a1
   1a094:	00d70733          	add	a4,a4,a3
   1a098:	01071693          	slli	a3,a4,0x10
   1a09c:	0117f7b3          	and	a5,a5,a7
   1a0a0:	00d7e7b3          	or	a5,a5,a3
   1a0a4:	00480813          	addi	a6,a6,4
   1a0a8:	feff2e23          	sw	a5,-4(t5)
   1a0ac:	004e8e93          	addi	t4,t4,4
   1a0b0:	41075693          	srai	a3,a4,0x10
   1a0b4:	fac86ae3          	bltu	a6,a2,1a068 <__mdiff+0xc4>
   1a0b8:	40860733          	sub	a4,a2,s0
   1a0bc:	feb70713          	addi	a4,a4,-21
   1a0c0:	01540413          	addi	s0,s0,21
   1a0c4:	00275f13          	srli	t5,a4,0x2
   1a0c8:	00400713          	li	a4,4
   1a0cc:	00866663          	bltu	a2,s0,1a0d8 <__mdiff+0x134>
   1a0d0:	001f0713          	addi	a4,t5,1
   1a0d4:	00271713          	slli	a4,a4,0x2
   1a0d8:	00e282b3          	add	t0,t0,a4
   1a0dc:	00ef8833          	add	a6,t6,a4
   1a0e0:	00010eb7          	lui	t4,0x10
   1a0e4:	00080893          	mv	a7,a6
   1a0e8:	00028593          	mv	a1,t0
   1a0ec:	fffe8e93          	addi	t4,t4,-1 # ffff <exit-0x95>
   1a0f0:	0bc2f863          	bgeu	t0,t3,1a1a0 <__mdiff+0x1fc>
   1a0f4:	0005a783          	lw	a5,0(a1)
   1a0f8:	00488893          	addi	a7,a7,4
   1a0fc:	00458593          	addi	a1,a1,4
   1a100:	01d7f733          	and	a4,a5,t4
   1a104:	00d70733          	add	a4,a4,a3
   1a108:	0107d613          	srli	a2,a5,0x10
   1a10c:	41075713          	srai	a4,a4,0x10
   1a110:	00c70733          	add	a4,a4,a2
   1a114:	00d787b3          	add	a5,a5,a3
   1a118:	01d7f7b3          	and	a5,a5,t4
   1a11c:	01071693          	slli	a3,a4,0x10
   1a120:	00d7e7b3          	or	a5,a5,a3
   1a124:	fef8ae23          	sw	a5,-4(a7)
   1a128:	41075693          	srai	a3,a4,0x10
   1a12c:	fdc5e4e3          	bltu	a1,t3,1a0f4 <__mdiff+0x150>
   1a130:	fffe0e13          	addi	t3,t3,-1
   1a134:	405e0e33          	sub	t3,t3,t0
   1a138:	ffce7e13          	andi	t3,t3,-4
   1a13c:	01c80733          	add	a4,a6,t3
   1a140:	00079a63          	bnez	a5,1a154 <__mdiff+0x1b0>
   1a144:	ffc72783          	lw	a5,-4(a4)
   1a148:	fff30313          	addi	t1,t1,-1
   1a14c:	ffc70713          	addi	a4,a4,-4
   1a150:	fe078ae3          	beqz	a5,1a144 <__mdiff+0x1a0>
   1a154:	00c12083          	lw	ra,12(sp)
   1a158:	00812403          	lw	s0,8(sp)
   1a15c:	00652823          	sw	t1,16(a0)
   1a160:	00412483          	lw	s1,4(sp)
   1a164:	00012903          	lw	s2,0(sp)
   1a168:	01010113          	addi	sp,sp,16
   1a16c:	00008067          	ret
   1a170:	00000593          	li	a1,0
   1a174:	ac8ff0ef          	jal	ra,1943c <_Balloc>
   1a178:	04050263          	beqz	a0,1a1bc <__mdiff+0x218>
   1a17c:	00c12083          	lw	ra,12(sp)
   1a180:	00812403          	lw	s0,8(sp)
   1a184:	00100793          	li	a5,1
   1a188:	00f52823          	sw	a5,16(a0)
   1a18c:	00052a23          	sw	zero,20(a0)
   1a190:	00412483          	lw	s1,4(sp)
   1a194:	00012903          	lw	s2,0(sp)
   1a198:	01010113          	addi	sp,sp,16
   1a19c:	00008067          	ret
   1a1a0:	00000713          	li	a4,0
   1a1a4:	00867663          	bgeu	a2,s0,1a1b0 <__mdiff+0x20c>
   1a1a8:	00ef8733          	add	a4,t6,a4
   1a1ac:	f95ff06f          	j	1a140 <__mdiff+0x19c>
   1a1b0:	002f1713          	slli	a4,t5,0x2
   1a1b4:	00ef8733          	add	a4,t6,a4
   1a1b8:	f89ff06f          	j	1a140 <__mdiff+0x19c>
   1a1bc:	00008697          	auipc	a3,0x8
   1a1c0:	13868693          	addi	a3,a3,312 # 222f4 <blanks.1+0x78>
   1a1c4:	00000613          	li	a2,0
   1a1c8:	23700593          	li	a1,567
   1a1cc:	00008517          	auipc	a0,0x8
   1a1d0:	13c50513          	addi	a0,a0,316 # 22308 <blanks.1+0x8c>
   1a1d4:	034010ef          	jal	ra,1b208 <__assert_func>
   1a1d8:	00008697          	auipc	a3,0x8
   1a1dc:	11c68693          	addi	a3,a3,284 # 222f4 <blanks.1+0x78>
   1a1e0:	00000613          	li	a2,0
   1a1e4:	24500593          	li	a1,581
   1a1e8:	00008517          	auipc	a0,0x8
   1a1ec:	12050513          	addi	a0,a0,288 # 22308 <blanks.1+0x8c>
   1a1f0:	018010ef          	jal	ra,1b208 <__assert_func>

0001a1f4 <__ulp>:
   1a1f4:	7ff007b7          	lui	a5,0x7ff00
   1a1f8:	00b7f5b3          	and	a1,a5,a1
   1a1fc:	fcc007b7          	lui	a5,0xfcc00
   1a200:	00f585b3          	add	a1,a1,a5
   1a204:	00000793          	li	a5,0
   1a208:	00b05663          	blez	a1,1a214 <__ulp+0x20>
   1a20c:	00078513          	mv	a0,a5
   1a210:	00008067          	ret
   1a214:	40b005b3          	neg	a1,a1
   1a218:	4145d593          	srai	a1,a1,0x14
   1a21c:	01300793          	li	a5,19
   1a220:	00b7cc63          	blt	a5,a1,1a238 <__ulp+0x44>
   1a224:	000807b7          	lui	a5,0x80
   1a228:	40b7d5b3          	sra	a1,a5,a1
   1a22c:	00000793          	li	a5,0
   1a230:	00078513          	mv	a0,a5
   1a234:	00008067          	ret
   1a238:	fec58593          	addi	a1,a1,-20
   1a23c:	01e00713          	li	a4,30
   1a240:	00100793          	li	a5,1
   1a244:	00b74663          	blt	a4,a1,1a250 <__ulp+0x5c>
   1a248:	800007b7          	lui	a5,0x80000
   1a24c:	00b7d7b3          	srl	a5,a5,a1
   1a250:	00000593          	li	a1,0
   1a254:	00078513          	mv	a0,a5
   1a258:	00008067          	ret

0001a25c <__b2d>:
   1a25c:	fe010113          	addi	sp,sp,-32
   1a260:	00912a23          	sw	s1,20(sp)
   1a264:	01052483          	lw	s1,16(a0)
   1a268:	00812c23          	sw	s0,24(sp)
   1a26c:	01450413          	addi	s0,a0,20
   1a270:	00249493          	slli	s1,s1,0x2
   1a274:	009404b3          	add	s1,s0,s1
   1a278:	01212823          	sw	s2,16(sp)
   1a27c:	ffc4a903          	lw	s2,-4(s1)
   1a280:	01312623          	sw	s3,12(sp)
   1a284:	01412423          	sw	s4,8(sp)
   1a288:	00090513          	mv	a0,s2
   1a28c:	00058993          	mv	s3,a1
   1a290:	00112e23          	sw	ra,28(sp)
   1a294:	d24ff0ef          	jal	ra,197b8 <__hi0bits>
   1a298:	02000713          	li	a4,32
   1a29c:	40a707b3          	sub	a5,a4,a0
   1a2a0:	00f9a023          	sw	a5,0(s3)
   1a2a4:	00a00793          	li	a5,10
   1a2a8:	ffc48a13          	addi	s4,s1,-4
   1a2ac:	08a7dc63          	bge	a5,a0,1a344 <__b2d+0xe8>
   1a2b0:	ff550613          	addi	a2,a0,-11
   1a2b4:	05447063          	bgeu	s0,s4,1a2f4 <__b2d+0x98>
   1a2b8:	ff84a783          	lw	a5,-8(s1)
   1a2bc:	04060c63          	beqz	a2,1a314 <__b2d+0xb8>
   1a2c0:	40c706b3          	sub	a3,a4,a2
   1a2c4:	00d7d733          	srl	a4,a5,a3
   1a2c8:	00c91933          	sll	s2,s2,a2
   1a2cc:	00e96933          	or	s2,s2,a4
   1a2d0:	ff848593          	addi	a1,s1,-8
   1a2d4:	3ff00737          	lui	a4,0x3ff00
   1a2d8:	00e96733          	or	a4,s2,a4
   1a2dc:	00c797b3          	sll	a5,a5,a2
   1a2e0:	02b47e63          	bgeu	s0,a1,1a31c <__b2d+0xc0>
   1a2e4:	ff44a603          	lw	a2,-12(s1)
   1a2e8:	00d656b3          	srl	a3,a2,a3
   1a2ec:	00d7e7b3          	or	a5,a5,a3
   1a2f0:	02c0006f          	j	1a31c <__b2d+0xc0>
   1a2f4:	00b00793          	li	a5,11
   1a2f8:	00f50c63          	beq	a0,a5,1a310 <__b2d+0xb4>
   1a2fc:	00c91933          	sll	s2,s2,a2
   1a300:	3ff00737          	lui	a4,0x3ff00
   1a304:	00e96733          	or	a4,s2,a4
   1a308:	00000793          	li	a5,0
   1a30c:	0100006f          	j	1a31c <__b2d+0xc0>
   1a310:	00000793          	li	a5,0
   1a314:	3ff00737          	lui	a4,0x3ff00
   1a318:	00e96733          	or	a4,s2,a4
   1a31c:	01c12083          	lw	ra,28(sp)
   1a320:	01812403          	lw	s0,24(sp)
   1a324:	01412483          	lw	s1,20(sp)
   1a328:	01012903          	lw	s2,16(sp)
   1a32c:	00c12983          	lw	s3,12(sp)
   1a330:	00812a03          	lw	s4,8(sp)
   1a334:	00078513          	mv	a0,a5
   1a338:	00070593          	mv	a1,a4
   1a33c:	02010113          	addi	sp,sp,32
   1a340:	00008067          	ret
   1a344:	00b00693          	li	a3,11
   1a348:	40a686b3          	sub	a3,a3,a0
   1a34c:	3ff007b7          	lui	a5,0x3ff00
   1a350:	00d95733          	srl	a4,s2,a3
   1a354:	00f76733          	or	a4,a4,a5
   1a358:	00000793          	li	a5,0
   1a35c:	01447663          	bgeu	s0,s4,1a368 <__b2d+0x10c>
   1a360:	ff84a783          	lw	a5,-8(s1)
   1a364:	00d7d7b3          	srl	a5,a5,a3
   1a368:	01550513          	addi	a0,a0,21
   1a36c:	00a91933          	sll	s2,s2,a0
   1a370:	00f967b3          	or	a5,s2,a5
   1a374:	fa9ff06f          	j	1a31c <__b2d+0xc0>

0001a378 <__d2b>:
   1a378:	fd010113          	addi	sp,sp,-48
   1a37c:	01512a23          	sw	s5,20(sp)
   1a380:	00058a93          	mv	s5,a1
   1a384:	00100593          	li	a1,1
   1a388:	02912223          	sw	s1,36(sp)
   1a38c:	01312e23          	sw	s3,28(sp)
   1a390:	01412c23          	sw	s4,24(sp)
   1a394:	02112623          	sw	ra,44(sp)
   1a398:	02812423          	sw	s0,40(sp)
   1a39c:	03212023          	sw	s2,32(sp)
   1a3a0:	00060493          	mv	s1,a2
   1a3a4:	00068a13          	mv	s4,a3
   1a3a8:	00070993          	mv	s3,a4
   1a3ac:	890ff0ef          	jal	ra,1943c <_Balloc>
   1a3b0:	10050263          	beqz	a0,1a4b4 <__d2b+0x13c>
   1a3b4:	00100737          	lui	a4,0x100
   1a3b8:	0144d913          	srli	s2,s1,0x14
   1a3bc:	fff70793          	addi	a5,a4,-1 # fffff <__BSS_END__+0xdc4fb>
   1a3c0:	7ff97913          	andi	s2,s2,2047
   1a3c4:	00050413          	mv	s0,a0
   1a3c8:	0097f7b3          	and	a5,a5,s1
   1a3cc:	00090463          	beqz	s2,1a3d4 <__d2b+0x5c>
   1a3d0:	00e7e7b3          	or	a5,a5,a4
   1a3d4:	00f12623          	sw	a5,12(sp)
   1a3d8:	060a9263          	bnez	s5,1a43c <__d2b+0xc4>
   1a3dc:	00c10513          	addi	a0,sp,12
   1a3e0:	c50ff0ef          	jal	ra,19830 <__lo0bits>
   1a3e4:	00c12703          	lw	a4,12(sp)
   1a3e8:	00100493          	li	s1,1
   1a3ec:	00942823          	sw	s1,16(s0)
   1a3f0:	00e42a23          	sw	a4,20(s0)
   1a3f4:	02050793          	addi	a5,a0,32
   1a3f8:	08090863          	beqz	s2,1a488 <__d2b+0x110>
   1a3fc:	bcd90913          	addi	s2,s2,-1075
   1a400:	00f90933          	add	s2,s2,a5
   1a404:	03500493          	li	s1,53
   1a408:	012a2023          	sw	s2,0(s4)
   1a40c:	40f48533          	sub	a0,s1,a5
   1a410:	00a9a023          	sw	a0,0(s3)
   1a414:	02c12083          	lw	ra,44(sp)
   1a418:	00040513          	mv	a0,s0
   1a41c:	02812403          	lw	s0,40(sp)
   1a420:	02412483          	lw	s1,36(sp)
   1a424:	02012903          	lw	s2,32(sp)
   1a428:	01c12983          	lw	s3,28(sp)
   1a42c:	01812a03          	lw	s4,24(sp)
   1a430:	01412a83          	lw	s5,20(sp)
   1a434:	03010113          	addi	sp,sp,48
   1a438:	00008067          	ret
   1a43c:	00810513          	addi	a0,sp,8
   1a440:	01512423          	sw	s5,8(sp)
   1a444:	becff0ef          	jal	ra,19830 <__lo0bits>
   1a448:	00c12703          	lw	a4,12(sp)
   1a44c:	00050793          	mv	a5,a0
   1a450:	04050e63          	beqz	a0,1a4ac <__d2b+0x134>
   1a454:	00812603          	lw	a2,8(sp)
   1a458:	02000693          	li	a3,32
   1a45c:	40a686b3          	sub	a3,a3,a0
   1a460:	00d716b3          	sll	a3,a4,a3
   1a464:	00a75733          	srl	a4,a4,a0
   1a468:	00c6e6b3          	or	a3,a3,a2
   1a46c:	00e12623          	sw	a4,12(sp)
   1a470:	00e034b3          	snez	s1,a4
   1a474:	00148493          	addi	s1,s1,1
   1a478:	00d42a23          	sw	a3,20(s0)
   1a47c:	00e42c23          	sw	a4,24(s0)
   1a480:	00942823          	sw	s1,16(s0)
   1a484:	f6091ce3          	bnez	s2,1a3fc <__d2b+0x84>
   1a488:	00249713          	slli	a4,s1,0x2
   1a48c:	00e40733          	add	a4,s0,a4
   1a490:	01072503          	lw	a0,16(a4)
   1a494:	bce78793          	addi	a5,a5,-1074 # 3feffbce <__BSS_END__+0x3fedc0ca>
   1a498:	00fa2023          	sw	a5,0(s4)
   1a49c:	b1cff0ef          	jal	ra,197b8 <__hi0bits>
   1a4a0:	00549493          	slli	s1,s1,0x5
   1a4a4:	40a48533          	sub	a0,s1,a0
   1a4a8:	f69ff06f          	j	1a410 <__d2b+0x98>
   1a4ac:	00812683          	lw	a3,8(sp)
   1a4b0:	fc1ff06f          	j	1a470 <__d2b+0xf8>
   1a4b4:	00008697          	auipc	a3,0x8
   1a4b8:	e4068693          	addi	a3,a3,-448 # 222f4 <blanks.1+0x78>
   1a4bc:	00000613          	li	a2,0
   1a4c0:	30f00593          	li	a1,783
   1a4c4:	00008517          	auipc	a0,0x8
   1a4c8:	e4450513          	addi	a0,a0,-444 # 22308 <blanks.1+0x8c>
   1a4cc:	53d000ef          	jal	ra,1b208 <__assert_func>

0001a4d0 <__ratio>:
   1a4d0:	fd010113          	addi	sp,sp,-48
   1a4d4:	03212023          	sw	s2,32(sp)
   1a4d8:	00058913          	mv	s2,a1
   1a4dc:	00810593          	addi	a1,sp,8
   1a4e0:	02112623          	sw	ra,44(sp)
   1a4e4:	02812423          	sw	s0,40(sp)
   1a4e8:	02912223          	sw	s1,36(sp)
   1a4ec:	01312e23          	sw	s3,28(sp)
   1a4f0:	00050993          	mv	s3,a0
   1a4f4:	d69ff0ef          	jal	ra,1a25c <__b2d>
   1a4f8:	00050493          	mv	s1,a0
   1a4fc:	00058413          	mv	s0,a1
   1a500:	00090513          	mv	a0,s2
   1a504:	00c10593          	addi	a1,sp,12
   1a508:	d55ff0ef          	jal	ra,1a25c <__b2d>
   1a50c:	01092703          	lw	a4,16(s2)
   1a510:	0109a783          	lw	a5,16(s3)
   1a514:	00c12683          	lw	a3,12(sp)
   1a518:	40e787b3          	sub	a5,a5,a4
   1a51c:	00812703          	lw	a4,8(sp)
   1a520:	00579793          	slli	a5,a5,0x5
   1a524:	40d70733          	sub	a4,a4,a3
   1a528:	00e787b3          	add	a5,a5,a4
   1a52c:	00050713          	mv	a4,a0
   1a530:	02f05e63          	blez	a5,1a56c <__ratio+0x9c>
   1a534:	01479793          	slli	a5,a5,0x14
   1a538:	00878433          	add	s0,a5,s0
   1a53c:	00058693          	mv	a3,a1
   1a540:	00048513          	mv	a0,s1
   1a544:	00040593          	mv	a1,s0
   1a548:	00070613          	mv	a2,a4
   1a54c:	2a9020ef          	jal	ra,1cff4 <__divdf3>
   1a550:	02c12083          	lw	ra,44(sp)
   1a554:	02812403          	lw	s0,40(sp)
   1a558:	02412483          	lw	s1,36(sp)
   1a55c:	02012903          	lw	s2,32(sp)
   1a560:	01c12983          	lw	s3,28(sp)
   1a564:	03010113          	addi	sp,sp,48
   1a568:	00008067          	ret
   1a56c:	01479793          	slli	a5,a5,0x14
   1a570:	40f585b3          	sub	a1,a1,a5
   1a574:	fc9ff06f          	j	1a53c <__ratio+0x6c>

0001a578 <_mprec_log10>:
   1a578:	ff010113          	addi	sp,sp,-16
   1a57c:	01212023          	sw	s2,0(sp)
   1a580:	00112623          	sw	ra,12(sp)
   1a584:	00812423          	sw	s0,8(sp)
   1a588:	00912223          	sw	s1,4(sp)
   1a58c:	01700793          	li	a5,23
   1a590:	00050913          	mv	s2,a0
   1a594:	04a7de63          	bge	a5,a0,1a5f0 <_mprec_log10+0x78>
   1a598:	00009717          	auipc	a4,0x9
   1a59c:	20070713          	addi	a4,a4,512 # 23798 <__SDATA_BEGIN__+0x30>
   1a5a0:	00072783          	lw	a5,0(a4)
   1a5a4:	00472583          	lw	a1,4(a4)
   1a5a8:	00009717          	auipc	a4,0x9
   1a5ac:	1f870713          	addi	a4,a4,504 # 237a0 <__SDATA_BEGIN__+0x38>
   1a5b0:	00072403          	lw	s0,0(a4)
   1a5b4:	00472483          	lw	s1,4(a4)
   1a5b8:	00078513          	mv	a0,a5
   1a5bc:	00040613          	mv	a2,s0
   1a5c0:	00048693          	mv	a3,s1
   1a5c4:	4ac030ef          	jal	ra,1da70 <__muldf3>
   1a5c8:	fff90913          	addi	s2,s2,-1
   1a5cc:	00050793          	mv	a5,a0
   1a5d0:	fe0914e3          	bnez	s2,1a5b8 <_mprec_log10+0x40>
   1a5d4:	00c12083          	lw	ra,12(sp)
   1a5d8:	00812403          	lw	s0,8(sp)
   1a5dc:	00412483          	lw	s1,4(sp)
   1a5e0:	00012903          	lw	s2,0(sp)
   1a5e4:	00078513          	mv	a0,a5
   1a5e8:	01010113          	addi	sp,sp,16
   1a5ec:	00008067          	ret
   1a5f0:	00351913          	slli	s2,a0,0x3
   1a5f4:	00008717          	auipc	a4,0x8
   1a5f8:	ddc70713          	addi	a4,a4,-548 # 223d0 <__mprec_tens>
   1a5fc:	01270733          	add	a4,a4,s2
   1a600:	00072783          	lw	a5,0(a4)
   1a604:	00c12083          	lw	ra,12(sp)
   1a608:	00812403          	lw	s0,8(sp)
   1a60c:	00472583          	lw	a1,4(a4)
   1a610:	00412483          	lw	s1,4(sp)
   1a614:	00012903          	lw	s2,0(sp)
   1a618:	00078513          	mv	a0,a5
   1a61c:	01010113          	addi	sp,sp,16
   1a620:	00008067          	ret

0001a624 <__copybits>:
   1a624:	01062683          	lw	a3,16(a2)
   1a628:	fff58593          	addi	a1,a1,-1
   1a62c:	4055d593          	srai	a1,a1,0x5
   1a630:	00158593          	addi	a1,a1,1
   1a634:	01460793          	addi	a5,a2,20
   1a638:	00269693          	slli	a3,a3,0x2
   1a63c:	00259593          	slli	a1,a1,0x2
   1a640:	00d786b3          	add	a3,a5,a3
   1a644:	00b505b3          	add	a1,a0,a1
   1a648:	02d7f863          	bgeu	a5,a3,1a678 <__copybits+0x54>
   1a64c:	00050713          	mv	a4,a0
   1a650:	0007a803          	lw	a6,0(a5)
   1a654:	00478793          	addi	a5,a5,4
   1a658:	00470713          	addi	a4,a4,4
   1a65c:	ff072e23          	sw	a6,-4(a4)
   1a660:	fed7e8e3          	bltu	a5,a3,1a650 <__copybits+0x2c>
   1a664:	40c687b3          	sub	a5,a3,a2
   1a668:	feb78793          	addi	a5,a5,-21
   1a66c:	ffc7f793          	andi	a5,a5,-4
   1a670:	00478793          	addi	a5,a5,4
   1a674:	00f50533          	add	a0,a0,a5
   1a678:	00b57863          	bgeu	a0,a1,1a688 <__copybits+0x64>
   1a67c:	00450513          	addi	a0,a0,4
   1a680:	fe052e23          	sw	zero,-4(a0)
   1a684:	feb56ce3          	bltu	a0,a1,1a67c <__copybits+0x58>
   1a688:	00008067          	ret

0001a68c <__any_on>:
   1a68c:	01052703          	lw	a4,16(a0)
   1a690:	4055d613          	srai	a2,a1,0x5
   1a694:	01450693          	addi	a3,a0,20
   1a698:	02c75263          	bge	a4,a2,1a6bc <__any_on+0x30>
   1a69c:	00271713          	slli	a4,a4,0x2
   1a6a0:	00e687b3          	add	a5,a3,a4
   1a6a4:	04f6f263          	bgeu	a3,a5,1a6e8 <__any_on+0x5c>
   1a6a8:	ffc7a703          	lw	a4,-4(a5)
   1a6ac:	ffc78793          	addi	a5,a5,-4
   1a6b0:	fe070ae3          	beqz	a4,1a6a4 <__any_on+0x18>
   1a6b4:	00100513          	li	a0,1
   1a6b8:	00008067          	ret
   1a6bc:	00261793          	slli	a5,a2,0x2
   1a6c0:	00f687b3          	add	a5,a3,a5
   1a6c4:	fee650e3          	bge	a2,a4,1a6a4 <__any_on+0x18>
   1a6c8:	01f5f593          	andi	a1,a1,31
   1a6cc:	fc058ce3          	beqz	a1,1a6a4 <__any_on+0x18>
   1a6d0:	0007a603          	lw	a2,0(a5)
   1a6d4:	00100513          	li	a0,1
   1a6d8:	00b65733          	srl	a4,a2,a1
   1a6dc:	00b71733          	sll	a4,a4,a1
   1a6e0:	fce602e3          	beq	a2,a4,1a6a4 <__any_on+0x18>
   1a6e4:	00008067          	ret
   1a6e8:	00000513          	li	a0,0
   1a6ec:	00008067          	ret

0001a6f0 <_realloc_r>:
   1a6f0:	fd010113          	addi	sp,sp,-48
   1a6f4:	02912223          	sw	s1,36(sp)
   1a6f8:	02112623          	sw	ra,44(sp)
   1a6fc:	02812423          	sw	s0,40(sp)
   1a700:	03212023          	sw	s2,32(sp)
   1a704:	01312e23          	sw	s3,28(sp)
   1a708:	01412c23          	sw	s4,24(sp)
   1a70c:	01512a23          	sw	s5,20(sp)
   1a710:	01612823          	sw	s6,16(sp)
   1a714:	01712623          	sw	s7,12(sp)
   1a718:	01812423          	sw	s8,8(sp)
   1a71c:	00060493          	mv	s1,a2
   1a720:	1c058263          	beqz	a1,1a8e4 <_realloc_r+0x1f4>
   1a724:	00058413          	mv	s0,a1
   1a728:	00050913          	mv	s2,a0
   1a72c:	c54f70ef          	jal	ra,11b80 <__malloc_lock>
   1a730:	ffc42703          	lw	a4,-4(s0)
   1a734:	00b48793          	addi	a5,s1,11
   1a738:	01600693          	li	a3,22
   1a73c:	ff840a93          	addi	s5,s0,-8
   1a740:	ffc77993          	andi	s3,a4,-4
   1a744:	0ef6f663          	bgeu	a3,a5,1a830 <_realloc_r+0x140>
   1a748:	ff87fa13          	andi	s4,a5,-8
   1a74c:	0e07c663          	bltz	a5,1a838 <_realloc_r+0x148>
   1a750:	0e9a6463          	bltu	s4,s1,1a838 <_realloc_r+0x148>
   1a754:	1149d463          	bge	s3,s4,1a85c <_realloc_r+0x16c>
   1a758:	00009c17          	auipc	s8,0x9
   1a75c:	a98c0c13          	addi	s8,s8,-1384 # 231f0 <__malloc_av_>
   1a760:	008c2603          	lw	a2,8(s8)
   1a764:	013a86b3          	add	a3,s5,s3
   1a768:	0046a783          	lw	a5,4(a3)
   1a76c:	1cd60e63          	beq	a2,a3,1a948 <_realloc_r+0x258>
   1a770:	ffe7f613          	andi	a2,a5,-2
   1a774:	00c68633          	add	a2,a3,a2
   1a778:	00462603          	lw	a2,4(a2)
   1a77c:	00167613          	andi	a2,a2,1
   1a780:	14061463          	bnez	a2,1a8c8 <_realloc_r+0x1d8>
   1a784:	ffc7f793          	andi	a5,a5,-4
   1a788:	00f98633          	add	a2,s3,a5
   1a78c:	0b465e63          	bge	a2,s4,1a848 <_realloc_r+0x158>
   1a790:	00177713          	andi	a4,a4,1
   1a794:	02071463          	bnez	a4,1a7bc <_realloc_r+0xcc>
   1a798:	ff842b83          	lw	s7,-8(s0)
   1a79c:	417a8bb3          	sub	s7,s5,s7
   1a7a0:	004ba703          	lw	a4,4(s7)
   1a7a4:	ffc77713          	andi	a4,a4,-4
   1a7a8:	00e787b3          	add	a5,a5,a4
   1a7ac:	01378b33          	add	s6,a5,s3
   1a7b0:	334b5463          	bge	s6,s4,1aad8 <_realloc_r+0x3e8>
   1a7b4:	00e98b33          	add	s6,s3,a4
   1a7b8:	294b5663          	bge	s6,s4,1aa44 <_realloc_r+0x354>
   1a7bc:	00048593          	mv	a1,s1
   1a7c0:	00090513          	mv	a0,s2
   1a7c4:	c31f60ef          	jal	ra,113f4 <_malloc_r>
   1a7c8:	00050493          	mv	s1,a0
   1a7cc:	40050263          	beqz	a0,1abd0 <_realloc_r+0x4e0>
   1a7d0:	ffc42783          	lw	a5,-4(s0)
   1a7d4:	ff850713          	addi	a4,a0,-8
   1a7d8:	ffe7f793          	andi	a5,a5,-2
   1a7dc:	00fa87b3          	add	a5,s5,a5
   1a7e0:	24e78a63          	beq	a5,a4,1aa34 <_realloc_r+0x344>
   1a7e4:	ffc98613          	addi	a2,s3,-4
   1a7e8:	02400793          	li	a5,36
   1a7ec:	2ec7e063          	bltu	a5,a2,1aacc <_realloc_r+0x3dc>
   1a7f0:	01300713          	li	a4,19
   1a7f4:	20c76e63          	bltu	a4,a2,1aa10 <_realloc_r+0x320>
   1a7f8:	00050793          	mv	a5,a0
   1a7fc:	00040713          	mv	a4,s0
   1a800:	00072683          	lw	a3,0(a4)
   1a804:	00d7a023          	sw	a3,0(a5)
   1a808:	00472683          	lw	a3,4(a4)
   1a80c:	00d7a223          	sw	a3,4(a5)
   1a810:	00872703          	lw	a4,8(a4)
   1a814:	00e7a423          	sw	a4,8(a5)
   1a818:	00090513          	mv	a0,s2
   1a81c:	00040593          	mv	a1,s0
   1a820:	8d1f60ef          	jal	ra,110f0 <_free_r>
   1a824:	00090513          	mv	a0,s2
   1a828:	b5cf70ef          	jal	ra,11b84 <__malloc_unlock>
   1a82c:	0680006f          	j	1a894 <_realloc_r+0x1a4>
   1a830:	01000a13          	li	s4,16
   1a834:	f29a70e3          	bgeu	s4,s1,1a754 <_realloc_r+0x64>
   1a838:	00c00793          	li	a5,12
   1a83c:	00f92023          	sw	a5,0(s2)
   1a840:	00000493          	li	s1,0
   1a844:	0500006f          	j	1a894 <_realloc_r+0x1a4>
   1a848:	00c6a783          	lw	a5,12(a3)
   1a84c:	0086a703          	lw	a4,8(a3)
   1a850:	00060993          	mv	s3,a2
   1a854:	00f72623          	sw	a5,12(a4)
   1a858:	00e7a423          	sw	a4,8(a5)
   1a85c:	004aa783          	lw	a5,4(s5)
   1a860:	414986b3          	sub	a3,s3,s4
   1a864:	00f00613          	li	a2,15
   1a868:	0017f793          	andi	a5,a5,1
   1a86c:	013a8733          	add	a4,s5,s3
   1a870:	0ad66463          	bltu	a2,a3,1a918 <_realloc_r+0x228>
   1a874:	0137e7b3          	or	a5,a5,s3
   1a878:	00faa223          	sw	a5,4(s5)
   1a87c:	00472783          	lw	a5,4(a4)
   1a880:	0017e793          	ori	a5,a5,1
   1a884:	00f72223          	sw	a5,4(a4)
   1a888:	00090513          	mv	a0,s2
   1a88c:	af8f70ef          	jal	ra,11b84 <__malloc_unlock>
   1a890:	00040493          	mv	s1,s0
   1a894:	02c12083          	lw	ra,44(sp)
   1a898:	02812403          	lw	s0,40(sp)
   1a89c:	02012903          	lw	s2,32(sp)
   1a8a0:	01c12983          	lw	s3,28(sp)
   1a8a4:	01812a03          	lw	s4,24(sp)
   1a8a8:	01412a83          	lw	s5,20(sp)
   1a8ac:	01012b03          	lw	s6,16(sp)
   1a8b0:	00c12b83          	lw	s7,12(sp)
   1a8b4:	00812c03          	lw	s8,8(sp)
   1a8b8:	00048513          	mv	a0,s1
   1a8bc:	02412483          	lw	s1,36(sp)
   1a8c0:	03010113          	addi	sp,sp,48
   1a8c4:	00008067          	ret
   1a8c8:	00177713          	andi	a4,a4,1
   1a8cc:	ee0718e3          	bnez	a4,1a7bc <_realloc_r+0xcc>
   1a8d0:	ff842b83          	lw	s7,-8(s0)
   1a8d4:	417a8bb3          	sub	s7,s5,s7
   1a8d8:	004ba703          	lw	a4,4(s7)
   1a8dc:	ffc77713          	andi	a4,a4,-4
   1a8e0:	ed5ff06f          	j	1a7b4 <_realloc_r+0xc4>
   1a8e4:	02812403          	lw	s0,40(sp)
   1a8e8:	02c12083          	lw	ra,44(sp)
   1a8ec:	02412483          	lw	s1,36(sp)
   1a8f0:	02012903          	lw	s2,32(sp)
   1a8f4:	01c12983          	lw	s3,28(sp)
   1a8f8:	01812a03          	lw	s4,24(sp)
   1a8fc:	01412a83          	lw	s5,20(sp)
   1a900:	01012b03          	lw	s6,16(sp)
   1a904:	00c12b83          	lw	s7,12(sp)
   1a908:	00812c03          	lw	s8,8(sp)
   1a90c:	00060593          	mv	a1,a2
   1a910:	03010113          	addi	sp,sp,48
   1a914:	ae1f606f          	j	113f4 <_malloc_r>
   1a918:	0147e7b3          	or	a5,a5,s4
   1a91c:	00faa223          	sw	a5,4(s5)
   1a920:	014a85b3          	add	a1,s5,s4
   1a924:	0016e693          	ori	a3,a3,1
   1a928:	00d5a223          	sw	a3,4(a1)
   1a92c:	00472783          	lw	a5,4(a4)
   1a930:	00858593          	addi	a1,a1,8
   1a934:	00090513          	mv	a0,s2
   1a938:	0017e793          	ori	a5,a5,1
   1a93c:	00f72223          	sw	a5,4(a4)
   1a940:	fb0f60ef          	jal	ra,110f0 <_free_r>
   1a944:	f45ff06f          	j	1a888 <_realloc_r+0x198>
   1a948:	ffc7f793          	andi	a5,a5,-4
   1a94c:	013786b3          	add	a3,a5,s3
   1a950:	010a0613          	addi	a2,s4,16
   1a954:	22c6de63          	bge	a3,a2,1ab90 <_realloc_r+0x4a0>
   1a958:	00177713          	andi	a4,a4,1
   1a95c:	e60710e3          	bnez	a4,1a7bc <_realloc_r+0xcc>
   1a960:	ff842b83          	lw	s7,-8(s0)
   1a964:	417a8bb3          	sub	s7,s5,s7
   1a968:	004ba703          	lw	a4,4(s7)
   1a96c:	ffc77713          	andi	a4,a4,-4
   1a970:	00e787b3          	add	a5,a5,a4
   1a974:	01378b33          	add	s6,a5,s3
   1a978:	e2cb4ee3          	blt	s6,a2,1a7b4 <_realloc_r+0xc4>
   1a97c:	00cba783          	lw	a5,12(s7)
   1a980:	008ba703          	lw	a4,8(s7)
   1a984:	ffc98613          	addi	a2,s3,-4
   1a988:	02400693          	li	a3,36
   1a98c:	00f72623          	sw	a5,12(a4)
   1a990:	00e7a423          	sw	a4,8(a5)
   1a994:	008b8493          	addi	s1,s7,8
   1a998:	26c6e263          	bltu	a3,a2,1abfc <_realloc_r+0x50c>
   1a99c:	01300713          	li	a4,19
   1a9a0:	00048793          	mv	a5,s1
   1a9a4:	02c77263          	bgeu	a4,a2,1a9c8 <_realloc_r+0x2d8>
   1a9a8:	00042703          	lw	a4,0(s0)
   1a9ac:	01b00793          	li	a5,27
   1a9b0:	00eba423          	sw	a4,8(s7)
   1a9b4:	00442703          	lw	a4,4(s0)
   1a9b8:	00eba623          	sw	a4,12(s7)
   1a9bc:	24c7e863          	bltu	a5,a2,1ac0c <_realloc_r+0x51c>
   1a9c0:	00840413          	addi	s0,s0,8
   1a9c4:	010b8793          	addi	a5,s7,16
   1a9c8:	00042703          	lw	a4,0(s0)
   1a9cc:	00e7a023          	sw	a4,0(a5)
   1a9d0:	00442703          	lw	a4,4(s0)
   1a9d4:	00e7a223          	sw	a4,4(a5)
   1a9d8:	00842703          	lw	a4,8(s0)
   1a9dc:	00e7a423          	sw	a4,8(a5)
   1a9e0:	014b8733          	add	a4,s7,s4
   1a9e4:	414b07b3          	sub	a5,s6,s4
   1a9e8:	00ec2423          	sw	a4,8(s8)
   1a9ec:	0017e793          	ori	a5,a5,1
   1a9f0:	00f72223          	sw	a5,4(a4)
   1a9f4:	004ba783          	lw	a5,4(s7)
   1a9f8:	00090513          	mv	a0,s2
   1a9fc:	0017f793          	andi	a5,a5,1
   1aa00:	0147e7b3          	or	a5,a5,s4
   1aa04:	00fba223          	sw	a5,4(s7)
   1aa08:	97cf70ef          	jal	ra,11b84 <__malloc_unlock>
   1aa0c:	e89ff06f          	j	1a894 <_realloc_r+0x1a4>
   1aa10:	00042683          	lw	a3,0(s0)
   1aa14:	01b00713          	li	a4,27
   1aa18:	00d52023          	sw	a3,0(a0)
   1aa1c:	00442683          	lw	a3,4(s0)
   1aa20:	00d52223          	sw	a3,4(a0)
   1aa24:	14c76663          	bltu	a4,a2,1ab70 <_realloc_r+0x480>
   1aa28:	00840713          	addi	a4,s0,8
   1aa2c:	00850793          	addi	a5,a0,8
   1aa30:	dd1ff06f          	j	1a800 <_realloc_r+0x110>
   1aa34:	ffc52783          	lw	a5,-4(a0)
   1aa38:	ffc7f793          	andi	a5,a5,-4
   1aa3c:	00f989b3          	add	s3,s3,a5
   1aa40:	e1dff06f          	j	1a85c <_realloc_r+0x16c>
   1aa44:	00cba783          	lw	a5,12(s7)
   1aa48:	008ba703          	lw	a4,8(s7)
   1aa4c:	ffc98613          	addi	a2,s3,-4
   1aa50:	02400693          	li	a3,36
   1aa54:	00f72623          	sw	a5,12(a4)
   1aa58:	00e7a423          	sw	a4,8(a5)
   1aa5c:	008b8493          	addi	s1,s7,8
   1aa60:	10c6e063          	bltu	a3,a2,1ab60 <_realloc_r+0x470>
   1aa64:	01300713          	li	a4,19
   1aa68:	00048793          	mv	a5,s1
   1aa6c:	02c77c63          	bgeu	a4,a2,1aaa4 <_realloc_r+0x3b4>
   1aa70:	00042703          	lw	a4,0(s0)
   1aa74:	01b00793          	li	a5,27
   1aa78:	00eba423          	sw	a4,8(s7)
   1aa7c:	00442703          	lw	a4,4(s0)
   1aa80:	00eba623          	sw	a4,12(s7)
   1aa84:	14c7f063          	bgeu	a5,a2,1abc4 <_realloc_r+0x4d4>
   1aa88:	00842783          	lw	a5,8(s0)
   1aa8c:	00fba823          	sw	a5,16(s7)
   1aa90:	00c42783          	lw	a5,12(s0)
   1aa94:	00fbaa23          	sw	a5,20(s7)
   1aa98:	0ad60663          	beq	a2,a3,1ab44 <_realloc_r+0x454>
   1aa9c:	01040413          	addi	s0,s0,16
   1aaa0:	018b8793          	addi	a5,s7,24
   1aaa4:	00042703          	lw	a4,0(s0)
   1aaa8:	00e7a023          	sw	a4,0(a5)
   1aaac:	00442703          	lw	a4,4(s0)
   1aab0:	00e7a223          	sw	a4,4(a5)
   1aab4:	00842703          	lw	a4,8(s0)
   1aab8:	00e7a423          	sw	a4,8(a5)
   1aabc:	00048413          	mv	s0,s1
   1aac0:	000b0993          	mv	s3,s6
   1aac4:	000b8a93          	mv	s5,s7
   1aac8:	d95ff06f          	j	1a85c <_realloc_r+0x16c>
   1aacc:	00040593          	mv	a1,s0
   1aad0:	fddfb0ef          	jal	ra,16aac <memmove>
   1aad4:	d45ff06f          	j	1a818 <_realloc_r+0x128>
   1aad8:	00c6a783          	lw	a5,12(a3)
   1aadc:	0086a703          	lw	a4,8(a3)
   1aae0:	ffc98613          	addi	a2,s3,-4
   1aae4:	02400693          	li	a3,36
   1aae8:	00f72623          	sw	a5,12(a4)
   1aaec:	00e7a423          	sw	a4,8(a5)
   1aaf0:	008ba703          	lw	a4,8(s7)
   1aaf4:	00cba783          	lw	a5,12(s7)
   1aaf8:	008b8493          	addi	s1,s7,8
   1aafc:	00f72623          	sw	a5,12(a4)
   1ab00:	00e7a423          	sw	a4,8(a5)
   1ab04:	04c6ee63          	bltu	a3,a2,1ab60 <_realloc_r+0x470>
   1ab08:	01300713          	li	a4,19
   1ab0c:	00048793          	mv	a5,s1
   1ab10:	f8c77ae3          	bgeu	a4,a2,1aaa4 <_realloc_r+0x3b4>
   1ab14:	00042703          	lw	a4,0(s0)
   1ab18:	01b00793          	li	a5,27
   1ab1c:	00eba423          	sw	a4,8(s7)
   1ab20:	00442703          	lw	a4,4(s0)
   1ab24:	00eba623          	sw	a4,12(s7)
   1ab28:	08c7fe63          	bgeu	a5,a2,1abc4 <_realloc_r+0x4d4>
   1ab2c:	00842703          	lw	a4,8(s0)
   1ab30:	02400793          	li	a5,36
   1ab34:	00eba823          	sw	a4,16(s7)
   1ab38:	00c42703          	lw	a4,12(s0)
   1ab3c:	00ebaa23          	sw	a4,20(s7)
   1ab40:	f4f61ee3          	bne	a2,a5,1aa9c <_realloc_r+0x3ac>
   1ab44:	01042703          	lw	a4,16(s0)
   1ab48:	020b8793          	addi	a5,s7,32
   1ab4c:	01840413          	addi	s0,s0,24
   1ab50:	00ebac23          	sw	a4,24(s7)
   1ab54:	ffc42703          	lw	a4,-4(s0)
   1ab58:	00ebae23          	sw	a4,28(s7)
   1ab5c:	f49ff06f          	j	1aaa4 <_realloc_r+0x3b4>
   1ab60:	00040593          	mv	a1,s0
   1ab64:	00048513          	mv	a0,s1
   1ab68:	f45fb0ef          	jal	ra,16aac <memmove>
   1ab6c:	f51ff06f          	j	1aabc <_realloc_r+0x3cc>
   1ab70:	00842703          	lw	a4,8(s0)
   1ab74:	00e52423          	sw	a4,8(a0)
   1ab78:	00c42703          	lw	a4,12(s0)
   1ab7c:	00e52623          	sw	a4,12(a0)
   1ab80:	06f60063          	beq	a2,a5,1abe0 <_realloc_r+0x4f0>
   1ab84:	01040713          	addi	a4,s0,16
   1ab88:	01050793          	addi	a5,a0,16
   1ab8c:	c75ff06f          	j	1a800 <_realloc_r+0x110>
   1ab90:	014a8ab3          	add	s5,s5,s4
   1ab94:	414687b3          	sub	a5,a3,s4
   1ab98:	015c2423          	sw	s5,8(s8)
   1ab9c:	0017e793          	ori	a5,a5,1
   1aba0:	00faa223          	sw	a5,4(s5)
   1aba4:	ffc42783          	lw	a5,-4(s0)
   1aba8:	00090513          	mv	a0,s2
   1abac:	00040493          	mv	s1,s0
   1abb0:	0017f793          	andi	a5,a5,1
   1abb4:	0147e7b3          	or	a5,a5,s4
   1abb8:	fef42e23          	sw	a5,-4(s0)
   1abbc:	fc9f60ef          	jal	ra,11b84 <__malloc_unlock>
   1abc0:	cd5ff06f          	j	1a894 <_realloc_r+0x1a4>
   1abc4:	00840413          	addi	s0,s0,8
   1abc8:	010b8793          	addi	a5,s7,16
   1abcc:	ed9ff06f          	j	1aaa4 <_realloc_r+0x3b4>
   1abd0:	00090513          	mv	a0,s2
   1abd4:	fb1f60ef          	jal	ra,11b84 <__malloc_unlock>
   1abd8:	00000493          	li	s1,0
   1abdc:	cb9ff06f          	j	1a894 <_realloc_r+0x1a4>
   1abe0:	01042683          	lw	a3,16(s0)
   1abe4:	01840713          	addi	a4,s0,24
   1abe8:	01850793          	addi	a5,a0,24
   1abec:	00d52823          	sw	a3,16(a0)
   1abf0:	01442683          	lw	a3,20(s0)
   1abf4:	00d52a23          	sw	a3,20(a0)
   1abf8:	c09ff06f          	j	1a800 <_realloc_r+0x110>
   1abfc:	00040593          	mv	a1,s0
   1ac00:	00048513          	mv	a0,s1
   1ac04:	ea9fb0ef          	jal	ra,16aac <memmove>
   1ac08:	dd9ff06f          	j	1a9e0 <_realloc_r+0x2f0>
   1ac0c:	00842783          	lw	a5,8(s0)
   1ac10:	00fba823          	sw	a5,16(s7)
   1ac14:	00c42783          	lw	a5,12(s0)
   1ac18:	00fbaa23          	sw	a5,20(s7)
   1ac1c:	00d60863          	beq	a2,a3,1ac2c <_realloc_r+0x53c>
   1ac20:	01040413          	addi	s0,s0,16
   1ac24:	018b8793          	addi	a5,s7,24
   1ac28:	da1ff06f          	j	1a9c8 <_realloc_r+0x2d8>
   1ac2c:	01042703          	lw	a4,16(s0)
   1ac30:	020b8793          	addi	a5,s7,32
   1ac34:	01840413          	addi	s0,s0,24
   1ac38:	00ebac23          	sw	a4,24(s7)
   1ac3c:	ffc42703          	lw	a4,-4(s0)
   1ac40:	00ebae23          	sw	a4,28(s7)
   1ac44:	d85ff06f          	j	1a9c8 <_realloc_r+0x2d8>

0001ac48 <_wctomb_r>:
   1ac48:	e181a783          	lw	a5,-488(gp) # 236d8 <__global_locale+0xe0>
   1ac4c:	00078067          	jr	a5

0001ac50 <__ascii_wctomb>:
   1ac50:	02058463          	beqz	a1,1ac78 <__ascii_wctomb+0x28>
   1ac54:	0ff00793          	li	a5,255
   1ac58:	00c7e863          	bltu	a5,a2,1ac68 <__ascii_wctomb+0x18>
   1ac5c:	00c58023          	sb	a2,0(a1)
   1ac60:	00100513          	li	a0,1
   1ac64:	00008067          	ret
   1ac68:	08a00793          	li	a5,138
   1ac6c:	00f52023          	sw	a5,0(a0)
   1ac70:	fff00513          	li	a0,-1
   1ac74:	00008067          	ret
   1ac78:	00000513          	li	a0,0
   1ac7c:	00008067          	ret

0001ac80 <_wcrtomb_r>:
   1ac80:	fe010113          	addi	sp,sp,-32
   1ac84:	00812c23          	sw	s0,24(sp)
   1ac88:	00912a23          	sw	s1,20(sp)
   1ac8c:	00112e23          	sw	ra,28(sp)
   1ac90:	00050413          	mv	s0,a0
   1ac94:	00068493          	mv	s1,a3
   1ac98:	e181a783          	lw	a5,-488(gp) # 236d8 <__global_locale+0xe0>
   1ac9c:	02058263          	beqz	a1,1acc0 <_wcrtomb_r+0x40>
   1aca0:	000780e7          	jalr	a5
   1aca4:	fff00793          	li	a5,-1
   1aca8:	02f50663          	beq	a0,a5,1acd4 <_wcrtomb_r+0x54>
   1acac:	01c12083          	lw	ra,28(sp)
   1acb0:	01812403          	lw	s0,24(sp)
   1acb4:	01412483          	lw	s1,20(sp)
   1acb8:	02010113          	addi	sp,sp,32
   1acbc:	00008067          	ret
   1acc0:	00000613          	li	a2,0
   1acc4:	00410593          	addi	a1,sp,4
   1acc8:	000780e7          	jalr	a5
   1accc:	fff00793          	li	a5,-1
   1acd0:	fcf51ee3          	bne	a0,a5,1acac <_wcrtomb_r+0x2c>
   1acd4:	0004a023          	sw	zero,0(s1)
   1acd8:	08a00793          	li	a5,138
   1acdc:	01c12083          	lw	ra,28(sp)
   1ace0:	00f42023          	sw	a5,0(s0)
   1ace4:	01812403          	lw	s0,24(sp)
   1ace8:	01412483          	lw	s1,20(sp)
   1acec:	02010113          	addi	sp,sp,32
   1acf0:	00008067          	ret

0001acf4 <wcrtomb>:
   1acf4:	fe010113          	addi	sp,sp,-32
   1acf8:	00812c23          	sw	s0,24(sp)
   1acfc:	00912a23          	sw	s1,20(sp)
   1ad00:	00112e23          	sw	ra,28(sp)
   1ad04:	00060413          	mv	s0,a2
   1ad08:	f0c1a483          	lw	s1,-244(gp) # 237cc <_impure_ptr>
   1ad0c:	e181a783          	lw	a5,-488(gp) # 236d8 <__global_locale+0xe0>
   1ad10:	02050a63          	beqz	a0,1ad44 <wcrtomb+0x50>
   1ad14:	00058613          	mv	a2,a1
   1ad18:	00040693          	mv	a3,s0
   1ad1c:	00050593          	mv	a1,a0
   1ad20:	00048513          	mv	a0,s1
   1ad24:	000780e7          	jalr	a5
   1ad28:	fff00793          	li	a5,-1
   1ad2c:	02f50a63          	beq	a0,a5,1ad60 <wcrtomb+0x6c>
   1ad30:	01c12083          	lw	ra,28(sp)
   1ad34:	01812403          	lw	s0,24(sp)
   1ad38:	01412483          	lw	s1,20(sp)
   1ad3c:	02010113          	addi	sp,sp,32
   1ad40:	00008067          	ret
   1ad44:	00060693          	mv	a3,a2
   1ad48:	00410593          	addi	a1,sp,4
   1ad4c:	00000613          	li	a2,0
   1ad50:	00048513          	mv	a0,s1
   1ad54:	000780e7          	jalr	a5
   1ad58:	fff00793          	li	a5,-1
   1ad5c:	fcf51ae3          	bne	a0,a5,1ad30 <wcrtomb+0x3c>
   1ad60:	00042023          	sw	zero,0(s0)
   1ad64:	01c12083          	lw	ra,28(sp)
   1ad68:	01812403          	lw	s0,24(sp)
   1ad6c:	08a00793          	li	a5,138
   1ad70:	00f4a023          	sw	a5,0(s1)
   1ad74:	01412483          	lw	s1,20(sp)
   1ad78:	02010113          	addi	sp,sp,32
   1ad7c:	00008067          	ret

0001ad80 <__smakebuf_r>:
   1ad80:	00c59783          	lh	a5,12(a1)
   1ad84:	f8010113          	addi	sp,sp,-128
   1ad88:	06812c23          	sw	s0,120(sp)
   1ad8c:	06112e23          	sw	ra,124(sp)
   1ad90:	06912a23          	sw	s1,116(sp)
   1ad94:	07212823          	sw	s2,112(sp)
   1ad98:	07312623          	sw	s3,108(sp)
   1ad9c:	07412423          	sw	s4,104(sp)
   1ada0:	0027f713          	andi	a4,a5,2
   1ada4:	00058413          	mv	s0,a1
   1ada8:	02070c63          	beqz	a4,1ade0 <__smakebuf_r+0x60>
   1adac:	04358793          	addi	a5,a1,67
   1adb0:	00f5a023          	sw	a5,0(a1)
   1adb4:	00f5a823          	sw	a5,16(a1)
   1adb8:	00100793          	li	a5,1
   1adbc:	00f5aa23          	sw	a5,20(a1)
   1adc0:	07c12083          	lw	ra,124(sp)
   1adc4:	07812403          	lw	s0,120(sp)
   1adc8:	07412483          	lw	s1,116(sp)
   1adcc:	07012903          	lw	s2,112(sp)
   1add0:	06c12983          	lw	s3,108(sp)
   1add4:	06812a03          	lw	s4,104(sp)
   1add8:	08010113          	addi	sp,sp,128
   1addc:	00008067          	ret
   1ade0:	00e59583          	lh	a1,14(a1)
   1ade4:	00050493          	mv	s1,a0
   1ade8:	0805c663          	bltz	a1,1ae74 <__smakebuf_r+0xf4>
   1adec:	00810613          	addi	a2,sp,8
   1adf0:	370000ef          	jal	ra,1b160 <_fstat_r>
   1adf4:	06054e63          	bltz	a0,1ae70 <__smakebuf_r+0xf0>
   1adf8:	00c12783          	lw	a5,12(sp)
   1adfc:	0000f937          	lui	s2,0xf
   1ae00:	00001a37          	lui	s4,0x1
   1ae04:	00f97933          	and	s2,s2,a5
   1ae08:	ffffe7b7          	lui	a5,0xffffe
   1ae0c:	00f90933          	add	s2,s2,a5
   1ae10:	00193913          	seqz	s2,s2
   1ae14:	40000993          	li	s3,1024
   1ae18:	800a0a13          	addi	s4,s4,-2048 # 800 <exit-0xf894>
   1ae1c:	00098593          	mv	a1,s3
   1ae20:	00048513          	mv	a0,s1
   1ae24:	dd0f60ef          	jal	ra,113f4 <_malloc_r>
   1ae28:	00c41783          	lh	a5,12(s0)
   1ae2c:	06050863          	beqz	a0,1ae9c <__smakebuf_r+0x11c>
   1ae30:	0807e793          	ori	a5,a5,128
   1ae34:	00a42023          	sw	a0,0(s0)
   1ae38:	00a42823          	sw	a0,16(s0)
   1ae3c:	00f41623          	sh	a5,12(s0)
   1ae40:	01342a23          	sw	s3,20(s0)
   1ae44:	08091863          	bnez	s2,1aed4 <__smakebuf_r+0x154>
   1ae48:	0147e7b3          	or	a5,a5,s4
   1ae4c:	07c12083          	lw	ra,124(sp)
   1ae50:	00f41623          	sh	a5,12(s0)
   1ae54:	07812403          	lw	s0,120(sp)
   1ae58:	07412483          	lw	s1,116(sp)
   1ae5c:	07012903          	lw	s2,112(sp)
   1ae60:	06c12983          	lw	s3,108(sp)
   1ae64:	06812a03          	lw	s4,104(sp)
   1ae68:	08010113          	addi	sp,sp,128
   1ae6c:	00008067          	ret
   1ae70:	00c41783          	lh	a5,12(s0)
   1ae74:	0807f793          	andi	a5,a5,128
   1ae78:	00000913          	li	s2,0
   1ae7c:	04078663          	beqz	a5,1aec8 <__smakebuf_r+0x148>
   1ae80:	04000993          	li	s3,64
   1ae84:	00098593          	mv	a1,s3
   1ae88:	00048513          	mv	a0,s1
   1ae8c:	d68f60ef          	jal	ra,113f4 <_malloc_r>
   1ae90:	00c41783          	lh	a5,12(s0)
   1ae94:	00000a13          	li	s4,0
   1ae98:	f8051ce3          	bnez	a0,1ae30 <__smakebuf_r+0xb0>
   1ae9c:	2007f713          	andi	a4,a5,512
   1aea0:	f20710e3          	bnez	a4,1adc0 <__smakebuf_r+0x40>
   1aea4:	ffc7f793          	andi	a5,a5,-4
   1aea8:	0027e793          	ori	a5,a5,2
   1aeac:	04340713          	addi	a4,s0,67
   1aeb0:	00f41623          	sh	a5,12(s0)
   1aeb4:	00100793          	li	a5,1
   1aeb8:	00e42023          	sw	a4,0(s0)
   1aebc:	00e42823          	sw	a4,16(s0)
   1aec0:	00f42a23          	sw	a5,20(s0)
   1aec4:	efdff06f          	j	1adc0 <__smakebuf_r+0x40>
   1aec8:	40000993          	li	s3,1024
   1aecc:	00000a13          	li	s4,0
   1aed0:	f4dff06f          	j	1ae1c <__smakebuf_r+0x9c>
   1aed4:	00e41583          	lh	a1,14(s0)
   1aed8:	00048513          	mv	a0,s1
   1aedc:	2dc000ef          	jal	ra,1b1b8 <_isatty_r>
   1aee0:	00051663          	bnez	a0,1aeec <__smakebuf_r+0x16c>
   1aee4:	00c41783          	lh	a5,12(s0)
   1aee8:	f61ff06f          	j	1ae48 <__smakebuf_r+0xc8>
   1aeec:	00c45783          	lhu	a5,12(s0)
   1aef0:	ffc7f793          	andi	a5,a5,-4
   1aef4:	0017e793          	ori	a5,a5,1
   1aef8:	01079793          	slli	a5,a5,0x10
   1aefc:	4107d793          	srai	a5,a5,0x10
   1af00:	f49ff06f          	j	1ae48 <__smakebuf_r+0xc8>

0001af04 <__swhatbuf_r>:
   1af04:	f9010113          	addi	sp,sp,-112
   1af08:	06812423          	sw	s0,104(sp)
   1af0c:	00058413          	mv	s0,a1
   1af10:	00e59583          	lh	a1,14(a1)
   1af14:	06912223          	sw	s1,100(sp)
   1af18:	07212023          	sw	s2,96(sp)
   1af1c:	06112623          	sw	ra,108(sp)
   1af20:	00060493          	mv	s1,a2
   1af24:	00068913          	mv	s2,a3
   1af28:	0405ca63          	bltz	a1,1af7c <__swhatbuf_r+0x78>
   1af2c:	00810613          	addi	a2,sp,8
   1af30:	230000ef          	jal	ra,1b160 <_fstat_r>
   1af34:	04054463          	bltz	a0,1af7c <__swhatbuf_r+0x78>
   1af38:	00c12703          	lw	a4,12(sp)
   1af3c:	0000f7b7          	lui	a5,0xf
   1af40:	06c12083          	lw	ra,108(sp)
   1af44:	00e7f7b3          	and	a5,a5,a4
   1af48:	ffffe737          	lui	a4,0xffffe
   1af4c:	00e787b3          	add	a5,a5,a4
   1af50:	06812403          	lw	s0,104(sp)
   1af54:	0017b793          	seqz	a5,a5
   1af58:	00f92023          	sw	a5,0(s2) # f000 <exit-0x1094>
   1af5c:	40000713          	li	a4,1024
   1af60:	00e4a023          	sw	a4,0(s1)
   1af64:	00001537          	lui	a0,0x1
   1af68:	06412483          	lw	s1,100(sp)
   1af6c:	06012903          	lw	s2,96(sp)
   1af70:	80050513          	addi	a0,a0,-2048 # 800 <exit-0xf894>
   1af74:	07010113          	addi	sp,sp,112
   1af78:	00008067          	ret
   1af7c:	00c45783          	lhu	a5,12(s0)
   1af80:	0807f793          	andi	a5,a5,128
   1af84:	02078863          	beqz	a5,1afb4 <__swhatbuf_r+0xb0>
   1af88:	06c12083          	lw	ra,108(sp)
   1af8c:	06812403          	lw	s0,104(sp)
   1af90:	00000793          	li	a5,0
   1af94:	00f92023          	sw	a5,0(s2)
   1af98:	04000713          	li	a4,64
   1af9c:	00e4a023          	sw	a4,0(s1)
   1afa0:	06012903          	lw	s2,96(sp)
   1afa4:	06412483          	lw	s1,100(sp)
   1afa8:	00000513          	li	a0,0
   1afac:	07010113          	addi	sp,sp,112
   1afb0:	00008067          	ret
   1afb4:	06c12083          	lw	ra,108(sp)
   1afb8:	06812403          	lw	s0,104(sp)
   1afbc:	00f92023          	sw	a5,0(s2)
   1afc0:	40000713          	li	a4,1024
   1afc4:	00e4a023          	sw	a4,0(s1)
   1afc8:	06012903          	lw	s2,96(sp)
   1afcc:	06412483          	lw	s1,100(sp)
   1afd0:	00000513          	li	a0,0
   1afd4:	07010113          	addi	sp,sp,112
   1afd8:	00008067          	ret

0001afdc <__swbuf_r>:
   1afdc:	fe010113          	addi	sp,sp,-32
   1afe0:	00812c23          	sw	s0,24(sp)
   1afe4:	00912a23          	sw	s1,20(sp)
   1afe8:	01212823          	sw	s2,16(sp)
   1afec:	00112e23          	sw	ra,28(sp)
   1aff0:	01312623          	sw	s3,12(sp)
   1aff4:	00050913          	mv	s2,a0
   1aff8:	00058493          	mv	s1,a1
   1affc:	00060413          	mv	s0,a2
   1b000:	00050663          	beqz	a0,1b00c <__swbuf_r+0x30>
   1b004:	03452783          	lw	a5,52(a0)
   1b008:	14078063          	beqz	a5,1b148 <__swbuf_r+0x16c>
   1b00c:	01842783          	lw	a5,24(s0)
   1b010:	00c41703          	lh	a4,12(s0)
   1b014:	00f42423          	sw	a5,8(s0)
   1b018:	00877793          	andi	a5,a4,8
   1b01c:	08078263          	beqz	a5,1b0a0 <__swbuf_r+0xc4>
   1b020:	01042783          	lw	a5,16(s0)
   1b024:	06078e63          	beqz	a5,1b0a0 <__swbuf_r+0xc4>
   1b028:	01271693          	slli	a3,a4,0x12
   1b02c:	0ff4f993          	zext.b	s3,s1
   1b030:	0ff4f493          	zext.b	s1,s1
   1b034:	0806da63          	bgez	a3,1b0c8 <__swbuf_r+0xec>
   1b038:	00042703          	lw	a4,0(s0)
   1b03c:	01442683          	lw	a3,20(s0)
   1b040:	40f707b3          	sub	a5,a4,a5
   1b044:	0ad7da63          	bge	a5,a3,1b0f8 <__swbuf_r+0x11c>
   1b048:	00842683          	lw	a3,8(s0)
   1b04c:	00170613          	addi	a2,a4,1 # ffffe001 <__BSS_END__+0xfffda4fd>
   1b050:	00c42023          	sw	a2,0(s0)
   1b054:	fff68693          	addi	a3,a3,-1
   1b058:	00d42423          	sw	a3,8(s0)
   1b05c:	01370023          	sb	s3,0(a4)
   1b060:	01442703          	lw	a4,20(s0)
   1b064:	00178793          	addi	a5,a5,1 # f001 <exit-0x1093>
   1b068:	0cf70463          	beq	a4,a5,1b130 <__swbuf_r+0x154>
   1b06c:	00c45783          	lhu	a5,12(s0)
   1b070:	0017f793          	andi	a5,a5,1
   1b074:	00078663          	beqz	a5,1b080 <__swbuf_r+0xa4>
   1b078:	00a00793          	li	a5,10
   1b07c:	0af48a63          	beq	s1,a5,1b130 <__swbuf_r+0x154>
   1b080:	01c12083          	lw	ra,28(sp)
   1b084:	01812403          	lw	s0,24(sp)
   1b088:	01012903          	lw	s2,16(sp)
   1b08c:	00c12983          	lw	s3,12(sp)
   1b090:	00048513          	mv	a0,s1
   1b094:	01412483          	lw	s1,20(sp)
   1b098:	02010113          	addi	sp,sp,32
   1b09c:	00008067          	ret
   1b0a0:	00040593          	mv	a1,s0
   1b0a4:	00090513          	mv	a0,s2
   1b0a8:	bfcfb0ef          	jal	ra,164a4 <__swsetup_r>
   1b0ac:	08051a63          	bnez	a0,1b140 <__swbuf_r+0x164>
   1b0b0:	00c41703          	lh	a4,12(s0)
   1b0b4:	0ff4f993          	zext.b	s3,s1
   1b0b8:	01042783          	lw	a5,16(s0)
   1b0bc:	01271693          	slli	a3,a4,0x12
   1b0c0:	0ff4f493          	zext.b	s1,s1
   1b0c4:	f606cae3          	bltz	a3,1b038 <__swbuf_r+0x5c>
   1b0c8:	06442683          	lw	a3,100(s0)
   1b0cc:	00002637          	lui	a2,0x2
   1b0d0:	00c76733          	or	a4,a4,a2
   1b0d4:	ffffe637          	lui	a2,0xffffe
   1b0d8:	fff60613          	addi	a2,a2,-1 # ffffdfff <__BSS_END__+0xfffda4fb>
   1b0dc:	00c6f6b3          	and	a3,a3,a2
   1b0e0:	00e41623          	sh	a4,12(s0)
   1b0e4:	00042703          	lw	a4,0(s0)
   1b0e8:	06d42223          	sw	a3,100(s0)
   1b0ec:	01442683          	lw	a3,20(s0)
   1b0f0:	40f707b3          	sub	a5,a4,a5
   1b0f4:	f4d7cae3          	blt	a5,a3,1b048 <__swbuf_r+0x6c>
   1b0f8:	00040593          	mv	a1,s0
   1b0fc:	00090513          	mv	a0,s2
   1b100:	e21fa0ef          	jal	ra,15f20 <_fflush_r>
   1b104:	02051e63          	bnez	a0,1b140 <__swbuf_r+0x164>
   1b108:	00042703          	lw	a4,0(s0)
   1b10c:	00842683          	lw	a3,8(s0)
   1b110:	00100793          	li	a5,1
   1b114:	00170613          	addi	a2,a4,1
   1b118:	fff68693          	addi	a3,a3,-1
   1b11c:	00c42023          	sw	a2,0(s0)
   1b120:	00d42423          	sw	a3,8(s0)
   1b124:	01370023          	sb	s3,0(a4)
   1b128:	01442703          	lw	a4,20(s0)
   1b12c:	f4f710e3          	bne	a4,a5,1b06c <__swbuf_r+0x90>
   1b130:	00040593          	mv	a1,s0
   1b134:	00090513          	mv	a0,s2
   1b138:	de9fa0ef          	jal	ra,15f20 <_fflush_r>
   1b13c:	f40502e3          	beqz	a0,1b080 <__swbuf_r+0xa4>
   1b140:	fff00493          	li	s1,-1
   1b144:	f3dff06f          	j	1b080 <__swbuf_r+0xa4>
   1b148:	cf0f50ef          	jal	ra,10638 <__sinit>
   1b14c:	ec1ff06f          	j	1b00c <__swbuf_r+0x30>

0001b150 <__swbuf>:
   1b150:	00058613          	mv	a2,a1
   1b154:	00050593          	mv	a1,a0
   1b158:	f0c1a503          	lw	a0,-244(gp) # 237cc <_impure_ptr>
   1b15c:	e81ff06f          	j	1afdc <__swbuf_r>

0001b160 <_fstat_r>:
   1b160:	ff010113          	addi	sp,sp,-16
   1b164:	00058713          	mv	a4,a1
   1b168:	00812423          	sw	s0,8(sp)
   1b16c:	00060593          	mv	a1,a2
   1b170:	00050413          	mv	s0,a0
   1b174:	00070513          	mv	a0,a4
   1b178:	f001ae23          	sw	zero,-228(gp) # 237dc <errno>
   1b17c:	00112623          	sw	ra,12(sp)
   1b180:	139000ef          	jal	ra,1bab8 <_fstat>
   1b184:	fff00793          	li	a5,-1
   1b188:	00f50a63          	beq	a0,a5,1b19c <_fstat_r+0x3c>
   1b18c:	00c12083          	lw	ra,12(sp)
   1b190:	00812403          	lw	s0,8(sp)
   1b194:	01010113          	addi	sp,sp,16
   1b198:	00008067          	ret
   1b19c:	f1c1a783          	lw	a5,-228(gp) # 237dc <errno>
   1b1a0:	fe0786e3          	beqz	a5,1b18c <_fstat_r+0x2c>
   1b1a4:	00c12083          	lw	ra,12(sp)
   1b1a8:	00f42023          	sw	a5,0(s0)
   1b1ac:	00812403          	lw	s0,8(sp)
   1b1b0:	01010113          	addi	sp,sp,16
   1b1b4:	00008067          	ret

0001b1b8 <_isatty_r>:
   1b1b8:	ff010113          	addi	sp,sp,-16
   1b1bc:	00812423          	sw	s0,8(sp)
   1b1c0:	00050413          	mv	s0,a0
   1b1c4:	00058513          	mv	a0,a1
   1b1c8:	f001ae23          	sw	zero,-228(gp) # 237dc <errno>
   1b1cc:	00112623          	sw	ra,12(sp)
   1b1d0:	151000ef          	jal	ra,1bb20 <_isatty>
   1b1d4:	fff00793          	li	a5,-1
   1b1d8:	00f50a63          	beq	a0,a5,1b1ec <_isatty_r+0x34>
   1b1dc:	00c12083          	lw	ra,12(sp)
   1b1e0:	00812403          	lw	s0,8(sp)
   1b1e4:	01010113          	addi	sp,sp,16
   1b1e8:	00008067          	ret
   1b1ec:	f1c1a783          	lw	a5,-228(gp) # 237dc <errno>
   1b1f0:	fe0786e3          	beqz	a5,1b1dc <_isatty_r+0x24>
   1b1f4:	00c12083          	lw	ra,12(sp)
   1b1f8:	00f42023          	sw	a5,0(s0)
   1b1fc:	00812403          	lw	s0,8(sp)
   1b200:	01010113          	addi	sp,sp,16
   1b204:	00008067          	ret

0001b208 <__assert_func>:
   1b208:	ff010113          	addi	sp,sp,-16
   1b20c:	00068793          	mv	a5,a3
   1b210:	f0c1a703          	lw	a4,-244(gp) # 237cc <_impure_ptr>
   1b214:	00060813          	mv	a6,a2
   1b218:	00112623          	sw	ra,12(sp)
   1b21c:	00c72883          	lw	a7,12(a4)
   1b220:	00078613          	mv	a2,a5
   1b224:	00050693          	mv	a3,a0
   1b228:	00058713          	mv	a4,a1
   1b22c:	00007797          	auipc	a5,0x7
   1b230:	37078793          	addi	a5,a5,880 # 2259c <_ctype_+0x104>
   1b234:	00080c63          	beqz	a6,1b24c <__assert_func+0x44>
   1b238:	00007597          	auipc	a1,0x7
   1b23c:	37458593          	addi	a1,a1,884 # 225ac <_ctype_+0x114>
   1b240:	00088513          	mv	a0,a7
   1b244:	220000ef          	jal	ra,1b464 <fiprintf>
   1b248:	26c000ef          	jal	ra,1b4b4 <abort>
   1b24c:	00007797          	auipc	a5,0x7
   1b250:	35c78793          	addi	a5,a5,860 # 225a8 <_ctype_+0x110>
   1b254:	00078813          	mv	a6,a5
   1b258:	fe1ff06f          	j	1b238 <__assert_func+0x30>

0001b25c <__assert>:
   1b25c:	ff010113          	addi	sp,sp,-16
   1b260:	00060693          	mv	a3,a2
   1b264:	00000613          	li	a2,0
   1b268:	00112623          	sw	ra,12(sp)
   1b26c:	f9dff0ef          	jal	ra,1b208 <__assert_func>

0001b270 <_calloc_r>:
   1b270:	fe010113          	addi	sp,sp,-32
   1b274:	00812c23          	sw	s0,24(sp)
   1b278:	00112e23          	sw	ra,28(sp)
   1b27c:	00912a23          	sw	s1,20(sp)
   1b280:	01212823          	sw	s2,16(sp)
   1b284:	01312623          	sw	s3,12(sp)
   1b288:	0105d693          	srli	a3,a1,0x10
   1b28c:	00058793          	mv	a5,a1
   1b290:	00050413          	mv	s0,a0
   1b294:	01065713          	srli	a4,a2,0x10
   1b298:	0c069c63          	bnez	a3,1b370 <_calloc_r+0x100>
   1b29c:	16071063          	bnez	a4,1b3fc <_calloc_r+0x18c>
   1b2a0:	01061593          	slli	a1,a2,0x10
   1b2a4:	01079513          	slli	a0,a5,0x10
   1b2a8:	0105d593          	srli	a1,a1,0x10
   1b2ac:	01055513          	srli	a0,a0,0x10
   1b2b0:	191060ef          	jal	ra,21c40 <__mulsi3>
   1b2b4:	00050593          	mv	a1,a0
   1b2b8:	00040513          	mv	a0,s0
   1b2bc:	938f60ef          	jal	ra,113f4 <_malloc_r>
   1b2c0:	00050413          	mv	s0,a0
   1b2c4:	10050a63          	beqz	a0,1b3d8 <_calloc_r+0x168>
   1b2c8:	ffc52603          	lw	a2,-4(a0)
   1b2cc:	02400713          	li	a4,36
   1b2d0:	ffc67613          	andi	a2,a2,-4
   1b2d4:	ffc60613          	addi	a2,a2,-4
   1b2d8:	04c76e63          	bltu	a4,a2,1b334 <_calloc_r+0xc4>
   1b2dc:	01300693          	li	a3,19
   1b2e0:	00050793          	mv	a5,a0
   1b2e4:	02c6f263          	bgeu	a3,a2,1b308 <_calloc_r+0x98>
   1b2e8:	00052023          	sw	zero,0(a0)
   1b2ec:	00052223          	sw	zero,4(a0)
   1b2f0:	01b00793          	li	a5,27
   1b2f4:	06c7f463          	bgeu	a5,a2,1b35c <_calloc_r+0xec>
   1b2f8:	00052423          	sw	zero,8(a0)
   1b2fc:	00052623          	sw	zero,12(a0)
   1b300:	01050793          	addi	a5,a0,16
   1b304:	10e60263          	beq	a2,a4,1b408 <_calloc_r+0x198>
   1b308:	0007a023          	sw	zero,0(a5)
   1b30c:	0007a223          	sw	zero,4(a5)
   1b310:	0007a423          	sw	zero,8(a5)
   1b314:	01c12083          	lw	ra,28(sp)
   1b318:	00040513          	mv	a0,s0
   1b31c:	01812403          	lw	s0,24(sp)
   1b320:	01412483          	lw	s1,20(sp)
   1b324:	01012903          	lw	s2,16(sp)
   1b328:	00c12983          	lw	s3,12(sp)
   1b32c:	02010113          	addi	sp,sp,32
   1b330:	00008067          	ret
   1b334:	00000593          	li	a1,0
   1b338:	8d1f50ef          	jal	ra,10c08 <memset>
   1b33c:	01c12083          	lw	ra,28(sp)
   1b340:	00040513          	mv	a0,s0
   1b344:	01812403          	lw	s0,24(sp)
   1b348:	01412483          	lw	s1,20(sp)
   1b34c:	01012903          	lw	s2,16(sp)
   1b350:	00c12983          	lw	s3,12(sp)
   1b354:	02010113          	addi	sp,sp,32
   1b358:	00008067          	ret
   1b35c:	00850793          	addi	a5,a0,8
   1b360:	0007a023          	sw	zero,0(a5)
   1b364:	0007a223          	sw	zero,4(a5)
   1b368:	0007a423          	sw	zero,8(a5)
   1b36c:	fa9ff06f          	j	1b314 <_calloc_r+0xa4>
   1b370:	0a071463          	bnez	a4,1b418 <_calloc_r+0x1a8>
   1b374:	00068913          	mv	s2,a3
   1b378:	00060993          	mv	s3,a2
   1b37c:	01079513          	slli	a0,a5,0x10
   1b380:	01061593          	slli	a1,a2,0x10
   1b384:	0105d593          	srli	a1,a1,0x10
   1b388:	01055513          	srli	a0,a0,0x10
   1b38c:	0b5060ef          	jal	ra,21c40 <__mulsi3>
   1b390:	00050493          	mv	s1,a0
   1b394:	01091593          	slli	a1,s2,0x10
   1b398:	01099513          	slli	a0,s3,0x10
   1b39c:	0105d593          	srli	a1,a1,0x10
   1b3a0:	01055513          	srli	a0,a0,0x10
   1b3a4:	09d060ef          	jal	ra,21c40 <__mulsi3>
   1b3a8:	0104d793          	srli	a5,s1,0x10
   1b3ac:	00f505b3          	add	a1,a0,a5
   1b3b0:	0105d793          	srli	a5,a1,0x10
   1b3b4:	06079263          	bnez	a5,1b418 <_calloc_r+0x1a8>
   1b3b8:	01049493          	slli	s1,s1,0x10
   1b3bc:	01059593          	slli	a1,a1,0x10
   1b3c0:	0104d493          	srli	s1,s1,0x10
   1b3c4:	00040513          	mv	a0,s0
   1b3c8:	0095e5b3          	or	a1,a1,s1
   1b3cc:	828f60ef          	jal	ra,113f4 <_malloc_r>
   1b3d0:	00050413          	mv	s0,a0
   1b3d4:	ee051ae3          	bnez	a0,1b2c8 <_calloc_r+0x58>
   1b3d8:	00000413          	li	s0,0
   1b3dc:	01c12083          	lw	ra,28(sp)
   1b3e0:	00040513          	mv	a0,s0
   1b3e4:	01812403          	lw	s0,24(sp)
   1b3e8:	01412483          	lw	s1,20(sp)
   1b3ec:	01012903          	lw	s2,16(sp)
   1b3f0:	00c12983          	lw	s3,12(sp)
   1b3f4:	02010113          	addi	sp,sp,32
   1b3f8:	00008067          	ret
   1b3fc:	00070913          	mv	s2,a4
   1b400:	00058993          	mv	s3,a1
   1b404:	f79ff06f          	j	1b37c <_calloc_r+0x10c>
   1b408:	00052823          	sw	zero,16(a0)
   1b40c:	01850793          	addi	a5,a0,24
   1b410:	00052a23          	sw	zero,20(a0)
   1b414:	ef5ff06f          	j	1b308 <_calloc_r+0x98>
   1b418:	094000ef          	jal	ra,1b4ac <__errno>
   1b41c:	00c00793          	li	a5,12
   1b420:	00f52023          	sw	a5,0(a0)
   1b424:	00000413          	li	s0,0
   1b428:	fb5ff06f          	j	1b3dc <_calloc_r+0x16c>

0001b42c <_fiprintf_r>:
   1b42c:	fc010113          	addi	sp,sp,-64
   1b430:	02c10313          	addi	t1,sp,44
   1b434:	02d12623          	sw	a3,44(sp)
   1b438:	00030693          	mv	a3,t1
   1b43c:	00112e23          	sw	ra,28(sp)
   1b440:	02e12823          	sw	a4,48(sp)
   1b444:	02f12a23          	sw	a5,52(sp)
   1b448:	03012c23          	sw	a6,56(sp)
   1b44c:	03112e23          	sw	a7,60(sp)
   1b450:	00612623          	sw	t1,12(sp)
   1b454:	ac0f90ef          	jal	ra,14714 <_vfiprintf_r>
   1b458:	01c12083          	lw	ra,28(sp)
   1b45c:	04010113          	addi	sp,sp,64
   1b460:	00008067          	ret

0001b464 <fiprintf>:
   1b464:	fc010113          	addi	sp,sp,-64
   1b468:	02810313          	addi	t1,sp,40
   1b46c:	02c12423          	sw	a2,40(sp)
   1b470:	02d12623          	sw	a3,44(sp)
   1b474:	00058613          	mv	a2,a1
   1b478:	00030693          	mv	a3,t1
   1b47c:	00050593          	mv	a1,a0
   1b480:	f0c1a503          	lw	a0,-244(gp) # 237cc <_impure_ptr>
   1b484:	00112e23          	sw	ra,28(sp)
   1b488:	02e12823          	sw	a4,48(sp)
   1b48c:	02f12a23          	sw	a5,52(sp)
   1b490:	03012c23          	sw	a6,56(sp)
   1b494:	03112e23          	sw	a7,60(sp)
   1b498:	00612623          	sw	t1,12(sp)
   1b49c:	a78f90ef          	jal	ra,14714 <_vfiprintf_r>
   1b4a0:	01c12083          	lw	ra,28(sp)
   1b4a4:	04010113          	addi	sp,sp,64
   1b4a8:	00008067          	ret

0001b4ac <__errno>:
   1b4ac:	f0c1a503          	lw	a0,-244(gp) # 237cc <_impure_ptr>
   1b4b0:	00008067          	ret

0001b4b4 <abort>:
   1b4b4:	ff010113          	addi	sp,sp,-16
   1b4b8:	00600513          	li	a0,6
   1b4bc:	00112623          	sw	ra,12(sp)
   1b4c0:	29c000ef          	jal	ra,1b75c <raise>
   1b4c4:	00100513          	li	a0,1
   1b4c8:	5c0000ef          	jal	ra,1ba88 <_exit>

0001b4cc <_init_signal_r>:
   1b4cc:	11852783          	lw	a5,280(a0)
   1b4d0:	00078663          	beqz	a5,1b4dc <_init_signal_r+0x10>
   1b4d4:	00000513          	li	a0,0
   1b4d8:	00008067          	ret
   1b4dc:	ff010113          	addi	sp,sp,-16
   1b4e0:	08000593          	li	a1,128
   1b4e4:	00812423          	sw	s0,8(sp)
   1b4e8:	00112623          	sw	ra,12(sp)
   1b4ec:	00050413          	mv	s0,a0
   1b4f0:	f05f50ef          	jal	ra,113f4 <_malloc_r>
   1b4f4:	10a42c23          	sw	a0,280(s0)
   1b4f8:	02050463          	beqz	a0,1b520 <_init_signal_r+0x54>
   1b4fc:	08050793          	addi	a5,a0,128
   1b500:	00052023          	sw	zero,0(a0)
   1b504:	00450513          	addi	a0,a0,4
   1b508:	fef51ce3          	bne	a0,a5,1b500 <_init_signal_r+0x34>
   1b50c:	00000513          	li	a0,0
   1b510:	00c12083          	lw	ra,12(sp)
   1b514:	00812403          	lw	s0,8(sp)
   1b518:	01010113          	addi	sp,sp,16
   1b51c:	00008067          	ret
   1b520:	fff00513          	li	a0,-1
   1b524:	fedff06f          	j	1b510 <_init_signal_r+0x44>

0001b528 <_signal_r>:
   1b528:	fe010113          	addi	sp,sp,-32
   1b52c:	00912a23          	sw	s1,20(sp)
   1b530:	00112e23          	sw	ra,28(sp)
   1b534:	00812c23          	sw	s0,24(sp)
   1b538:	01f00793          	li	a5,31
   1b53c:	00050493          	mv	s1,a0
   1b540:	02b7ea63          	bltu	a5,a1,1b574 <_signal_r+0x4c>
   1b544:	11852783          	lw	a5,280(a0)
   1b548:	00058413          	mv	s0,a1
   1b54c:	02078c63          	beqz	a5,1b584 <_signal_r+0x5c>
   1b550:	00241413          	slli	s0,s0,0x2
   1b554:	008787b3          	add	a5,a5,s0
   1b558:	0007a503          	lw	a0,0(a5)
   1b55c:	00c7a023          	sw	a2,0(a5)
   1b560:	01c12083          	lw	ra,28(sp)
   1b564:	01812403          	lw	s0,24(sp)
   1b568:	01412483          	lw	s1,20(sp)
   1b56c:	02010113          	addi	sp,sp,32
   1b570:	00008067          	ret
   1b574:	01600793          	li	a5,22
   1b578:	00f52023          	sw	a5,0(a0)
   1b57c:	fff00513          	li	a0,-1
   1b580:	fe1ff06f          	j	1b560 <_signal_r+0x38>
   1b584:	08000593          	li	a1,128
   1b588:	00c12623          	sw	a2,12(sp)
   1b58c:	e69f50ef          	jal	ra,113f4 <_malloc_r>
   1b590:	10a4ac23          	sw	a0,280(s1)
   1b594:	00c12603          	lw	a2,12(sp)
   1b598:	00050793          	mv	a5,a0
   1b59c:	00050713          	mv	a4,a0
   1b5a0:	08050693          	addi	a3,a0,128
   1b5a4:	fc050ce3          	beqz	a0,1b57c <_signal_r+0x54>
   1b5a8:	00072023          	sw	zero,0(a4)
   1b5ac:	00470713          	addi	a4,a4,4
   1b5b0:	fed71ce3          	bne	a4,a3,1b5a8 <_signal_r+0x80>
   1b5b4:	f9dff06f          	j	1b550 <_signal_r+0x28>

0001b5b8 <_raise_r>:
   1b5b8:	ff010113          	addi	sp,sp,-16
   1b5bc:	00912223          	sw	s1,4(sp)
   1b5c0:	00112623          	sw	ra,12(sp)
   1b5c4:	00812423          	sw	s0,8(sp)
   1b5c8:	01f00793          	li	a5,31
   1b5cc:	00050493          	mv	s1,a0
   1b5d0:	08b7ee63          	bltu	a5,a1,1b66c <_raise_r+0xb4>
   1b5d4:	11852783          	lw	a5,280(a0)
   1b5d8:	00058413          	mv	s0,a1
   1b5dc:	04078463          	beqz	a5,1b624 <_raise_r+0x6c>
   1b5e0:	00259713          	slli	a4,a1,0x2
   1b5e4:	00e787b3          	add	a5,a5,a4
   1b5e8:	0007a703          	lw	a4,0(a5)
   1b5ec:	02070c63          	beqz	a4,1b624 <_raise_r+0x6c>
   1b5f0:	00100693          	li	a3,1
   1b5f4:	00d70c63          	beq	a4,a3,1b60c <_raise_r+0x54>
   1b5f8:	fff00693          	li	a3,-1
   1b5fc:	04d70863          	beq	a4,a3,1b64c <_raise_r+0x94>
   1b600:	0007a023          	sw	zero,0(a5)
   1b604:	00058513          	mv	a0,a1
   1b608:	000700e7          	jalr	a4
   1b60c:	00000513          	li	a0,0
   1b610:	00c12083          	lw	ra,12(sp)
   1b614:	00812403          	lw	s0,8(sp)
   1b618:	00412483          	lw	s1,4(sp)
   1b61c:	01010113          	addi	sp,sp,16
   1b620:	00008067          	ret
   1b624:	00048513          	mv	a0,s1
   1b628:	418000ef          	jal	ra,1ba40 <_getpid_r>
   1b62c:	00040613          	mv	a2,s0
   1b630:	00812403          	lw	s0,8(sp)
   1b634:	00c12083          	lw	ra,12(sp)
   1b638:	00050593          	mv	a1,a0
   1b63c:	00048513          	mv	a0,s1
   1b640:	00412483          	lw	s1,4(sp)
   1b644:	01010113          	addi	sp,sp,16
   1b648:	3a00006f          	j	1b9e8 <_kill_r>
   1b64c:	00c12083          	lw	ra,12(sp)
   1b650:	00812403          	lw	s0,8(sp)
   1b654:	01600793          	li	a5,22
   1b658:	00f52023          	sw	a5,0(a0)
   1b65c:	00412483          	lw	s1,4(sp)
   1b660:	00100513          	li	a0,1
   1b664:	01010113          	addi	sp,sp,16
   1b668:	00008067          	ret
   1b66c:	01600793          	li	a5,22
   1b670:	00f52023          	sw	a5,0(a0)
   1b674:	fff00513          	li	a0,-1
   1b678:	f99ff06f          	j	1b610 <_raise_r+0x58>

0001b67c <__sigtramp_r>:
   1b67c:	01f00793          	li	a5,31
   1b680:	0cb7ea63          	bltu	a5,a1,1b754 <__sigtramp_r+0xd8>
   1b684:	11852783          	lw	a5,280(a0)
   1b688:	ff010113          	addi	sp,sp,-16
   1b68c:	00812423          	sw	s0,8(sp)
   1b690:	00912223          	sw	s1,4(sp)
   1b694:	00112623          	sw	ra,12(sp)
   1b698:	00058413          	mv	s0,a1
   1b69c:	00050493          	mv	s1,a0
   1b6a0:	08078063          	beqz	a5,1b720 <__sigtramp_r+0xa4>
   1b6a4:	00241713          	slli	a4,s0,0x2
   1b6a8:	00e787b3          	add	a5,a5,a4
   1b6ac:	0007a703          	lw	a4,0(a5)
   1b6b0:	02070c63          	beqz	a4,1b6e8 <__sigtramp_r+0x6c>
   1b6b4:	fff00693          	li	a3,-1
   1b6b8:	06d70063          	beq	a4,a3,1b718 <__sigtramp_r+0x9c>
   1b6bc:	00100693          	li	a3,1
   1b6c0:	04d70063          	beq	a4,a3,1b700 <__sigtramp_r+0x84>
   1b6c4:	00040513          	mv	a0,s0
   1b6c8:	0007a023          	sw	zero,0(a5)
   1b6cc:	000700e7          	jalr	a4
   1b6d0:	00000513          	li	a0,0
   1b6d4:	00c12083          	lw	ra,12(sp)
   1b6d8:	00812403          	lw	s0,8(sp)
   1b6dc:	00412483          	lw	s1,4(sp)
   1b6e0:	01010113          	addi	sp,sp,16
   1b6e4:	00008067          	ret
   1b6e8:	00c12083          	lw	ra,12(sp)
   1b6ec:	00812403          	lw	s0,8(sp)
   1b6f0:	00412483          	lw	s1,4(sp)
   1b6f4:	00100513          	li	a0,1
   1b6f8:	01010113          	addi	sp,sp,16
   1b6fc:	00008067          	ret
   1b700:	00c12083          	lw	ra,12(sp)
   1b704:	00812403          	lw	s0,8(sp)
   1b708:	00412483          	lw	s1,4(sp)
   1b70c:	00300513          	li	a0,3
   1b710:	01010113          	addi	sp,sp,16
   1b714:	00008067          	ret
   1b718:	00200513          	li	a0,2
   1b71c:	fb9ff06f          	j	1b6d4 <__sigtramp_r+0x58>
   1b720:	08000593          	li	a1,128
   1b724:	cd1f50ef          	jal	ra,113f4 <_malloc_r>
   1b728:	10a4ac23          	sw	a0,280(s1)
   1b72c:	00050793          	mv	a5,a0
   1b730:	00050e63          	beqz	a0,1b74c <__sigtramp_r+0xd0>
   1b734:	00050713          	mv	a4,a0
   1b738:	08050693          	addi	a3,a0,128
   1b73c:	00072023          	sw	zero,0(a4)
   1b740:	00470713          	addi	a4,a4,4
   1b744:	fee69ce3          	bne	a3,a4,1b73c <__sigtramp_r+0xc0>
   1b748:	f5dff06f          	j	1b6a4 <__sigtramp_r+0x28>
   1b74c:	fff00513          	li	a0,-1
   1b750:	f85ff06f          	j	1b6d4 <__sigtramp_r+0x58>
   1b754:	fff00513          	li	a0,-1
   1b758:	00008067          	ret

0001b75c <raise>:
   1b75c:	ff010113          	addi	sp,sp,-16
   1b760:	00912223          	sw	s1,4(sp)
   1b764:	00112623          	sw	ra,12(sp)
   1b768:	00812423          	sw	s0,8(sp)
   1b76c:	01f00793          	li	a5,31
   1b770:	f0c1a483          	lw	s1,-244(gp) # 237cc <_impure_ptr>
   1b774:	08a7ec63          	bltu	a5,a0,1b80c <raise+0xb0>
   1b778:	1184a783          	lw	a5,280(s1)
   1b77c:	00050413          	mv	s0,a0
   1b780:	04078263          	beqz	a5,1b7c4 <raise+0x68>
   1b784:	00251713          	slli	a4,a0,0x2
   1b788:	00e787b3          	add	a5,a5,a4
   1b78c:	0007a703          	lw	a4,0(a5)
   1b790:	02070a63          	beqz	a4,1b7c4 <raise+0x68>
   1b794:	00100693          	li	a3,1
   1b798:	00d70a63          	beq	a4,a3,1b7ac <raise+0x50>
   1b79c:	fff00693          	li	a3,-1
   1b7a0:	04d70663          	beq	a4,a3,1b7ec <raise+0x90>
   1b7a4:	0007a023          	sw	zero,0(a5)
   1b7a8:	000700e7          	jalr	a4
   1b7ac:	00000513          	li	a0,0
   1b7b0:	00c12083          	lw	ra,12(sp)
   1b7b4:	00812403          	lw	s0,8(sp)
   1b7b8:	00412483          	lw	s1,4(sp)
   1b7bc:	01010113          	addi	sp,sp,16
   1b7c0:	00008067          	ret
   1b7c4:	00048513          	mv	a0,s1
   1b7c8:	278000ef          	jal	ra,1ba40 <_getpid_r>
   1b7cc:	00040613          	mv	a2,s0
   1b7d0:	00812403          	lw	s0,8(sp)
   1b7d4:	00c12083          	lw	ra,12(sp)
   1b7d8:	00050593          	mv	a1,a0
   1b7dc:	00048513          	mv	a0,s1
   1b7e0:	00412483          	lw	s1,4(sp)
   1b7e4:	01010113          	addi	sp,sp,16
   1b7e8:	2000006f          	j	1b9e8 <_kill_r>
   1b7ec:	00c12083          	lw	ra,12(sp)
   1b7f0:	00812403          	lw	s0,8(sp)
   1b7f4:	01600793          	li	a5,22
   1b7f8:	00f4a023          	sw	a5,0(s1)
   1b7fc:	00100513          	li	a0,1
   1b800:	00412483          	lw	s1,4(sp)
   1b804:	01010113          	addi	sp,sp,16
   1b808:	00008067          	ret
   1b80c:	01600793          	li	a5,22
   1b810:	00f4a023          	sw	a5,0(s1)
   1b814:	fff00513          	li	a0,-1
   1b818:	f99ff06f          	j	1b7b0 <raise+0x54>

0001b81c <signal>:
   1b81c:	ff010113          	addi	sp,sp,-16
   1b820:	01212023          	sw	s2,0(sp)
   1b824:	00112623          	sw	ra,12(sp)
   1b828:	00812423          	sw	s0,8(sp)
   1b82c:	00912223          	sw	s1,4(sp)
   1b830:	01f00793          	li	a5,31
   1b834:	f0c1a903          	lw	s2,-244(gp) # 237cc <_impure_ptr>
   1b838:	02a7ee63          	bltu	a5,a0,1b874 <signal+0x58>
   1b83c:	00050413          	mv	s0,a0
   1b840:	11892503          	lw	a0,280(s2)
   1b844:	00058493          	mv	s1,a1
   1b848:	02050e63          	beqz	a0,1b884 <signal+0x68>
   1b84c:	00241413          	slli	s0,s0,0x2
   1b850:	008507b3          	add	a5,a0,s0
   1b854:	0007a503          	lw	a0,0(a5)
   1b858:	0097a023          	sw	s1,0(a5)
   1b85c:	00c12083          	lw	ra,12(sp)
   1b860:	00812403          	lw	s0,8(sp)
   1b864:	00412483          	lw	s1,4(sp)
   1b868:	00012903          	lw	s2,0(sp)
   1b86c:	01010113          	addi	sp,sp,16
   1b870:	00008067          	ret
   1b874:	01600793          	li	a5,22
   1b878:	00f92023          	sw	a5,0(s2)
   1b87c:	fff00513          	li	a0,-1
   1b880:	fddff06f          	j	1b85c <signal+0x40>
   1b884:	08000593          	li	a1,128
   1b888:	00090513          	mv	a0,s2
   1b88c:	b69f50ef          	jal	ra,113f4 <_malloc_r>
   1b890:	10a92c23          	sw	a0,280(s2)
   1b894:	00050793          	mv	a5,a0
   1b898:	08050713          	addi	a4,a0,128
   1b89c:	fe0500e3          	beqz	a0,1b87c <signal+0x60>
   1b8a0:	0007a023          	sw	zero,0(a5)
   1b8a4:	00478793          	addi	a5,a5,4
   1b8a8:	fee79ce3          	bne	a5,a4,1b8a0 <signal+0x84>
   1b8ac:	fa1ff06f          	j	1b84c <signal+0x30>

0001b8b0 <_init_signal>:
   1b8b0:	ff010113          	addi	sp,sp,-16
   1b8b4:	00812423          	sw	s0,8(sp)
   1b8b8:	f0c1a403          	lw	s0,-244(gp) # 237cc <_impure_ptr>
   1b8bc:	11842783          	lw	a5,280(s0)
   1b8c0:	00112623          	sw	ra,12(sp)
   1b8c4:	00078c63          	beqz	a5,1b8dc <_init_signal+0x2c>
   1b8c8:	00000513          	li	a0,0
   1b8cc:	00c12083          	lw	ra,12(sp)
   1b8d0:	00812403          	lw	s0,8(sp)
   1b8d4:	01010113          	addi	sp,sp,16
   1b8d8:	00008067          	ret
   1b8dc:	08000593          	li	a1,128
   1b8e0:	00040513          	mv	a0,s0
   1b8e4:	b11f50ef          	jal	ra,113f4 <_malloc_r>
   1b8e8:	10a42c23          	sw	a0,280(s0)
   1b8ec:	00050c63          	beqz	a0,1b904 <_init_signal+0x54>
   1b8f0:	08050793          	addi	a5,a0,128
   1b8f4:	00052023          	sw	zero,0(a0)
   1b8f8:	00450513          	addi	a0,a0,4
   1b8fc:	fef51ce3          	bne	a0,a5,1b8f4 <_init_signal+0x44>
   1b900:	fc9ff06f          	j	1b8c8 <_init_signal+0x18>
   1b904:	fff00513          	li	a0,-1
   1b908:	fc5ff06f          	j	1b8cc <_init_signal+0x1c>

0001b90c <__sigtramp>:
   1b90c:	ff010113          	addi	sp,sp,-16
   1b910:	00912223          	sw	s1,4(sp)
   1b914:	00112623          	sw	ra,12(sp)
   1b918:	00812423          	sw	s0,8(sp)
   1b91c:	01f00793          	li	a5,31
   1b920:	f0c1a483          	lw	s1,-244(gp) # 237cc <_impure_ptr>
   1b924:	0aa7ee63          	bltu	a5,a0,1b9e0 <__sigtramp+0xd4>
   1b928:	1184a783          	lw	a5,280(s1)
   1b92c:	00050413          	mv	s0,a0
   1b930:	08078063          	beqz	a5,1b9b0 <__sigtramp+0xa4>
   1b934:	00241713          	slli	a4,s0,0x2
   1b938:	00e787b3          	add	a5,a5,a4
   1b93c:	0007a703          	lw	a4,0(a5)
   1b940:	02070c63          	beqz	a4,1b978 <__sigtramp+0x6c>
   1b944:	fff00693          	li	a3,-1
   1b948:	06d70063          	beq	a4,a3,1b9a8 <__sigtramp+0x9c>
   1b94c:	00100693          	li	a3,1
   1b950:	04d70063          	beq	a4,a3,1b990 <__sigtramp+0x84>
   1b954:	00040513          	mv	a0,s0
   1b958:	0007a023          	sw	zero,0(a5)
   1b95c:	000700e7          	jalr	a4
   1b960:	00000513          	li	a0,0
   1b964:	00c12083          	lw	ra,12(sp)
   1b968:	00812403          	lw	s0,8(sp)
   1b96c:	00412483          	lw	s1,4(sp)
   1b970:	01010113          	addi	sp,sp,16
   1b974:	00008067          	ret
   1b978:	00c12083          	lw	ra,12(sp)
   1b97c:	00812403          	lw	s0,8(sp)
   1b980:	00412483          	lw	s1,4(sp)
   1b984:	00100513          	li	a0,1
   1b988:	01010113          	addi	sp,sp,16
   1b98c:	00008067          	ret
   1b990:	00c12083          	lw	ra,12(sp)
   1b994:	00812403          	lw	s0,8(sp)
   1b998:	00412483          	lw	s1,4(sp)
   1b99c:	00300513          	li	a0,3
   1b9a0:	01010113          	addi	sp,sp,16
   1b9a4:	00008067          	ret
   1b9a8:	00200513          	li	a0,2
   1b9ac:	fb9ff06f          	j	1b964 <__sigtramp+0x58>
   1b9b0:	08000593          	li	a1,128
   1b9b4:	00048513          	mv	a0,s1
   1b9b8:	a3df50ef          	jal	ra,113f4 <_malloc_r>
   1b9bc:	10a4ac23          	sw	a0,280(s1)
   1b9c0:	00050793          	mv	a5,a0
   1b9c4:	00050e63          	beqz	a0,1b9e0 <__sigtramp+0xd4>
   1b9c8:	00050713          	mv	a4,a0
   1b9cc:	08050693          	addi	a3,a0,128
   1b9d0:	00072023          	sw	zero,0(a4)
   1b9d4:	00470713          	addi	a4,a4,4
   1b9d8:	fee69ce3          	bne	a3,a4,1b9d0 <__sigtramp+0xc4>
   1b9dc:	f59ff06f          	j	1b934 <__sigtramp+0x28>
   1b9e0:	fff00513          	li	a0,-1
   1b9e4:	f81ff06f          	j	1b964 <__sigtramp+0x58>

0001b9e8 <_kill_r>:
   1b9e8:	ff010113          	addi	sp,sp,-16
   1b9ec:	00058713          	mv	a4,a1
   1b9f0:	00812423          	sw	s0,8(sp)
   1b9f4:	00060593          	mv	a1,a2
   1b9f8:	00050413          	mv	s0,a0
   1b9fc:	00070513          	mv	a0,a4
   1ba00:	f001ae23          	sw	zero,-228(gp) # 237dc <errno>
   1ba04:	00112623          	sw	ra,12(sp)
   1ba08:	158000ef          	jal	ra,1bb60 <_kill>
   1ba0c:	fff00793          	li	a5,-1
   1ba10:	00f50a63          	beq	a0,a5,1ba24 <_kill_r+0x3c>
   1ba14:	00c12083          	lw	ra,12(sp)
   1ba18:	00812403          	lw	s0,8(sp)
   1ba1c:	01010113          	addi	sp,sp,16
   1ba20:	00008067          	ret
   1ba24:	f1c1a783          	lw	a5,-228(gp) # 237dc <errno>
   1ba28:	fe0786e3          	beqz	a5,1ba14 <_kill_r+0x2c>
   1ba2c:	00c12083          	lw	ra,12(sp)
   1ba30:	00f42023          	sw	a5,0(s0)
   1ba34:	00812403          	lw	s0,8(sp)
   1ba38:	01010113          	addi	sp,sp,16
   1ba3c:	00008067          	ret

0001ba40 <_getpid_r>:
   1ba40:	0d80006f          	j	1bb18 <_getpid>

0001ba44 <_close>:
   1ba44:	ff010113          	addi	sp,sp,-16
   1ba48:	00112623          	sw	ra,12(sp)
   1ba4c:	00812423          	sw	s0,8(sp)
   1ba50:	03900893          	li	a7,57
   1ba54:	00000073          	ecall
   1ba58:	00050413          	mv	s0,a0
   1ba5c:	00054c63          	bltz	a0,1ba74 <_close+0x30>
   1ba60:	00c12083          	lw	ra,12(sp)
   1ba64:	00040513          	mv	a0,s0
   1ba68:	00812403          	lw	s0,8(sp)
   1ba6c:	01010113          	addi	sp,sp,16
   1ba70:	00008067          	ret
   1ba74:	40800433          	neg	s0,s0
   1ba78:	a35ff0ef          	jal	ra,1b4ac <__errno>
   1ba7c:	00852023          	sw	s0,0(a0)
   1ba80:	fff00413          	li	s0,-1
   1ba84:	fddff06f          	j	1ba60 <_close+0x1c>

0001ba88 <_exit>:
   1ba88:	05d00893          	li	a7,93
   1ba8c:	00000073          	ecall
   1ba90:	00054463          	bltz	a0,1ba98 <_exit+0x10>
   1ba94:	0000006f          	j	1ba94 <_exit+0xc>
   1ba98:	ff010113          	addi	sp,sp,-16
   1ba9c:	00812423          	sw	s0,8(sp)
   1baa0:	00050413          	mv	s0,a0
   1baa4:	00112623          	sw	ra,12(sp)
   1baa8:	40800433          	neg	s0,s0
   1baac:	a01ff0ef          	jal	ra,1b4ac <__errno>
   1bab0:	00852023          	sw	s0,0(a0)
   1bab4:	0000006f          	j	1bab4 <_exit+0x2c>

0001bab8 <_fstat>:
   1bab8:	f7010113          	addi	sp,sp,-144
   1babc:	08912223          	sw	s1,132(sp)
   1bac0:	08112623          	sw	ra,140(sp)
   1bac4:	00058493          	mv	s1,a1
   1bac8:	08812423          	sw	s0,136(sp)
   1bacc:	05000893          	li	a7,80
   1bad0:	00010593          	mv	a1,sp
   1bad4:	00000073          	ecall
   1bad8:	00050413          	mv	s0,a0
   1badc:	02054463          	bltz	a0,1bb04 <_fstat+0x4c>
   1bae0:	00048513          	mv	a0,s1
   1bae4:	00010593          	mv	a1,sp
   1bae8:	1e4000ef          	jal	ra,1bccc <_conv_stat>
   1baec:	08c12083          	lw	ra,140(sp)
   1baf0:	00040513          	mv	a0,s0
   1baf4:	08812403          	lw	s0,136(sp)
   1baf8:	08412483          	lw	s1,132(sp)
   1bafc:	09010113          	addi	sp,sp,144
   1bb00:	00008067          	ret
   1bb04:	40800433          	neg	s0,s0
   1bb08:	9a5ff0ef          	jal	ra,1b4ac <__errno>
   1bb0c:	00852023          	sw	s0,0(a0)
   1bb10:	fff00413          	li	s0,-1
   1bb14:	fcdff06f          	j	1bae0 <_fstat+0x28>

0001bb18 <_getpid>:
   1bb18:	00100513          	li	a0,1
   1bb1c:	00008067          	ret

0001bb20 <_isatty>:
   1bb20:	f9010113          	addi	sp,sp,-112
   1bb24:	00810593          	addi	a1,sp,8
   1bb28:	06112623          	sw	ra,108(sp)
   1bb2c:	f8dff0ef          	jal	ra,1bab8 <_fstat>
   1bb30:	fff00793          	li	a5,-1
   1bb34:	00f50e63          	beq	a0,a5,1bb50 <_isatty+0x30>
   1bb38:	00c12503          	lw	a0,12(sp)
   1bb3c:	06c12083          	lw	ra,108(sp)
   1bb40:	00d55513          	srli	a0,a0,0xd
   1bb44:	00157513          	andi	a0,a0,1
   1bb48:	07010113          	addi	sp,sp,112
   1bb4c:	00008067          	ret
   1bb50:	06c12083          	lw	ra,108(sp)
   1bb54:	00000513          	li	a0,0
   1bb58:	07010113          	addi	sp,sp,112
   1bb5c:	00008067          	ret

0001bb60 <_kill>:
   1bb60:	ff010113          	addi	sp,sp,-16
   1bb64:	00112623          	sw	ra,12(sp)
   1bb68:	945ff0ef          	jal	ra,1b4ac <__errno>
   1bb6c:	00c12083          	lw	ra,12(sp)
   1bb70:	01600793          	li	a5,22
   1bb74:	00f52023          	sw	a5,0(a0)
   1bb78:	fff00513          	li	a0,-1
   1bb7c:	01010113          	addi	sp,sp,16
   1bb80:	00008067          	ret

0001bb84 <_lseek>:
   1bb84:	ff010113          	addi	sp,sp,-16
   1bb88:	00112623          	sw	ra,12(sp)
   1bb8c:	00812423          	sw	s0,8(sp)
   1bb90:	03e00893          	li	a7,62
   1bb94:	00000073          	ecall
   1bb98:	00050413          	mv	s0,a0
   1bb9c:	00054c63          	bltz	a0,1bbb4 <_lseek+0x30>
   1bba0:	00c12083          	lw	ra,12(sp)
   1bba4:	00040513          	mv	a0,s0
   1bba8:	00812403          	lw	s0,8(sp)
   1bbac:	01010113          	addi	sp,sp,16
   1bbb0:	00008067          	ret
   1bbb4:	40800433          	neg	s0,s0
   1bbb8:	8f5ff0ef          	jal	ra,1b4ac <__errno>
   1bbbc:	00852023          	sw	s0,0(a0)
   1bbc0:	fff00413          	li	s0,-1
   1bbc4:	fddff06f          	j	1bba0 <_lseek+0x1c>

0001bbc8 <_read>:
   1bbc8:	ff010113          	addi	sp,sp,-16
   1bbcc:	00112623          	sw	ra,12(sp)
   1bbd0:	00812423          	sw	s0,8(sp)
   1bbd4:	03f00893          	li	a7,63
   1bbd8:	00000073          	ecall
   1bbdc:	00050413          	mv	s0,a0
   1bbe0:	00054c63          	bltz	a0,1bbf8 <_read+0x30>
   1bbe4:	00c12083          	lw	ra,12(sp)
   1bbe8:	00040513          	mv	a0,s0
   1bbec:	00812403          	lw	s0,8(sp)
   1bbf0:	01010113          	addi	sp,sp,16
   1bbf4:	00008067          	ret
   1bbf8:	40800433          	neg	s0,s0
   1bbfc:	8b1ff0ef          	jal	ra,1b4ac <__errno>
   1bc00:	00852023          	sw	s0,0(a0)
   1bc04:	fff00413          	li	s0,-1
   1bc08:	fddff06f          	j	1bbe4 <_read+0x1c>

0001bc0c <_sbrk>:
   1bc0c:	f3418693          	addi	a3,gp,-204 # 237f4 <heap_end.0>
   1bc10:	0006a703          	lw	a4,0(a3)
   1bc14:	ff010113          	addi	sp,sp,-16
   1bc18:	00112623          	sw	ra,12(sp)
   1bc1c:	00050793          	mv	a5,a0
   1bc20:	02071063          	bnez	a4,1bc40 <_sbrk+0x34>
   1bc24:	0d600893          	li	a7,214
   1bc28:	00000513          	li	a0,0
   1bc2c:	00000073          	ecall
   1bc30:	fff00613          	li	a2,-1
   1bc34:	00050713          	mv	a4,a0
   1bc38:	02c50a63          	beq	a0,a2,1bc6c <_sbrk+0x60>
   1bc3c:	00a6a023          	sw	a0,0(a3)
   1bc40:	0d600893          	li	a7,214
   1bc44:	00e78533          	add	a0,a5,a4
   1bc48:	00000073          	ecall
   1bc4c:	0006a703          	lw	a4,0(a3)
   1bc50:	00e787b3          	add	a5,a5,a4
   1bc54:	00f51c63          	bne	a0,a5,1bc6c <_sbrk+0x60>
   1bc58:	00c12083          	lw	ra,12(sp)
   1bc5c:	00a6a023          	sw	a0,0(a3)
   1bc60:	00070513          	mv	a0,a4
   1bc64:	01010113          	addi	sp,sp,16
   1bc68:	00008067          	ret
   1bc6c:	841ff0ef          	jal	ra,1b4ac <__errno>
   1bc70:	00c12083          	lw	ra,12(sp)
   1bc74:	00c00793          	li	a5,12
   1bc78:	00f52023          	sw	a5,0(a0)
   1bc7c:	fff00513          	li	a0,-1
   1bc80:	01010113          	addi	sp,sp,16
   1bc84:	00008067          	ret

0001bc88 <_write>:
   1bc88:	ff010113          	addi	sp,sp,-16
   1bc8c:	00112623          	sw	ra,12(sp)
   1bc90:	00812423          	sw	s0,8(sp)
   1bc94:	04000893          	li	a7,64
   1bc98:	00000073          	ecall
   1bc9c:	00050413          	mv	s0,a0
   1bca0:	00054c63          	bltz	a0,1bcb8 <_write+0x30>
   1bca4:	00c12083          	lw	ra,12(sp)
   1bca8:	00040513          	mv	a0,s0
   1bcac:	00812403          	lw	s0,8(sp)
   1bcb0:	01010113          	addi	sp,sp,16
   1bcb4:	00008067          	ret
   1bcb8:	40800433          	neg	s0,s0
   1bcbc:	ff0ff0ef          	jal	ra,1b4ac <__errno>
   1bcc0:	00852023          	sw	s0,0(a0)
   1bcc4:	fff00413          	li	s0,-1
   1bcc8:	fddff06f          	j	1bca4 <_write+0x1c>

0001bccc <_conv_stat>:
   1bccc:	0185d703          	lhu	a4,24(a1)
   1bcd0:	0145d783          	lhu	a5,20(a1)
   1bcd4:	ff010113          	addi	sp,sp,-16
   1bcd8:	01c5a283          	lw	t0,28(a1)
   1bcdc:	0205af83          	lw	t6,32(a1)
   1bce0:	0305af03          	lw	t5,48(a1)
   1bce4:	0405ae83          	lw	t4,64(a1)
   1bce8:	0385ae03          	lw	t3,56(a1)
   1bcec:	0485a303          	lw	t1,72(a1)
   1bcf0:	04c5a383          	lw	t2,76(a1)
   1bcf4:	0585a803          	lw	a6,88(a1)
   1bcf8:	05c5a883          	lw	a7,92(a1)
   1bcfc:	00812623          	sw	s0,12(sp)
   1bd00:	00912423          	sw	s1,8(sp)
   1bd04:	0105a403          	lw	s0,16(a1)
   1bd08:	0085a483          	lw	s1,8(a1)
   1bd0c:	01212223          	sw	s2,4(sp)
   1bd10:	0005a903          	lw	s2,0(a1)
   1bd14:	0685a603          	lw	a2,104(a1)
   1bd18:	01071713          	slli	a4,a4,0x10
   1bd1c:	00e7e7b3          	or	a5,a5,a4
   1bd20:	06c5a683          	lw	a3,108(a1)
   1bd24:	01251023          	sh	s2,0(a0)
   1bd28:	00951123          	sh	s1,2(a0)
   1bd2c:	00852223          	sw	s0,4(a0)
   1bd30:	00f52423          	sw	a5,8(a0)
   1bd34:	00551623          	sh	t0,12(a0)
   1bd38:	01f51723          	sh	t6,14(a0)
   1bd3c:	01e52823          	sw	t5,16(a0)
   1bd40:	05d52623          	sw	t4,76(a0)
   1bd44:	05c52423          	sw	t3,72(a0)
   1bd48:	00652c23          	sw	t1,24(a0)
   1bd4c:	00752e23          	sw	t2,28(a0)
   1bd50:	03052423          	sw	a6,40(a0)
   1bd54:	03152623          	sw	a7,44(a0)
   1bd58:	02c52c23          	sw	a2,56(a0)
   1bd5c:	00c12403          	lw	s0,12(sp)
   1bd60:	02d52e23          	sw	a3,60(a0)
   1bd64:	00812483          	lw	s1,8(sp)
   1bd68:	00412903          	lw	s2,4(sp)
   1bd6c:	01010113          	addi	sp,sp,16
   1bd70:	00008067          	ret

0001bd74 <__udivdi3>:
   1bd74:	fd010113          	addi	sp,sp,-48
   1bd78:	01412c23          	sw	s4,24(sp)
   1bd7c:	02112623          	sw	ra,44(sp)
   1bd80:	02812423          	sw	s0,40(sp)
   1bd84:	02912223          	sw	s1,36(sp)
   1bd88:	03212023          	sw	s2,32(sp)
   1bd8c:	01312e23          	sw	s3,28(sp)
   1bd90:	01512a23          	sw	s5,20(sp)
   1bd94:	01612823          	sw	s6,16(sp)
   1bd98:	01712623          	sw	s7,12(sp)
   1bd9c:	01812423          	sw	s8,8(sp)
   1bda0:	01912223          	sw	s9,4(sp)
   1bda4:	00050a13          	mv	s4,a0
   1bda8:	38069463          	bnez	a3,1c130 <__udivdi3+0x3bc>
   1bdac:	00060993          	mv	s3,a2
   1bdb0:	00050493          	mv	s1,a0
   1bdb4:	00007797          	auipc	a5,0x7
   1bdb8:	86478793          	addi	a5,a5,-1948 # 22618 <__clz_tab>
   1bdbc:	12c5f863          	bgeu	a1,a2,1beec <__udivdi3+0x178>
   1bdc0:	00010737          	lui	a4,0x10
   1bdc4:	00058913          	mv	s2,a1
   1bdc8:	10e67863          	bgeu	a2,a4,1bed8 <__udivdi3+0x164>
   1bdcc:	10063713          	sltiu	a4,a2,256
   1bdd0:	00174713          	xori	a4,a4,1
   1bdd4:	00371713          	slli	a4,a4,0x3
   1bdd8:	00e656b3          	srl	a3,a2,a4
   1bddc:	00d787b3          	add	a5,a5,a3
   1bde0:	0007c683          	lbu	a3,0(a5)
   1bde4:	00e68733          	add	a4,a3,a4
   1bde8:	02000693          	li	a3,32
   1bdec:	40e687b3          	sub	a5,a3,a4
   1bdf0:	00e68c63          	beq	a3,a4,1be08 <__udivdi3+0x94>
   1bdf4:	00f59933          	sll	s2,a1,a5
   1bdf8:	00ea5733          	srl	a4,s4,a4
   1bdfc:	00f619b3          	sll	s3,a2,a5
   1be00:	01276933          	or	s2,a4,s2
   1be04:	00fa14b3          	sll	s1,s4,a5
   1be08:	0109da93          	srli	s5,s3,0x10
   1be0c:	000a8593          	mv	a1,s5
   1be10:	00090513          	mv	a0,s2
   1be14:	01099b13          	slli	s6,s3,0x10
   1be18:	655050ef          	jal	ra,21c6c <__hidden___udivsi3>
   1be1c:	010b5b13          	srli	s6,s6,0x10
   1be20:	00050593          	mv	a1,a0
   1be24:	00050a13          	mv	s4,a0
   1be28:	000b0513          	mv	a0,s6
   1be2c:	615050ef          	jal	ra,21c40 <__mulsi3>
   1be30:	00050413          	mv	s0,a0
   1be34:	000a8593          	mv	a1,s5
   1be38:	00090513          	mv	a0,s2
   1be3c:	679050ef          	jal	ra,21cb4 <__umodsi3>
   1be40:	01051513          	slli	a0,a0,0x10
   1be44:	0104d713          	srli	a4,s1,0x10
   1be48:	00a76733          	or	a4,a4,a0
   1be4c:	000a0913          	mv	s2,s4
   1be50:	00877e63          	bgeu	a4,s0,1be6c <__udivdi3+0xf8>
   1be54:	00e98733          	add	a4,s3,a4
   1be58:	fffa0913          	addi	s2,s4,-1
   1be5c:	01376863          	bltu	a4,s3,1be6c <__udivdi3+0xf8>
   1be60:	00877663          	bgeu	a4,s0,1be6c <__udivdi3+0xf8>
   1be64:	ffea0913          	addi	s2,s4,-2
   1be68:	01370733          	add	a4,a4,s3
   1be6c:	40870433          	sub	s0,a4,s0
   1be70:	000a8593          	mv	a1,s5
   1be74:	00040513          	mv	a0,s0
   1be78:	5f5050ef          	jal	ra,21c6c <__hidden___udivsi3>
   1be7c:	00050593          	mv	a1,a0
   1be80:	00050a13          	mv	s4,a0
   1be84:	000b0513          	mv	a0,s6
   1be88:	5b9050ef          	jal	ra,21c40 <__mulsi3>
   1be8c:	00050b13          	mv	s6,a0
   1be90:	000a8593          	mv	a1,s5
   1be94:	00040513          	mv	a0,s0
   1be98:	61d050ef          	jal	ra,21cb4 <__umodsi3>
   1be9c:	01049493          	slli	s1,s1,0x10
   1bea0:	01051513          	slli	a0,a0,0x10
   1bea4:	0104d493          	srli	s1,s1,0x10
   1bea8:	00a4e4b3          	or	s1,s1,a0
   1beac:	000a0713          	mv	a4,s4
   1beb0:	0164fc63          	bgeu	s1,s6,1bec8 <__udivdi3+0x154>
   1beb4:	009984b3          	add	s1,s3,s1
   1beb8:	fffa0713          	addi	a4,s4,-1
   1bebc:	0134e663          	bltu	s1,s3,1bec8 <__udivdi3+0x154>
   1bec0:	0164f463          	bgeu	s1,s6,1bec8 <__udivdi3+0x154>
   1bec4:	ffea0713          	addi	a4,s4,-2
   1bec8:	01091793          	slli	a5,s2,0x10
   1becc:	00e7e7b3          	or	a5,a5,a4
   1bed0:	00000913          	li	s2,0
   1bed4:	1200006f          	j	1bff4 <__udivdi3+0x280>
   1bed8:	010006b7          	lui	a3,0x1000
   1bedc:	01000713          	li	a4,16
   1bee0:	eed66ce3          	bltu	a2,a3,1bdd8 <__udivdi3+0x64>
   1bee4:	01800713          	li	a4,24
   1bee8:	ef1ff06f          	j	1bdd8 <__udivdi3+0x64>
   1beec:	00000713          	li	a4,0
   1bef0:	00060c63          	beqz	a2,1bf08 <__udivdi3+0x194>
   1bef4:	00010737          	lui	a4,0x10
   1bef8:	12e67c63          	bgeu	a2,a4,1c030 <__udivdi3+0x2bc>
   1befc:	10063713          	sltiu	a4,a2,256
   1bf00:	00174713          	xori	a4,a4,1
   1bf04:	00371713          	slli	a4,a4,0x3
   1bf08:	00e656b3          	srl	a3,a2,a4
   1bf0c:	00d787b3          	add	a5,a5,a3
   1bf10:	0007c783          	lbu	a5,0(a5)
   1bf14:	02000693          	li	a3,32
   1bf18:	00e787b3          	add	a5,a5,a4
   1bf1c:	40f68733          	sub	a4,a3,a5
   1bf20:	12f69263          	bne	a3,a5,1c044 <__udivdi3+0x2d0>
   1bf24:	40c58a33          	sub	s4,a1,a2
   1bf28:	00100913          	li	s2,1
   1bf2c:	0109db13          	srli	s6,s3,0x10
   1bf30:	000b0593          	mv	a1,s6
   1bf34:	000a0513          	mv	a0,s4
   1bf38:	01099b93          	slli	s7,s3,0x10
   1bf3c:	531050ef          	jal	ra,21c6c <__hidden___udivsi3>
   1bf40:	010bdb93          	srli	s7,s7,0x10
   1bf44:	00050593          	mv	a1,a0
   1bf48:	00050c13          	mv	s8,a0
   1bf4c:	000b8513          	mv	a0,s7
   1bf50:	4f1050ef          	jal	ra,21c40 <__mulsi3>
   1bf54:	00050a93          	mv	s5,a0
   1bf58:	000b0593          	mv	a1,s6
   1bf5c:	000a0513          	mv	a0,s4
   1bf60:	555050ef          	jal	ra,21cb4 <__umodsi3>
   1bf64:	01051513          	slli	a0,a0,0x10
   1bf68:	0104d713          	srli	a4,s1,0x10
   1bf6c:	00a76733          	or	a4,a4,a0
   1bf70:	000c0a13          	mv	s4,s8
   1bf74:	01577e63          	bgeu	a4,s5,1bf90 <__udivdi3+0x21c>
   1bf78:	00e98733          	add	a4,s3,a4
   1bf7c:	fffc0a13          	addi	s4,s8,-1
   1bf80:	01376863          	bltu	a4,s3,1bf90 <__udivdi3+0x21c>
   1bf84:	01577663          	bgeu	a4,s5,1bf90 <__udivdi3+0x21c>
   1bf88:	ffec0a13          	addi	s4,s8,-2
   1bf8c:	01370733          	add	a4,a4,s3
   1bf90:	41570433          	sub	s0,a4,s5
   1bf94:	000b0593          	mv	a1,s6
   1bf98:	00040513          	mv	a0,s0
   1bf9c:	4d1050ef          	jal	ra,21c6c <__hidden___udivsi3>
   1bfa0:	00050593          	mv	a1,a0
   1bfa4:	00050a93          	mv	s5,a0
   1bfa8:	000b8513          	mv	a0,s7
   1bfac:	495050ef          	jal	ra,21c40 <__mulsi3>
   1bfb0:	00050b93          	mv	s7,a0
   1bfb4:	000b0593          	mv	a1,s6
   1bfb8:	00040513          	mv	a0,s0
   1bfbc:	4f9050ef          	jal	ra,21cb4 <__umodsi3>
   1bfc0:	01049493          	slli	s1,s1,0x10
   1bfc4:	01051513          	slli	a0,a0,0x10
   1bfc8:	0104d493          	srli	s1,s1,0x10
   1bfcc:	00a4e4b3          	or	s1,s1,a0
   1bfd0:	000a8713          	mv	a4,s5
   1bfd4:	0174fc63          	bgeu	s1,s7,1bfec <__udivdi3+0x278>
   1bfd8:	009984b3          	add	s1,s3,s1
   1bfdc:	fffa8713          	addi	a4,s5,-1
   1bfe0:	0134e663          	bltu	s1,s3,1bfec <__udivdi3+0x278>
   1bfe4:	0174f463          	bgeu	s1,s7,1bfec <__udivdi3+0x278>
   1bfe8:	ffea8713          	addi	a4,s5,-2
   1bfec:	010a1793          	slli	a5,s4,0x10
   1bff0:	00e7e7b3          	or	a5,a5,a4
   1bff4:	02c12083          	lw	ra,44(sp)
   1bff8:	02812403          	lw	s0,40(sp)
   1bffc:	02412483          	lw	s1,36(sp)
   1c000:	01c12983          	lw	s3,28(sp)
   1c004:	01812a03          	lw	s4,24(sp)
   1c008:	01412a83          	lw	s5,20(sp)
   1c00c:	01012b03          	lw	s6,16(sp)
   1c010:	00c12b83          	lw	s7,12(sp)
   1c014:	00812c03          	lw	s8,8(sp)
   1c018:	00412c83          	lw	s9,4(sp)
   1c01c:	00090593          	mv	a1,s2
   1c020:	00078513          	mv	a0,a5
   1c024:	02012903          	lw	s2,32(sp)
   1c028:	03010113          	addi	sp,sp,48
   1c02c:	00008067          	ret
   1c030:	010006b7          	lui	a3,0x1000
   1c034:	01000713          	li	a4,16
   1c038:	ecd668e3          	bltu	a2,a3,1bf08 <__udivdi3+0x194>
   1c03c:	01800713          	li	a4,24
   1c040:	ec9ff06f          	j	1bf08 <__udivdi3+0x194>
   1c044:	00e619b3          	sll	s3,a2,a4
   1c048:	00f5d933          	srl	s2,a1,a5
   1c04c:	0109db93          	srli	s7,s3,0x10
   1c050:	00e595b3          	sll	a1,a1,a4
   1c054:	00fa57b3          	srl	a5,s4,a5
   1c058:	00b7eab3          	or	s5,a5,a1
   1c05c:	00ea14b3          	sll	s1,s4,a4
   1c060:	000b8593          	mv	a1,s7
   1c064:	00090513          	mv	a0,s2
   1c068:	01099a13          	slli	s4,s3,0x10
   1c06c:	401050ef          	jal	ra,21c6c <__hidden___udivsi3>
   1c070:	010a5a13          	srli	s4,s4,0x10
   1c074:	00050593          	mv	a1,a0
   1c078:	00050b13          	mv	s6,a0
   1c07c:	000a0513          	mv	a0,s4
   1c080:	3c1050ef          	jal	ra,21c40 <__mulsi3>
   1c084:	00050413          	mv	s0,a0
   1c088:	000b8593          	mv	a1,s7
   1c08c:	00090513          	mv	a0,s2
   1c090:	425050ef          	jal	ra,21cb4 <__umodsi3>
   1c094:	01051513          	slli	a0,a0,0x10
   1c098:	010ad713          	srli	a4,s5,0x10
   1c09c:	00a76733          	or	a4,a4,a0
   1c0a0:	000b0913          	mv	s2,s6
   1c0a4:	00877e63          	bgeu	a4,s0,1c0c0 <__udivdi3+0x34c>
   1c0a8:	00e98733          	add	a4,s3,a4
   1c0ac:	fffb0913          	addi	s2,s6,-1
   1c0b0:	01376863          	bltu	a4,s3,1c0c0 <__udivdi3+0x34c>
   1c0b4:	00877663          	bgeu	a4,s0,1c0c0 <__udivdi3+0x34c>
   1c0b8:	ffeb0913          	addi	s2,s6,-2
   1c0bc:	01370733          	add	a4,a4,s3
   1c0c0:	40870433          	sub	s0,a4,s0
   1c0c4:	000b8593          	mv	a1,s7
   1c0c8:	00040513          	mv	a0,s0
   1c0cc:	3a1050ef          	jal	ra,21c6c <__hidden___udivsi3>
   1c0d0:	00050593          	mv	a1,a0
   1c0d4:	00050b13          	mv	s6,a0
   1c0d8:	000a0513          	mv	a0,s4
   1c0dc:	365050ef          	jal	ra,21c40 <__mulsi3>
   1c0e0:	00050a13          	mv	s4,a0
   1c0e4:	000b8593          	mv	a1,s7
   1c0e8:	00040513          	mv	a0,s0
   1c0ec:	3c9050ef          	jal	ra,21cb4 <__umodsi3>
   1c0f0:	010a9793          	slli	a5,s5,0x10
   1c0f4:	01051513          	slli	a0,a0,0x10
   1c0f8:	0107d793          	srli	a5,a5,0x10
   1c0fc:	00a7e7b3          	or	a5,a5,a0
   1c100:	000b0713          	mv	a4,s6
   1c104:	0147fe63          	bgeu	a5,s4,1c120 <__udivdi3+0x3ac>
   1c108:	00f987b3          	add	a5,s3,a5
   1c10c:	fffb0713          	addi	a4,s6,-1
   1c110:	0137e863          	bltu	a5,s3,1c120 <__udivdi3+0x3ac>
   1c114:	0147f663          	bgeu	a5,s4,1c120 <__udivdi3+0x3ac>
   1c118:	ffeb0713          	addi	a4,s6,-2
   1c11c:	013787b3          	add	a5,a5,s3
   1c120:	01091913          	slli	s2,s2,0x10
   1c124:	41478a33          	sub	s4,a5,s4
   1c128:	00e96933          	or	s2,s2,a4
   1c12c:	e01ff06f          	j	1bf2c <__udivdi3+0x1b8>
   1c130:	1ed5ee63          	bltu	a1,a3,1c32c <__udivdi3+0x5b8>
   1c134:	000107b7          	lui	a5,0x10
   1c138:	04f6f463          	bgeu	a3,a5,1c180 <__udivdi3+0x40c>
   1c13c:	1006b713          	sltiu	a4,a3,256
   1c140:	00174713          	xori	a4,a4,1
   1c144:	00371713          	slli	a4,a4,0x3
   1c148:	00e6d533          	srl	a0,a3,a4
   1c14c:	00006797          	auipc	a5,0x6
   1c150:	4cc78793          	addi	a5,a5,1228 # 22618 <__clz_tab>
   1c154:	00a787b3          	add	a5,a5,a0
   1c158:	0007c803          	lbu	a6,0(a5)
   1c15c:	02000793          	li	a5,32
   1c160:	00e80833          	add	a6,a6,a4
   1c164:	41078933          	sub	s2,a5,a6
   1c168:	03079663          	bne	a5,a6,1c194 <__udivdi3+0x420>
   1c16c:	00100793          	li	a5,1
   1c170:	e8b6e2e3          	bltu	a3,a1,1bff4 <__udivdi3+0x280>
   1c174:	00ca37b3          	sltu	a5,s4,a2
   1c178:	0017c793          	xori	a5,a5,1
   1c17c:	e79ff06f          	j	1bff4 <__udivdi3+0x280>
   1c180:	010007b7          	lui	a5,0x1000
   1c184:	01000713          	li	a4,16
   1c188:	fcf6e0e3          	bltu	a3,a5,1c148 <__udivdi3+0x3d4>
   1c18c:	01800713          	li	a4,24
   1c190:	fb9ff06f          	j	1c148 <__udivdi3+0x3d4>
   1c194:	012696b3          	sll	a3,a3,s2
   1c198:	01065b33          	srl	s6,a2,a6
   1c19c:	00db6b33          	or	s6,s6,a3
   1c1a0:	0105d4b3          	srl	s1,a1,a6
   1c1a4:	010b5c13          	srli	s8,s6,0x10
   1c1a8:	010a5833          	srl	a6,s4,a6
   1c1ac:	012595b3          	sll	a1,a1,s2
   1c1b0:	00b869b3          	or	s3,a6,a1
   1c1b4:	00048513          	mv	a0,s1
   1c1b8:	000c0593          	mv	a1,s8
   1c1bc:	010b1b93          	slli	s7,s6,0x10
   1c1c0:	01261433          	sll	s0,a2,s2
   1c1c4:	010bdb93          	srli	s7,s7,0x10
   1c1c8:	2a5050ef          	jal	ra,21c6c <__hidden___udivsi3>
   1c1cc:	00050593          	mv	a1,a0
   1c1d0:	00050c93          	mv	s9,a0
   1c1d4:	000b8513          	mv	a0,s7
   1c1d8:	269050ef          	jal	ra,21c40 <__mulsi3>
   1c1dc:	00050a93          	mv	s5,a0
   1c1e0:	000c0593          	mv	a1,s8
   1c1e4:	00048513          	mv	a0,s1
   1c1e8:	2cd050ef          	jal	ra,21cb4 <__umodsi3>
   1c1ec:	01051513          	slli	a0,a0,0x10
   1c1f0:	0109d693          	srli	a3,s3,0x10
   1c1f4:	00a6e6b3          	or	a3,a3,a0
   1c1f8:	000c8493          	mv	s1,s9
   1c1fc:	0156fe63          	bgeu	a3,s5,1c218 <__udivdi3+0x4a4>
   1c200:	00db06b3          	add	a3,s6,a3
   1c204:	fffc8493          	addi	s1,s9,-1
   1c208:	0166e863          	bltu	a3,s6,1c218 <__udivdi3+0x4a4>
   1c20c:	0156f663          	bgeu	a3,s5,1c218 <__udivdi3+0x4a4>
   1c210:	ffec8493          	addi	s1,s9,-2
   1c214:	016686b3          	add	a3,a3,s6
   1c218:	41568ab3          	sub	s5,a3,s5
   1c21c:	000c0593          	mv	a1,s8
   1c220:	000a8513          	mv	a0,s5
   1c224:	249050ef          	jal	ra,21c6c <__hidden___udivsi3>
   1c228:	00050593          	mv	a1,a0
   1c22c:	00050c93          	mv	s9,a0
   1c230:	000b8513          	mv	a0,s7
   1c234:	20d050ef          	jal	ra,21c40 <__mulsi3>
   1c238:	00050b93          	mv	s7,a0
   1c23c:	000c0593          	mv	a1,s8
   1c240:	000a8513          	mv	a0,s5
   1c244:	271050ef          	jal	ra,21cb4 <__umodsi3>
   1c248:	01099713          	slli	a4,s3,0x10
   1c24c:	01051513          	slli	a0,a0,0x10
   1c250:	01075713          	srli	a4,a4,0x10
   1c254:	00a76733          	or	a4,a4,a0
   1c258:	000c8693          	mv	a3,s9
   1c25c:	01777e63          	bgeu	a4,s7,1c278 <__udivdi3+0x504>
   1c260:	00eb0733          	add	a4,s6,a4
   1c264:	fffc8693          	addi	a3,s9,-1
   1c268:	01676863          	bltu	a4,s6,1c278 <__udivdi3+0x504>
   1c26c:	01777663          	bgeu	a4,s7,1c278 <__udivdi3+0x504>
   1c270:	ffec8693          	addi	a3,s9,-2
   1c274:	01670733          	add	a4,a4,s6
   1c278:	01049793          	slli	a5,s1,0x10
   1c27c:	00010e37          	lui	t3,0x10
   1c280:	00d7e7b3          	or	a5,a5,a3
   1c284:	fffe0313          	addi	t1,t3,-1 # ffff <exit-0x95>
   1c288:	0067f8b3          	and	a7,a5,t1
   1c28c:	00647333          	and	t1,s0,t1
   1c290:	41770733          	sub	a4,a4,s7
   1c294:	0107de93          	srli	t4,a5,0x10
   1c298:	01045413          	srli	s0,s0,0x10
   1c29c:	00088513          	mv	a0,a7
   1c2a0:	00030593          	mv	a1,t1
   1c2a4:	19d050ef          	jal	ra,21c40 <__mulsi3>
   1c2a8:	00050813          	mv	a6,a0
   1c2ac:	00040593          	mv	a1,s0
   1c2b0:	00088513          	mv	a0,a7
   1c2b4:	18d050ef          	jal	ra,21c40 <__mulsi3>
   1c2b8:	00050893          	mv	a7,a0
   1c2bc:	00030593          	mv	a1,t1
   1c2c0:	000e8513          	mv	a0,t4
   1c2c4:	17d050ef          	jal	ra,21c40 <__mulsi3>
   1c2c8:	00050313          	mv	t1,a0
   1c2cc:	00040593          	mv	a1,s0
   1c2d0:	000e8513          	mv	a0,t4
   1c2d4:	16d050ef          	jal	ra,21c40 <__mulsi3>
   1c2d8:	01085693          	srli	a3,a6,0x10
   1c2dc:	006888b3          	add	a7,a7,t1
   1c2e0:	011686b3          	add	a3,a3,a7
   1c2e4:	00050613          	mv	a2,a0
   1c2e8:	0066f463          	bgeu	a3,t1,1c2f0 <__udivdi3+0x57c>
   1c2ec:	01c50633          	add	a2,a0,t3
   1c2f0:	0106d593          	srli	a1,a3,0x10
   1c2f4:	00c58633          	add	a2,a1,a2
   1c2f8:	02c76663          	bltu	a4,a2,1c324 <__udivdi3+0x5b0>
   1c2fc:	bcc71ae3          	bne	a4,a2,1bed0 <__udivdi3+0x15c>
   1c300:	00010637          	lui	a2,0x10
   1c304:	fff60613          	addi	a2,a2,-1 # ffff <exit-0x95>
   1c308:	00c6f6b3          	and	a3,a3,a2
   1c30c:	01069693          	slli	a3,a3,0x10
   1c310:	00c87833          	and	a6,a6,a2
   1c314:	012a1733          	sll	a4,s4,s2
   1c318:	010686b3          	add	a3,a3,a6
   1c31c:	00000913          	li	s2,0
   1c320:	ccd77ae3          	bgeu	a4,a3,1bff4 <__udivdi3+0x280>
   1c324:	fff78793          	addi	a5,a5,-1 # ffffff <__BSS_END__+0xfdc4fb>
   1c328:	ba9ff06f          	j	1bed0 <__udivdi3+0x15c>
   1c32c:	00000913          	li	s2,0
   1c330:	00000793          	li	a5,0
   1c334:	cc1ff06f          	j	1bff4 <__udivdi3+0x280>

0001c338 <__umoddi3>:
   1c338:	fd010113          	addi	sp,sp,-48
   1c33c:	02812423          	sw	s0,40(sp)
   1c340:	02912223          	sw	s1,36(sp)
   1c344:	02112623          	sw	ra,44(sp)
   1c348:	03212023          	sw	s2,32(sp)
   1c34c:	01312e23          	sw	s3,28(sp)
   1c350:	01412c23          	sw	s4,24(sp)
   1c354:	01512a23          	sw	s5,20(sp)
   1c358:	01612823          	sw	s6,16(sp)
   1c35c:	01712623          	sw	s7,12(sp)
   1c360:	01812423          	sw	s8,8(sp)
   1c364:	01912223          	sw	s9,4(sp)
   1c368:	01a12023          	sw	s10,0(sp)
   1c36c:	00050413          	mv	s0,a0
   1c370:	00058493          	mv	s1,a1
   1c374:	24069c63          	bnez	a3,1c5cc <__umoddi3+0x294>
   1c378:	00060993          	mv	s3,a2
   1c37c:	00006697          	auipc	a3,0x6
   1c380:	29c68693          	addi	a3,a3,668 # 22618 <__clz_tab>
   1c384:	12c5fe63          	bgeu	a1,a2,1c4c0 <__umoddi3+0x188>
   1c388:	000107b7          	lui	a5,0x10
   1c38c:	12f67063          	bgeu	a2,a5,1c4ac <__umoddi3+0x174>
   1c390:	10063793          	sltiu	a5,a2,256
   1c394:	0017c793          	xori	a5,a5,1
   1c398:	00379793          	slli	a5,a5,0x3
   1c39c:	00f65733          	srl	a4,a2,a5
   1c3a0:	00e686b3          	add	a3,a3,a4
   1c3a4:	0006c703          	lbu	a4,0(a3)
   1c3a8:	00f707b3          	add	a5,a4,a5
   1c3ac:	02000713          	li	a4,32
   1c3b0:	40f70933          	sub	s2,a4,a5
   1c3b4:	00f70c63          	beq	a4,a5,1c3cc <__umoddi3+0x94>
   1c3b8:	012594b3          	sll	s1,a1,s2
   1c3bc:	00f557b3          	srl	a5,a0,a5
   1c3c0:	012619b3          	sll	s3,a2,s2
   1c3c4:	0097e4b3          	or	s1,a5,s1
   1c3c8:	01251433          	sll	s0,a0,s2
   1c3cc:	0109da93          	srli	s5,s3,0x10
   1c3d0:	000a8593          	mv	a1,s5
   1c3d4:	01099b13          	slli	s6,s3,0x10
   1c3d8:	00048513          	mv	a0,s1
   1c3dc:	091050ef          	jal	ra,21c6c <__hidden___udivsi3>
   1c3e0:	010b5b13          	srli	s6,s6,0x10
   1c3e4:	000b0593          	mv	a1,s6
   1c3e8:	059050ef          	jal	ra,21c40 <__mulsi3>
   1c3ec:	00050a13          	mv	s4,a0
   1c3f0:	000a8593          	mv	a1,s5
   1c3f4:	00048513          	mv	a0,s1
   1c3f8:	0bd050ef          	jal	ra,21cb4 <__umodsi3>
   1c3fc:	01051513          	slli	a0,a0,0x10
   1c400:	01045793          	srli	a5,s0,0x10
   1c404:	00a7e7b3          	or	a5,a5,a0
   1c408:	0147fa63          	bgeu	a5,s4,1c41c <__umoddi3+0xe4>
   1c40c:	00f987b3          	add	a5,s3,a5
   1c410:	0137e663          	bltu	a5,s3,1c41c <__umoddi3+0xe4>
   1c414:	0147f463          	bgeu	a5,s4,1c41c <__umoddi3+0xe4>
   1c418:	013787b3          	add	a5,a5,s3
   1c41c:	414784b3          	sub	s1,a5,s4
   1c420:	000a8593          	mv	a1,s5
   1c424:	00048513          	mv	a0,s1
   1c428:	045050ef          	jal	ra,21c6c <__hidden___udivsi3>
   1c42c:	000b0593          	mv	a1,s6
   1c430:	011050ef          	jal	ra,21c40 <__mulsi3>
   1c434:	00050a13          	mv	s4,a0
   1c438:	000a8593          	mv	a1,s5
   1c43c:	00048513          	mv	a0,s1
   1c440:	075050ef          	jal	ra,21cb4 <__umodsi3>
   1c444:	01041413          	slli	s0,s0,0x10
   1c448:	01051513          	slli	a0,a0,0x10
   1c44c:	01045413          	srli	s0,s0,0x10
   1c450:	00a46433          	or	s0,s0,a0
   1c454:	01447a63          	bgeu	s0,s4,1c468 <__umoddi3+0x130>
   1c458:	00898433          	add	s0,s3,s0
   1c45c:	01346663          	bltu	s0,s3,1c468 <__umoddi3+0x130>
   1c460:	01447463          	bgeu	s0,s4,1c468 <__umoddi3+0x130>
   1c464:	01340433          	add	s0,s0,s3
   1c468:	41440433          	sub	s0,s0,s4
   1c46c:	01245533          	srl	a0,s0,s2
   1c470:	00000593          	li	a1,0
   1c474:	02c12083          	lw	ra,44(sp)
   1c478:	02812403          	lw	s0,40(sp)
   1c47c:	02412483          	lw	s1,36(sp)
   1c480:	02012903          	lw	s2,32(sp)
   1c484:	01c12983          	lw	s3,28(sp)
   1c488:	01812a03          	lw	s4,24(sp)
   1c48c:	01412a83          	lw	s5,20(sp)
   1c490:	01012b03          	lw	s6,16(sp)
   1c494:	00c12b83          	lw	s7,12(sp)
   1c498:	00812c03          	lw	s8,8(sp)
   1c49c:	00412c83          	lw	s9,4(sp)
   1c4a0:	00012d03          	lw	s10,0(sp)
   1c4a4:	03010113          	addi	sp,sp,48
   1c4a8:	00008067          	ret
   1c4ac:	01000737          	lui	a4,0x1000
   1c4b0:	01000793          	li	a5,16
   1c4b4:	eee664e3          	bltu	a2,a4,1c39c <__umoddi3+0x64>
   1c4b8:	01800793          	li	a5,24
   1c4bc:	ee1ff06f          	j	1c39c <__umoddi3+0x64>
   1c4c0:	00000713          	li	a4,0
   1c4c4:	00060c63          	beqz	a2,1c4dc <__umoddi3+0x1a4>
   1c4c8:	000107b7          	lui	a5,0x10
   1c4cc:	0ef67663          	bgeu	a2,a5,1c5b8 <__umoddi3+0x280>
   1c4d0:	10063713          	sltiu	a4,a2,256
   1c4d4:	00174713          	xori	a4,a4,1
   1c4d8:	00371713          	slli	a4,a4,0x3
   1c4dc:	00e657b3          	srl	a5,a2,a4
   1c4e0:	00f686b3          	add	a3,a3,a5
   1c4e4:	0006c783          	lbu	a5,0(a3)
   1c4e8:	40c584b3          	sub	s1,a1,a2
   1c4ec:	00e787b3          	add	a5,a5,a4
   1c4f0:	02000713          	li	a4,32
   1c4f4:	40f70933          	sub	s2,a4,a5
   1c4f8:	ecf70ae3          	beq	a4,a5,1c3cc <__umoddi3+0x94>
   1c4fc:	012619b3          	sll	s3,a2,s2
   1c500:	00f5dbb3          	srl	s7,a1,a5
   1c504:	0109db13          	srli	s6,s3,0x10
   1c508:	00f557b3          	srl	a5,a0,a5
   1c50c:	012595b3          	sll	a1,a1,s2
   1c510:	00b7ea33          	or	s4,a5,a1
   1c514:	01251433          	sll	s0,a0,s2
   1c518:	000b0593          	mv	a1,s6
   1c51c:	01099a93          	slli	s5,s3,0x10
   1c520:	000b8513          	mv	a0,s7
   1c524:	748050ef          	jal	ra,21c6c <__hidden___udivsi3>
   1c528:	010ada93          	srli	s5,s5,0x10
   1c52c:	000a8593          	mv	a1,s5
   1c530:	710050ef          	jal	ra,21c40 <__mulsi3>
   1c534:	00050493          	mv	s1,a0
   1c538:	000b0593          	mv	a1,s6
   1c53c:	000b8513          	mv	a0,s7
   1c540:	774050ef          	jal	ra,21cb4 <__umodsi3>
   1c544:	01051513          	slli	a0,a0,0x10
   1c548:	010a5713          	srli	a4,s4,0x10
   1c54c:	00a76733          	or	a4,a4,a0
   1c550:	00977a63          	bgeu	a4,s1,1c564 <__umoddi3+0x22c>
   1c554:	00e98733          	add	a4,s3,a4
   1c558:	01376663          	bltu	a4,s3,1c564 <__umoddi3+0x22c>
   1c55c:	00977463          	bgeu	a4,s1,1c564 <__umoddi3+0x22c>
   1c560:	01370733          	add	a4,a4,s3
   1c564:	409704b3          	sub	s1,a4,s1
   1c568:	000b0593          	mv	a1,s6
   1c56c:	00048513          	mv	a0,s1
   1c570:	6fc050ef          	jal	ra,21c6c <__hidden___udivsi3>
   1c574:	000a8593          	mv	a1,s5
   1c578:	6c8050ef          	jal	ra,21c40 <__mulsi3>
   1c57c:	00050a93          	mv	s5,a0
   1c580:	000b0593          	mv	a1,s6
   1c584:	00048513          	mv	a0,s1
   1c588:	72c050ef          	jal	ra,21cb4 <__umodsi3>
   1c58c:	010a1793          	slli	a5,s4,0x10
   1c590:	01051513          	slli	a0,a0,0x10
   1c594:	0107d793          	srli	a5,a5,0x10
   1c598:	00a7e7b3          	or	a5,a5,a0
   1c59c:	0157fa63          	bgeu	a5,s5,1c5b0 <__umoddi3+0x278>
   1c5a0:	00f987b3          	add	a5,s3,a5
   1c5a4:	0137e663          	bltu	a5,s3,1c5b0 <__umoddi3+0x278>
   1c5a8:	0157f463          	bgeu	a5,s5,1c5b0 <__umoddi3+0x278>
   1c5ac:	013787b3          	add	a5,a5,s3
   1c5b0:	415784b3          	sub	s1,a5,s5
   1c5b4:	e19ff06f          	j	1c3cc <__umoddi3+0x94>
   1c5b8:	010007b7          	lui	a5,0x1000
   1c5bc:	01000713          	li	a4,16
   1c5c0:	f0f66ee3          	bltu	a2,a5,1c4dc <__umoddi3+0x1a4>
   1c5c4:	01800713          	li	a4,24
   1c5c8:	f15ff06f          	j	1c4dc <__umoddi3+0x1a4>
   1c5cc:	ead5e4e3          	bltu	a1,a3,1c474 <__umoddi3+0x13c>
   1c5d0:	000107b7          	lui	a5,0x10
   1c5d4:	04f6fe63          	bgeu	a3,a5,1c630 <__umoddi3+0x2f8>
   1c5d8:	1006b793          	sltiu	a5,a3,256
   1c5dc:	0017c793          	xori	a5,a5,1
   1c5e0:	00379793          	slli	a5,a5,0x3
   1c5e4:	00f6d833          	srl	a6,a3,a5
   1c5e8:	00006717          	auipc	a4,0x6
   1c5ec:	03070713          	addi	a4,a4,48 # 22618 <__clz_tab>
   1c5f0:	01070733          	add	a4,a4,a6
   1c5f4:	00074a83          	lbu	s5,0(a4)
   1c5f8:	00fa8ab3          	add	s5,s5,a5
   1c5fc:	02000793          	li	a5,32
   1c600:	41578a33          	sub	s4,a5,s5
   1c604:	05579063          	bne	a5,s5,1c644 <__umoddi3+0x30c>
   1c608:	00b6e463          	bltu	a3,a1,1c610 <__umoddi3+0x2d8>
   1c60c:	00c56c63          	bltu	a0,a2,1c624 <__umoddi3+0x2ec>
   1c610:	40c50933          	sub	s2,a0,a2
   1c614:	40d586b3          	sub	a3,a1,a3
   1c618:	012534b3          	sltu	s1,a0,s2
   1c61c:	00090413          	mv	s0,s2
   1c620:	409684b3          	sub	s1,a3,s1
   1c624:	00040513          	mv	a0,s0
   1c628:	00048593          	mv	a1,s1
   1c62c:	e49ff06f          	j	1c474 <__umoddi3+0x13c>
   1c630:	01000737          	lui	a4,0x1000
   1c634:	01000793          	li	a5,16
   1c638:	fae6e6e3          	bltu	a3,a4,1c5e4 <__umoddi3+0x2ac>
   1c63c:	01800793          	li	a5,24
   1c640:	fa5ff06f          	j	1c5e4 <__umoddi3+0x2ac>
   1c644:	014696b3          	sll	a3,a3,s4
   1c648:	01565bb3          	srl	s7,a2,s5
   1c64c:	00dbebb3          	or	s7,s7,a3
   1c650:	0155d9b3          	srl	s3,a1,s5
   1c654:	01555433          	srl	s0,a0,s5
   1c658:	014595b3          	sll	a1,a1,s4
   1c65c:	010bd493          	srli	s1,s7,0x10
   1c660:	00b46433          	or	s0,s0,a1
   1c664:	01451b33          	sll	s6,a0,s4
   1c668:	00048593          	mv	a1,s1
   1c66c:	00098513          	mv	a0,s3
   1c670:	010b9c13          	slli	s8,s7,0x10
   1c674:	01461933          	sll	s2,a2,s4
   1c678:	010c5c13          	srli	s8,s8,0x10
   1c67c:	5f0050ef          	jal	ra,21c6c <__hidden___udivsi3>
   1c680:	00050593          	mv	a1,a0
   1c684:	00050d13          	mv	s10,a0
   1c688:	000c0513          	mv	a0,s8
   1c68c:	5b4050ef          	jal	ra,21c40 <__mulsi3>
   1c690:	00050c93          	mv	s9,a0
   1c694:	00048593          	mv	a1,s1
   1c698:	00098513          	mv	a0,s3
   1c69c:	618050ef          	jal	ra,21cb4 <__umodsi3>
   1c6a0:	01051513          	slli	a0,a0,0x10
   1c6a4:	01045793          	srli	a5,s0,0x10
   1c6a8:	00a7e7b3          	or	a5,a5,a0
   1c6ac:	000d0993          	mv	s3,s10
   1c6b0:	0197fe63          	bgeu	a5,s9,1c6cc <__umoddi3+0x394>
   1c6b4:	00fb87b3          	add	a5,s7,a5
   1c6b8:	fffd0993          	addi	s3,s10,-1
   1c6bc:	0177e863          	bltu	a5,s7,1c6cc <__umoddi3+0x394>
   1c6c0:	0197f663          	bgeu	a5,s9,1c6cc <__umoddi3+0x394>
   1c6c4:	ffed0993          	addi	s3,s10,-2
   1c6c8:	017787b3          	add	a5,a5,s7
   1c6cc:	41978cb3          	sub	s9,a5,s9
   1c6d0:	00048593          	mv	a1,s1
   1c6d4:	000c8513          	mv	a0,s9
   1c6d8:	594050ef          	jal	ra,21c6c <__hidden___udivsi3>
   1c6dc:	00050593          	mv	a1,a0
   1c6e0:	00050d13          	mv	s10,a0
   1c6e4:	000c0513          	mv	a0,s8
   1c6e8:	558050ef          	jal	ra,21c40 <__mulsi3>
   1c6ec:	00048593          	mv	a1,s1
   1c6f0:	00050c13          	mv	s8,a0
   1c6f4:	000c8513          	mv	a0,s9
   1c6f8:	5bc050ef          	jal	ra,21cb4 <__umodsi3>
   1c6fc:	01041593          	slli	a1,s0,0x10
   1c700:	01051513          	slli	a0,a0,0x10
   1c704:	0105d593          	srli	a1,a1,0x10
   1c708:	00a5e5b3          	or	a1,a1,a0
   1c70c:	000d0793          	mv	a5,s10
   1c710:	0185fe63          	bgeu	a1,s8,1c72c <__umoddi3+0x3f4>
   1c714:	00bb85b3          	add	a1,s7,a1
   1c718:	fffd0793          	addi	a5,s10,-1
   1c71c:	0175e863          	bltu	a1,s7,1c72c <__umoddi3+0x3f4>
   1c720:	0185f663          	bgeu	a1,s8,1c72c <__umoddi3+0x3f4>
   1c724:	ffed0793          	addi	a5,s10,-2
   1c728:	017585b3          	add	a1,a1,s7
   1c72c:	00010e37          	lui	t3,0x10
   1c730:	01099993          	slli	s3,s3,0x10
   1c734:	00f9e9b3          	or	s3,s3,a5
   1c738:	fffe0793          	addi	a5,t3,-1 # ffff <exit-0x95>
   1c73c:	00f9f733          	and	a4,s3,a5
   1c740:	00f977b3          	and	a5,s2,a5
   1c744:	418584b3          	sub	s1,a1,s8
   1c748:	0109d993          	srli	s3,s3,0x10
   1c74c:	01095313          	srli	t1,s2,0x10
   1c750:	00070513          	mv	a0,a4
   1c754:	00078593          	mv	a1,a5
   1c758:	4e8050ef          	jal	ra,21c40 <__mulsi3>
   1c75c:	00050813          	mv	a6,a0
   1c760:	00030593          	mv	a1,t1
   1c764:	00070513          	mv	a0,a4
   1c768:	4d8050ef          	jal	ra,21c40 <__mulsi3>
   1c76c:	00050713          	mv	a4,a0
   1c770:	00078593          	mv	a1,a5
   1c774:	00098513          	mv	a0,s3
   1c778:	4c8050ef          	jal	ra,21c40 <__mulsi3>
   1c77c:	00050893          	mv	a7,a0
   1c780:	00030593          	mv	a1,t1
   1c784:	00098513          	mv	a0,s3
   1c788:	4b8050ef          	jal	ra,21c40 <__mulsi3>
   1c78c:	01085793          	srli	a5,a6,0x10
   1c790:	01170733          	add	a4,a4,a7
   1c794:	00e787b3          	add	a5,a5,a4
   1c798:	00050693          	mv	a3,a0
   1c79c:	0117f463          	bgeu	a5,a7,1c7a4 <__umoddi3+0x46c>
   1c7a0:	01c506b3          	add	a3,a0,t3
   1c7a4:	0107d713          	srli	a4,a5,0x10
   1c7a8:	00d70733          	add	a4,a4,a3
   1c7ac:	000106b7          	lui	a3,0x10
   1c7b0:	fff68693          	addi	a3,a3,-1 # ffff <exit-0x95>
   1c7b4:	00d7f7b3          	and	a5,a5,a3
   1c7b8:	01079793          	slli	a5,a5,0x10
   1c7bc:	00d87833          	and	a6,a6,a3
   1c7c0:	010787b3          	add	a5,a5,a6
   1c7c4:	00e4e663          	bltu	s1,a4,1c7d0 <__umoddi3+0x498>
   1c7c8:	00e49e63          	bne	s1,a4,1c7e4 <__umoddi3+0x4ac>
   1c7cc:	00fb7c63          	bgeu	s6,a5,1c7e4 <__umoddi3+0x4ac>
   1c7d0:	41278933          	sub	s2,a5,s2
   1c7d4:	0127b6b3          	sltu	a3,a5,s2
   1c7d8:	017686b3          	add	a3,a3,s7
   1c7dc:	00090793          	mv	a5,s2
   1c7e0:	40d70733          	sub	a4,a4,a3
   1c7e4:	40fb07b3          	sub	a5,s6,a5
   1c7e8:	00fb3b33          	sltu	s6,s6,a5
   1c7ec:	40e485b3          	sub	a1,s1,a4
   1c7f0:	416585b3          	sub	a1,a1,s6
   1c7f4:	01559ab3          	sll	s5,a1,s5
   1c7f8:	0147d7b3          	srl	a5,a5,s4
   1c7fc:	00fae533          	or	a0,s5,a5
   1c800:	0145d5b3          	srl	a1,a1,s4
   1c804:	c71ff06f          	j	1c474 <__umoddi3+0x13c>

0001c808 <__adddf3>:
   1c808:	00100737          	lui	a4,0x100
   1c80c:	fff70713          	addi	a4,a4,-1 # fffff <__BSS_END__+0xdc4fb>
   1c810:	fe010113          	addi	sp,sp,-32
   1c814:	00b777b3          	and	a5,a4,a1
   1c818:	0146d893          	srli	a7,a3,0x14
   1c81c:	00d77733          	and	a4,a4,a3
   1c820:	00812c23          	sw	s0,24(sp)
   1c824:	00912a23          	sw	s1,20(sp)
   1c828:	0145d413          	srli	s0,a1,0x14
   1c82c:	01f5d493          	srli	s1,a1,0x1f
   1c830:	00379593          	slli	a1,a5,0x3
   1c834:	01d55793          	srli	a5,a0,0x1d
   1c838:	7ff47413          	andi	s0,s0,2047
   1c83c:	00b7e7b3          	or	a5,a5,a1
   1c840:	7ff8f893          	andi	a7,a7,2047
   1c844:	00371593          	slli	a1,a4,0x3
   1c848:	00112e23          	sw	ra,28(sp)
   1c84c:	01d65713          	srli	a4,a2,0x1d
   1c850:	01212823          	sw	s2,16(sp)
   1c854:	01312623          	sw	s3,12(sp)
   1c858:	01f6d693          	srli	a3,a3,0x1f
   1c85c:	00b76733          	or	a4,a4,a1
   1c860:	00351513          	slli	a0,a0,0x3
   1c864:	00361613          	slli	a2,a2,0x3
   1c868:	411405b3          	sub	a1,s0,a7
   1c86c:	30d49a63          	bne	s1,a3,1cb80 <__adddf3+0x378>
   1c870:	16b05463          	blez	a1,1c9d8 <__adddf3+0x1d0>
   1c874:	0a089063          	bnez	a7,1c914 <__adddf3+0x10c>
   1c878:	00c766b3          	or	a3,a4,a2
   1c87c:	70068863          	beqz	a3,1cf8c <__adddf3+0x784>
   1c880:	fff58693          	addi	a3,a1,-1
   1c884:	08069063          	bnez	a3,1c904 <__adddf3+0xfc>
   1c888:	00c50633          	add	a2,a0,a2
   1c88c:	00a636b3          	sltu	a3,a2,a0
   1c890:	00e78733          	add	a4,a5,a4
   1c894:	00d707b3          	add	a5,a4,a3
   1c898:	00800737          	lui	a4,0x800
   1c89c:	00e7f733          	and	a4,a5,a4
   1c8a0:	00060513          	mv	a0,a2
   1c8a4:	2a071863          	bnez	a4,1cb54 <__adddf3+0x34c>
   1c8a8:	00100413          	li	s0,1
   1c8ac:	00757713          	andi	a4,a0,7
   1c8b0:	02070063          	beqz	a4,1c8d0 <__adddf3+0xc8>
   1c8b4:	00f57713          	andi	a4,a0,15
   1c8b8:	00400693          	li	a3,4
   1c8bc:	00d70a63          	beq	a4,a3,1c8d0 <__adddf3+0xc8>
   1c8c0:	00450713          	addi	a4,a0,4
   1c8c4:	00a736b3          	sltu	a3,a4,a0
   1c8c8:	00d787b3          	add	a5,a5,a3
   1c8cc:	00070513          	mv	a0,a4
   1c8d0:	008005b7          	lui	a1,0x800
   1c8d4:	00b7f5b3          	and	a1,a5,a1
   1c8d8:	6c058c63          	beqz	a1,1cfb0 <__adddf3+0x7a8>
   1c8dc:	00140413          	addi	s0,s0,1
   1c8e0:	7ff00713          	li	a4,2047
   1c8e4:	0ae40263          	beq	s0,a4,1c988 <__adddf3+0x180>
   1c8e8:	ff800737          	lui	a4,0xff800
   1c8ec:	fff70713          	addi	a4,a4,-1 # ff7fffff <__BSS_END__+0xff7dc4fb>
   1c8f0:	00e7f7b3          	and	a5,a5,a4
   1c8f4:	00355513          	srli	a0,a0,0x3
   1c8f8:	01d79593          	slli	a1,a5,0x1d
   1c8fc:	00a5e5b3          	or	a1,a1,a0
   1c900:	6240006f          	j	1cf24 <__adddf3+0x71c>
   1c904:	7ff00813          	li	a6,2047
   1c908:	09059463          	bne	a1,a6,1c990 <__adddf3+0x188>
   1c90c:	7ff00413          	li	s0,2047
   1c910:	f9dff06f          	j	1c8ac <__adddf3+0xa4>
   1c914:	7ff00693          	li	a3,2047
   1c918:	f8d40ae3          	beq	s0,a3,1c8ac <__adddf3+0xa4>
   1c91c:	03800693          	li	a3,56
   1c920:	06b6cc63          	blt	a3,a1,1c998 <__adddf3+0x190>
   1c924:	008006b7          	lui	a3,0x800
   1c928:	00d76733          	or	a4,a4,a3
   1c92c:	00058693          	mv	a3,a1
   1c930:	01f00593          	li	a1,31
   1c934:	06d5c863          	blt	a1,a3,1c9a4 <__adddf3+0x19c>
   1c938:	02000813          	li	a6,32
   1c93c:	40d80833          	sub	a6,a6,a3
   1c940:	00d658b3          	srl	a7,a2,a3
   1c944:	010715b3          	sll	a1,a4,a6
   1c948:	01061833          	sll	a6,a2,a6
   1c94c:	0115e5b3          	or	a1,a1,a7
   1c950:	01003833          	snez	a6,a6
   1c954:	0105e633          	or	a2,a1,a6
   1c958:	00d756b3          	srl	a3,a4,a3
   1c95c:	00a60533          	add	a0,a2,a0
   1c960:	00f686b3          	add	a3,a3,a5
   1c964:	00c53633          	sltu	a2,a0,a2
   1c968:	00c687b3          	add	a5,a3,a2
   1c96c:	00800737          	lui	a4,0x800
   1c970:	00e7f733          	and	a4,a5,a4
   1c974:	f2070ce3          	beqz	a4,1c8ac <__adddf3+0xa4>
   1c978:	00140413          	addi	s0,s0,1
   1c97c:	7ff00713          	li	a4,2047
   1c980:	1ce41c63          	bne	s0,a4,1cb58 <__adddf3+0x350>
   1c984:	7ff00413          	li	s0,2047
   1c988:	00000793          	li	a5,0
   1c98c:	1900006f          	j	1cb1c <__adddf3+0x314>
   1c990:	03800593          	li	a1,56
   1c994:	f8d5dee3          	bge	a1,a3,1c930 <__adddf3+0x128>
   1c998:	00000693          	li	a3,0
   1c99c:	00100613          	li	a2,1
   1c9a0:	fbdff06f          	j	1c95c <__adddf3+0x154>
   1c9a4:	fe068593          	addi	a1,a3,-32 # 7fffe0 <__BSS_END__+0x7dc4dc>
   1c9a8:	02000893          	li	a7,32
   1c9ac:	00b755b3          	srl	a1,a4,a1
   1c9b0:	00000813          	li	a6,0
   1c9b4:	01168863          	beq	a3,a7,1c9c4 <__adddf3+0x1bc>
   1c9b8:	04000813          	li	a6,64
   1c9bc:	40d80833          	sub	a6,a6,a3
   1c9c0:	01071833          	sll	a6,a4,a6
   1c9c4:	00c86833          	or	a6,a6,a2
   1c9c8:	01003833          	snez	a6,a6
   1c9cc:	0105e633          	or	a2,a1,a6
   1c9d0:	00000693          	li	a3,0
   1c9d4:	f89ff06f          	j	1c95c <__adddf3+0x154>
   1c9d8:	0c058e63          	beqz	a1,1cab4 <__adddf3+0x2ac>
   1c9dc:	408885b3          	sub	a1,a7,s0
   1c9e0:	02041463          	bnez	s0,1ca08 <__adddf3+0x200>
   1c9e4:	00a7e6b3          	or	a3,a5,a0
   1c9e8:	58068e63          	beqz	a3,1cf84 <__adddf3+0x77c>
   1c9ec:	fff58693          	addi	a3,a1,-1 # 7fffff <__BSS_END__+0x7dc4fb>
   1c9f0:	e8068ce3          	beqz	a3,1c888 <__adddf3+0x80>
   1c9f4:	7ff00813          	li	a6,2047
   1c9f8:	07059a63          	bne	a1,a6,1ca6c <__adddf3+0x264>
   1c9fc:	00070793          	mv	a5,a4
   1ca00:	00060513          	mv	a0,a2
   1ca04:	f09ff06f          	j	1c90c <__adddf3+0x104>
   1ca08:	7ff00693          	li	a3,2047
   1ca0c:	fed888e3          	beq	a7,a3,1c9fc <__adddf3+0x1f4>
   1ca10:	03800693          	li	a3,56
   1ca14:	06b6c063          	blt	a3,a1,1ca74 <__adddf3+0x26c>
   1ca18:	008006b7          	lui	a3,0x800
   1ca1c:	00d7e7b3          	or	a5,a5,a3
   1ca20:	00058693          	mv	a3,a1
   1ca24:	01f00593          	li	a1,31
   1ca28:	04d5cc63          	blt	a1,a3,1ca80 <__adddf3+0x278>
   1ca2c:	02000813          	li	a6,32
   1ca30:	40d80833          	sub	a6,a6,a3
   1ca34:	010795b3          	sll	a1,a5,a6
   1ca38:	00d55333          	srl	t1,a0,a3
   1ca3c:	01051833          	sll	a6,a0,a6
   1ca40:	0065e5b3          	or	a1,a1,t1
   1ca44:	01003833          	snez	a6,a6
   1ca48:	0105e5b3          	or	a1,a1,a6
   1ca4c:	00d7d6b3          	srl	a3,a5,a3
   1ca50:	00c58633          	add	a2,a1,a2
   1ca54:	00e686b3          	add	a3,a3,a4
   1ca58:	00b635b3          	sltu	a1,a2,a1
   1ca5c:	00060513          	mv	a0,a2
   1ca60:	00b687b3          	add	a5,a3,a1
   1ca64:	00088413          	mv	s0,a7
   1ca68:	f05ff06f          	j	1c96c <__adddf3+0x164>
   1ca6c:	03800593          	li	a1,56
   1ca70:	fad5dae3          	bge	a1,a3,1ca24 <__adddf3+0x21c>
   1ca74:	00000693          	li	a3,0
   1ca78:	00100593          	li	a1,1
   1ca7c:	fd5ff06f          	j	1ca50 <__adddf3+0x248>
   1ca80:	fe068593          	addi	a1,a3,-32 # 7fffe0 <__BSS_END__+0x7dc4dc>
   1ca84:	02000313          	li	t1,32
   1ca88:	00b7d5b3          	srl	a1,a5,a1
   1ca8c:	00000813          	li	a6,0
   1ca90:	00668863          	beq	a3,t1,1caa0 <__adddf3+0x298>
   1ca94:	04000813          	li	a6,64
   1ca98:	40d80833          	sub	a6,a6,a3
   1ca9c:	01079833          	sll	a6,a5,a6
   1caa0:	00a86833          	or	a6,a6,a0
   1caa4:	01003833          	snez	a6,a6
   1caa8:	0105e5b3          	or	a1,a1,a6
   1caac:	00000693          	li	a3,0
   1cab0:	fa1ff06f          	j	1ca50 <__adddf3+0x248>
   1cab4:	00140693          	addi	a3,s0,1
   1cab8:	7fe6f593          	andi	a1,a3,2046
   1cabc:	06059463          	bnez	a1,1cb24 <__adddf3+0x31c>
   1cac0:	00a7e6b3          	or	a3,a5,a0
   1cac4:	04041063          	bnez	s0,1cb04 <__adddf3+0x2fc>
   1cac8:	4c068663          	beqz	a3,1cf94 <__adddf3+0x78c>
   1cacc:	00c766b3          	or	a3,a4,a2
   1cad0:	dc068ee3          	beqz	a3,1c8ac <__adddf3+0xa4>
   1cad4:	00c50633          	add	a2,a0,a2
   1cad8:	00a636b3          	sltu	a3,a2,a0
   1cadc:	00e78733          	add	a4,a5,a4
   1cae0:	00d707b3          	add	a5,a4,a3
   1cae4:	00800737          	lui	a4,0x800
   1cae8:	00e7f733          	and	a4,a5,a4
   1caec:	00060513          	mv	a0,a2
   1caf0:	da070ee3          	beqz	a4,1c8ac <__adddf3+0xa4>
   1caf4:	ff800737          	lui	a4,0xff800
   1caf8:	fff70713          	addi	a4,a4,-1 # ff7fffff <__BSS_END__+0xff7dc4fb>
   1cafc:	00e7f7b3          	and	a5,a5,a4
   1cb00:	da9ff06f          	j	1c8a8 <__adddf3+0xa0>
   1cb04:	ee068ce3          	beqz	a3,1c9fc <__adddf3+0x1f4>
   1cb08:	00c76633          	or	a2,a4,a2
   1cb0c:	e00600e3          	beqz	a2,1c90c <__adddf3+0x104>
   1cb10:	00000493          	li	s1,0
   1cb14:	7ff00413          	li	s0,2047
   1cb18:	000807b7          	lui	a5,0x80
   1cb1c:	00000593          	li	a1,0
   1cb20:	4080006f          	j	1cf28 <__adddf3+0x720>
   1cb24:	7ff00593          	li	a1,2047
   1cb28:	e4b68ee3          	beq	a3,a1,1c984 <__adddf3+0x17c>
   1cb2c:	00c50633          	add	a2,a0,a2
   1cb30:	00a63533          	sltu	a0,a2,a0
   1cb34:	00e78733          	add	a4,a5,a4
   1cb38:	00a70733          	add	a4,a4,a0
   1cb3c:	01f71513          	slli	a0,a4,0x1f
   1cb40:	00165613          	srli	a2,a2,0x1
   1cb44:	00c56533          	or	a0,a0,a2
   1cb48:	00175793          	srli	a5,a4,0x1
   1cb4c:	00068413          	mv	s0,a3
   1cb50:	d5dff06f          	j	1c8ac <__adddf3+0xa4>
   1cb54:	00200413          	li	s0,2
   1cb58:	ff800737          	lui	a4,0xff800
   1cb5c:	fff70713          	addi	a4,a4,-1 # ff7fffff <__BSS_END__+0xff7dc4fb>
   1cb60:	00e7f7b3          	and	a5,a5,a4
   1cb64:	00155713          	srli	a4,a0,0x1
   1cb68:	00157513          	andi	a0,a0,1
   1cb6c:	00a76733          	or	a4,a4,a0
   1cb70:	01f79513          	slli	a0,a5,0x1f
   1cb74:	00e56533          	or	a0,a0,a4
   1cb78:	0017d793          	srli	a5,a5,0x1
   1cb7c:	d31ff06f          	j	1c8ac <__adddf3+0xa4>
   1cb80:	0eb05e63          	blez	a1,1cc7c <__adddf3+0x474>
   1cb84:	04089663          	bnez	a7,1cbd0 <__adddf3+0x3c8>
   1cb88:	00c766b3          	or	a3,a4,a2
   1cb8c:	40068063          	beqz	a3,1cf8c <__adddf3+0x784>
   1cb90:	fff58693          	addi	a3,a1,-1
   1cb94:	02069063          	bnez	a3,1cbb4 <__adddf3+0x3ac>
   1cb98:	40c50633          	sub	a2,a0,a2
   1cb9c:	00c536b3          	sltu	a3,a0,a2
   1cba0:	40e78733          	sub	a4,a5,a4
   1cba4:	00060513          	mv	a0,a2
   1cba8:	40d707b3          	sub	a5,a4,a3
   1cbac:	00100413          	li	s0,1
   1cbb0:	07c0006f          	j	1cc2c <__adddf3+0x424>
   1cbb4:	7ff00813          	li	a6,2047
   1cbb8:	d5058ae3          	beq	a1,a6,1c90c <__adddf3+0x104>
   1cbbc:	03800593          	li	a1,56
   1cbc0:	02d5d663          	bge	a1,a3,1cbec <__adddf3+0x3e4>
   1cbc4:	00000693          	li	a3,0
   1cbc8:	00100613          	li	a2,1
   1cbcc:	04c0006f          	j	1cc18 <__adddf3+0x410>
   1cbd0:	7ff00693          	li	a3,2047
   1cbd4:	ccd40ce3          	beq	s0,a3,1c8ac <__adddf3+0xa4>
   1cbd8:	03800693          	li	a3,56
   1cbdc:	feb6c4e3          	blt	a3,a1,1cbc4 <__adddf3+0x3bc>
   1cbe0:	008006b7          	lui	a3,0x800
   1cbe4:	00d76733          	or	a4,a4,a3
   1cbe8:	00058693          	mv	a3,a1
   1cbec:	01f00593          	li	a1,31
   1cbf0:	04d5cc63          	blt	a1,a3,1cc48 <__adddf3+0x440>
   1cbf4:	02000813          	li	a6,32
   1cbf8:	40d80833          	sub	a6,a6,a3
   1cbfc:	00d658b3          	srl	a7,a2,a3
   1cc00:	010715b3          	sll	a1,a4,a6
   1cc04:	01061833          	sll	a6,a2,a6
   1cc08:	0115e5b3          	or	a1,a1,a7
   1cc0c:	01003833          	snez	a6,a6
   1cc10:	0105e633          	or	a2,a1,a6
   1cc14:	00d756b3          	srl	a3,a4,a3
   1cc18:	40c50633          	sub	a2,a0,a2
   1cc1c:	00c53733          	sltu	a4,a0,a2
   1cc20:	40d786b3          	sub	a3,a5,a3
   1cc24:	00060513          	mv	a0,a2
   1cc28:	40e687b3          	sub	a5,a3,a4
   1cc2c:	00800737          	lui	a4,0x800
   1cc30:	00e7f6b3          	and	a3,a5,a4
   1cc34:	c6068ce3          	beqz	a3,1c8ac <__adddf3+0xa4>
   1cc38:	fff70713          	addi	a4,a4,-1 # 7fffff <__BSS_END__+0x7dc4fb>
   1cc3c:	00e7f9b3          	and	s3,a5,a4
   1cc40:	00050913          	mv	s2,a0
   1cc44:	1fc0006f          	j	1ce40 <__adddf3+0x638>
   1cc48:	fe068593          	addi	a1,a3,-32 # 7fffe0 <__BSS_END__+0x7dc4dc>
   1cc4c:	02000893          	li	a7,32
   1cc50:	00b755b3          	srl	a1,a4,a1
   1cc54:	00000813          	li	a6,0
   1cc58:	01168863          	beq	a3,a7,1cc68 <__adddf3+0x460>
   1cc5c:	04000813          	li	a6,64
   1cc60:	40d80833          	sub	a6,a6,a3
   1cc64:	01071833          	sll	a6,a4,a6
   1cc68:	00c86833          	or	a6,a6,a2
   1cc6c:	01003833          	snez	a6,a6
   1cc70:	0105e633          	or	a2,a1,a6
   1cc74:	00000693          	li	a3,0
   1cc78:	fa1ff06f          	j	1cc18 <__adddf3+0x410>
   1cc7c:	0e058c63          	beqz	a1,1cd74 <__adddf3+0x56c>
   1cc80:	40888833          	sub	a6,a7,s0
   1cc84:	04041263          	bnez	s0,1ccc8 <__adddf3+0x4c0>
   1cc88:	00a7e5b3          	or	a1,a5,a0
   1cc8c:	30058a63          	beqz	a1,1cfa0 <__adddf3+0x798>
   1cc90:	fff80593          	addi	a1,a6,-1
   1cc94:	00059e63          	bnez	a1,1ccb0 <__adddf3+0x4a8>
   1cc98:	40a60533          	sub	a0,a2,a0
   1cc9c:	40f70733          	sub	a4,a4,a5
   1cca0:	00a63633          	sltu	a2,a2,a0
   1cca4:	40c707b3          	sub	a5,a4,a2
   1cca8:	00068493          	mv	s1,a3
   1ccac:	f01ff06f          	j	1cbac <__adddf3+0x3a4>
   1ccb0:	7ff00313          	li	t1,2047
   1ccb4:	06681c63          	bne	a6,t1,1cd2c <__adddf3+0x524>
   1ccb8:	00070793          	mv	a5,a4
   1ccbc:	00060513          	mv	a0,a2
   1ccc0:	7ff00413          	li	s0,2047
   1ccc4:	0d80006f          	j	1cd9c <__adddf3+0x594>
   1ccc8:	7ff00593          	li	a1,2047
   1cccc:	feb886e3          	beq	a7,a1,1ccb8 <__adddf3+0x4b0>
   1ccd0:	03800593          	li	a1,56
   1ccd4:	0705c063          	blt	a1,a6,1cd34 <__adddf3+0x52c>
   1ccd8:	008005b7          	lui	a1,0x800
   1ccdc:	00b7e7b3          	or	a5,a5,a1
   1cce0:	00080593          	mv	a1,a6
   1cce4:	01f00813          	li	a6,31
   1cce8:	04b84c63          	blt	a6,a1,1cd40 <__adddf3+0x538>
   1ccec:	02000313          	li	t1,32
   1ccf0:	40b30333          	sub	t1,t1,a1
   1ccf4:	00b55e33          	srl	t3,a0,a1
   1ccf8:	00679833          	sll	a6,a5,t1
   1ccfc:	00651333          	sll	t1,a0,t1
   1cd00:	01c86833          	or	a6,a6,t3
   1cd04:	00603333          	snez	t1,t1
   1cd08:	00686533          	or	a0,a6,t1
   1cd0c:	00b7d5b3          	srl	a1,a5,a1
   1cd10:	40a60533          	sub	a0,a2,a0
   1cd14:	40b705b3          	sub	a1,a4,a1
   1cd18:	00a63633          	sltu	a2,a2,a0
   1cd1c:	40c587b3          	sub	a5,a1,a2
   1cd20:	00088413          	mv	s0,a7
   1cd24:	00068493          	mv	s1,a3
   1cd28:	f05ff06f          	j	1cc2c <__adddf3+0x424>
   1cd2c:	03800813          	li	a6,56
   1cd30:	fab85ae3          	bge	a6,a1,1cce4 <__adddf3+0x4dc>
   1cd34:	00000593          	li	a1,0
   1cd38:	00100513          	li	a0,1
   1cd3c:	fd5ff06f          	j	1cd10 <__adddf3+0x508>
   1cd40:	fe058813          	addi	a6,a1,-32 # 7fffe0 <__BSS_END__+0x7dc4dc>
   1cd44:	02000e13          	li	t3,32
   1cd48:	0107d833          	srl	a6,a5,a6
   1cd4c:	00000313          	li	t1,0
   1cd50:	01c58863          	beq	a1,t3,1cd60 <__adddf3+0x558>
   1cd54:	04000313          	li	t1,64
   1cd58:	40b30333          	sub	t1,t1,a1
   1cd5c:	00679333          	sll	t1,a5,t1
   1cd60:	00a36333          	or	t1,t1,a0
   1cd64:	00603333          	snez	t1,t1
   1cd68:	00686533          	or	a0,a6,t1
   1cd6c:	00000593          	li	a1,0
   1cd70:	fa1ff06f          	j	1cd10 <__adddf3+0x508>
   1cd74:	00140593          	addi	a1,s0,1
   1cd78:	7fe5f593          	andi	a1,a1,2046
   1cd7c:	08059863          	bnez	a1,1ce0c <__adddf3+0x604>
   1cd80:	00a7e833          	or	a6,a5,a0
   1cd84:	00c765b3          	or	a1,a4,a2
   1cd88:	06041263          	bnez	s0,1cdec <__adddf3+0x5e4>
   1cd8c:	00081c63          	bnez	a6,1cda4 <__adddf3+0x59c>
   1cd90:	10058e63          	beqz	a1,1ceac <__adddf3+0x6a4>
   1cd94:	00070793          	mv	a5,a4
   1cd98:	00060513          	mv	a0,a2
   1cd9c:	00068493          	mv	s1,a3
   1cda0:	b0dff06f          	j	1c8ac <__adddf3+0xa4>
   1cda4:	b00584e3          	beqz	a1,1c8ac <__adddf3+0xa4>
   1cda8:	40c508b3          	sub	a7,a0,a2
   1cdac:	011535b3          	sltu	a1,a0,a7
   1cdb0:	40e78833          	sub	a6,a5,a4
   1cdb4:	40b80833          	sub	a6,a6,a1
   1cdb8:	008005b7          	lui	a1,0x800
   1cdbc:	00b875b3          	and	a1,a6,a1
   1cdc0:	00058c63          	beqz	a1,1cdd8 <__adddf3+0x5d0>
   1cdc4:	40a60533          	sub	a0,a2,a0
   1cdc8:	40f70733          	sub	a4,a4,a5
   1cdcc:	00a63633          	sltu	a2,a2,a0
   1cdd0:	40c707b3          	sub	a5,a4,a2
   1cdd4:	fc9ff06f          	j	1cd9c <__adddf3+0x594>
   1cdd8:	0108e5b3          	or	a1,a7,a6
   1cddc:	0c058863          	beqz	a1,1ceac <__adddf3+0x6a4>
   1cde0:	00080793          	mv	a5,a6
   1cde4:	00088513          	mv	a0,a7
   1cde8:	ac5ff06f          	j	1c8ac <__adddf3+0xa4>
   1cdec:	00081c63          	bnez	a6,1ce04 <__adddf3+0x5fc>
   1cdf0:	1e058663          	beqz	a1,1cfdc <__adddf3+0x7d4>
   1cdf4:	00070793          	mv	a5,a4
   1cdf8:	00060513          	mv	a0,a2
   1cdfc:	00068493          	mv	s1,a3
   1ce00:	b0dff06f          	j	1c90c <__adddf3+0x104>
   1ce04:	b00584e3          	beqz	a1,1c90c <__adddf3+0x104>
   1ce08:	d09ff06f          	j	1cb10 <__adddf3+0x308>
   1ce0c:	40c505b3          	sub	a1,a0,a2
   1ce10:	00b53833          	sltu	a6,a0,a1
   1ce14:	40e789b3          	sub	s3,a5,a4
   1ce18:	410989b3          	sub	s3,s3,a6
   1ce1c:	00800837          	lui	a6,0x800
   1ce20:	0109f833          	and	a6,s3,a6
   1ce24:	00058913          	mv	s2,a1
   1ce28:	06080c63          	beqz	a6,1cea0 <__adddf3+0x698>
   1ce2c:	40a60933          	sub	s2,a2,a0
   1ce30:	40f70733          	sub	a4,a4,a5
   1ce34:	01263633          	sltu	a2,a2,s2
   1ce38:	40c709b3          	sub	s3,a4,a2
   1ce3c:	00068493          	mv	s1,a3
   1ce40:	06098a63          	beqz	s3,1ceb4 <__adddf3+0x6ac>
   1ce44:	00098513          	mv	a0,s3
   1ce48:	6d1040ef          	jal	ra,21d18 <__clzsi2>
   1ce4c:	ff850793          	addi	a5,a0,-8
   1ce50:	02000693          	li	a3,32
   1ce54:	40f686b3          	sub	a3,a3,a5
   1ce58:	00f99733          	sll	a4,s3,a5
   1ce5c:	00d956b3          	srl	a3,s2,a3
   1ce60:	00e6e6b3          	or	a3,a3,a4
   1ce64:	00f919b3          	sll	s3,s2,a5
   1ce68:	1087c263          	blt	a5,s0,1cf6c <__adddf3+0x764>
   1ce6c:	408787b3          	sub	a5,a5,s0
   1ce70:	00178793          	addi	a5,a5,1 # 80001 <__BSS_END__+0x5c4fd>
   1ce74:	02000713          	li	a4,32
   1ce78:	40f70733          	sub	a4,a4,a5
   1ce7c:	00e69533          	sll	a0,a3,a4
   1ce80:	00f9d633          	srl	a2,s3,a5
   1ce84:	00e99733          	sll	a4,s3,a4
   1ce88:	00c56533          	or	a0,a0,a2
   1ce8c:	00e03733          	snez	a4,a4
   1ce90:	00e56533          	or	a0,a0,a4
   1ce94:	00f6d7b3          	srl	a5,a3,a5
   1ce98:	00000413          	li	s0,0
   1ce9c:	a11ff06f          	j	1c8ac <__adddf3+0xa4>
   1cea0:	0135e5b3          	or	a1,a1,s3
   1cea4:	f8059ee3          	bnez	a1,1ce40 <__adddf3+0x638>
   1cea8:	00000413          	li	s0,0
   1ceac:	00000793          	li	a5,0
   1ceb0:	1240006f          	j	1cfd4 <__adddf3+0x7cc>
   1ceb4:	00090513          	mv	a0,s2
   1ceb8:	661040ef          	jal	ra,21d18 <__clzsi2>
   1cebc:	01850793          	addi	a5,a0,24
   1cec0:	01f00713          	li	a4,31
   1cec4:	f8f756e3          	bge	a4,a5,1ce50 <__adddf3+0x648>
   1cec8:	ff850513          	addi	a0,a0,-8
   1cecc:	00a916b3          	sll	a3,s2,a0
   1ced0:	0487c063          	blt	a5,s0,1cf10 <__adddf3+0x708>
   1ced4:	40878533          	sub	a0,a5,s0
   1ced8:	00150793          	addi	a5,a0,1
   1cedc:	f8f75ce3          	bge	a4,a5,1ce74 <__adddf3+0x66c>
   1cee0:	fe150513          	addi	a0,a0,-31
   1cee4:	02000613          	li	a2,32
   1cee8:	00a6d733          	srl	a4,a3,a0
   1ceec:	00000513          	li	a0,0
   1cef0:	00c78863          	beq	a5,a2,1cf00 <__adddf3+0x6f8>
   1cef4:	04000513          	li	a0,64
   1cef8:	40f50533          	sub	a0,a0,a5
   1cefc:	00a69533          	sll	a0,a3,a0
   1cf00:	00a03533          	snez	a0,a0
   1cf04:	00e56533          	or	a0,a0,a4
   1cf08:	00000793          	li	a5,0
   1cf0c:	f8dff06f          	j	1ce98 <__adddf3+0x690>
   1cf10:	40f40433          	sub	s0,s0,a5
   1cf14:	ff8007b7          	lui	a5,0xff800
   1cf18:	fff78793          	addi	a5,a5,-1 # ff7fffff <__BSS_END__+0xff7dc4fb>
   1cf1c:	00f6f7b3          	and	a5,a3,a5
   1cf20:	01d79593          	slli	a1,a5,0x1d
   1cf24:	0037d793          	srli	a5,a5,0x3
   1cf28:	01441413          	slli	s0,s0,0x14
   1cf2c:	7ff00737          	lui	a4,0x7ff00
   1cf30:	00c79793          	slli	a5,a5,0xc
   1cf34:	00c7d793          	srli	a5,a5,0xc
   1cf38:	00e47433          	and	s0,s0,a4
   1cf3c:	00f46433          	or	s0,s0,a5
   1cf40:	01f49493          	slli	s1,s1,0x1f
   1cf44:	009467b3          	or	a5,s0,s1
   1cf48:	01c12083          	lw	ra,28(sp)
   1cf4c:	01812403          	lw	s0,24(sp)
   1cf50:	01412483          	lw	s1,20(sp)
   1cf54:	01012903          	lw	s2,16(sp)
   1cf58:	00c12983          	lw	s3,12(sp)
   1cf5c:	00058513          	mv	a0,a1
   1cf60:	00078593          	mv	a1,a5
   1cf64:	02010113          	addi	sp,sp,32
   1cf68:	00008067          	ret
   1cf6c:	40f40433          	sub	s0,s0,a5
   1cf70:	ff8007b7          	lui	a5,0xff800
   1cf74:	fff78793          	addi	a5,a5,-1 # ff7fffff <__BSS_END__+0xff7dc4fb>
   1cf78:	00f6f7b3          	and	a5,a3,a5
   1cf7c:	00098513          	mv	a0,s3
   1cf80:	92dff06f          	j	1c8ac <__adddf3+0xa4>
   1cf84:	00070793          	mv	a5,a4
   1cf88:	00060513          	mv	a0,a2
   1cf8c:	00058413          	mv	s0,a1
   1cf90:	91dff06f          	j	1c8ac <__adddf3+0xa4>
   1cf94:	00070793          	mv	a5,a4
   1cf98:	00060513          	mv	a0,a2
   1cf9c:	911ff06f          	j	1c8ac <__adddf3+0xa4>
   1cfa0:	00070793          	mv	a5,a4
   1cfa4:	00060513          	mv	a0,a2
   1cfa8:	00080413          	mv	s0,a6
   1cfac:	df1ff06f          	j	1cd9c <__adddf3+0x594>
   1cfb0:	01d79713          	slli	a4,a5,0x1d
   1cfb4:	00355513          	srli	a0,a0,0x3
   1cfb8:	7ff00693          	li	a3,2047
   1cfbc:	00a76733          	or	a4,a4,a0
   1cfc0:	0037d793          	srli	a5,a5,0x3
   1cfc4:	02d41463          	bne	s0,a3,1cfec <__adddf3+0x7e4>
   1cfc8:	00f76733          	or	a4,a4,a5
   1cfcc:	000807b7          	lui	a5,0x80
   1cfd0:	9a070ae3          	beqz	a4,1c984 <__adddf3+0x17c>
   1cfd4:	00000493          	li	s1,0
   1cfd8:	f51ff06f          	j	1cf28 <__adddf3+0x720>
   1cfdc:	00000493          	li	s1,0
   1cfe0:	7ff00413          	li	s0,2047
   1cfe4:	000807b7          	lui	a5,0x80
   1cfe8:	f41ff06f          	j	1cf28 <__adddf3+0x720>
   1cfec:	00070593          	mv	a1,a4
   1cff0:	f39ff06f          	j	1cf28 <__adddf3+0x720>

0001cff4 <__divdf3>:
   1cff4:	fb010113          	addi	sp,sp,-80
   1cff8:	05212023          	sw	s2,64(sp)
   1cffc:	0145d913          	srli	s2,a1,0x14
   1d000:	04812423          	sw	s0,72(sp)
   1d004:	03312e23          	sw	s3,60(sp)
   1d008:	03412c23          	sw	s4,56(sp)
   1d00c:	03512a23          	sw	s5,52(sp)
   1d010:	03812423          	sw	s8,40(sp)
   1d014:	00c59413          	slli	s0,a1,0xc
   1d018:	04112623          	sw	ra,76(sp)
   1d01c:	04912223          	sw	s1,68(sp)
   1d020:	03612823          	sw	s6,48(sp)
   1d024:	03712623          	sw	s7,44(sp)
   1d028:	03912223          	sw	s9,36(sp)
   1d02c:	03a12023          	sw	s10,32(sp)
   1d030:	01b12e23          	sw	s11,28(sp)
   1d034:	7ff97913          	andi	s2,s2,2047
   1d038:	00050993          	mv	s3,a0
   1d03c:	00060c13          	mv	s8,a2
   1d040:	00068a13          	mv	s4,a3
   1d044:	00c45413          	srli	s0,s0,0xc
   1d048:	01f5da93          	srli	s5,a1,0x1f
   1d04c:	0a090263          	beqz	s2,1d0f0 <__divdf3+0xfc>
   1d050:	7ff00793          	li	a5,2047
   1d054:	10f90263          	beq	s2,a5,1d158 <__divdf3+0x164>
   1d058:	01d55b13          	srli	s6,a0,0x1d
   1d05c:	00341413          	slli	s0,s0,0x3
   1d060:	008b6b33          	or	s6,s6,s0
   1d064:	008007b7          	lui	a5,0x800
   1d068:	00fb6b33          	or	s6,s6,a5
   1d06c:	00351493          	slli	s1,a0,0x3
   1d070:	c0190913          	addi	s2,s2,-1023
   1d074:	00000b93          	li	s7,0
   1d078:	014a5713          	srli	a4,s4,0x14
   1d07c:	00ca1413          	slli	s0,s4,0xc
   1d080:	7ff77713          	andi	a4,a4,2047
   1d084:	00c45413          	srli	s0,s0,0xc
   1d088:	01fa5a13          	srli	s4,s4,0x1f
   1d08c:	10070463          	beqz	a4,1d194 <__divdf3+0x1a0>
   1d090:	7ff00793          	li	a5,2047
   1d094:	16f70863          	beq	a4,a5,1d204 <__divdf3+0x210>
   1d098:	00341413          	slli	s0,s0,0x3
   1d09c:	01dc5793          	srli	a5,s8,0x1d
   1d0a0:	0087e7b3          	or	a5,a5,s0
   1d0a4:	00800437          	lui	s0,0x800
   1d0a8:	0087e433          	or	s0,a5,s0
   1d0ac:	003c1693          	slli	a3,s8,0x3
   1d0b0:	c0170713          	addi	a4,a4,-1023 # 7feffc01 <__BSS_END__+0x7fedc0fd>
   1d0b4:	00000613          	li	a2,0
   1d0b8:	002b9793          	slli	a5,s7,0x2
   1d0bc:	00c7e7b3          	or	a5,a5,a2
   1d0c0:	40e90933          	sub	s2,s2,a4
   1d0c4:	fff78793          	addi	a5,a5,-1 # 7fffff <__BSS_END__+0x7dc4fb>
   1d0c8:	00e00713          	li	a4,14
   1d0cc:	014ac9b3          	xor	s3,s5,s4
   1d0d0:	18f76e63          	bltu	a4,a5,1d26c <__divdf3+0x278>
   1d0d4:	00005717          	auipc	a4,0x5
   1d0d8:	50870713          	addi	a4,a4,1288 # 225dc <_ctype_+0x144>
   1d0dc:	00279793          	slli	a5,a5,0x2
   1d0e0:	00e787b3          	add	a5,a5,a4
   1d0e4:	0007a783          	lw	a5,0(a5)
   1d0e8:	00e787b3          	add	a5,a5,a4
   1d0ec:	00078067          	jr	a5
   1d0f0:	00a46b33          	or	s6,s0,a0
   1d0f4:	080b0063          	beqz	s6,1d174 <__divdf3+0x180>
   1d0f8:	02040e63          	beqz	s0,1d134 <__divdf3+0x140>
   1d0fc:	00040513          	mv	a0,s0
   1d100:	419040ef          	jal	ra,21d18 <__clzsi2>
   1d104:	ff550793          	addi	a5,a0,-11
   1d108:	01d00b13          	li	s6,29
   1d10c:	ff850713          	addi	a4,a0,-8
   1d110:	40fb0b33          	sub	s6,s6,a5
   1d114:	00e41433          	sll	s0,s0,a4
   1d118:	0169db33          	srl	s6,s3,s6
   1d11c:	008b6b33          	or	s6,s6,s0
   1d120:	00e99433          	sll	s0,s3,a4
   1d124:	c0d00913          	li	s2,-1011
   1d128:	40a90933          	sub	s2,s2,a0
   1d12c:	00040493          	mv	s1,s0
   1d130:	f45ff06f          	j	1d074 <__divdf3+0x80>
   1d134:	3e5040ef          	jal	ra,21d18 <__clzsi2>
   1d138:	00050b13          	mv	s6,a0
   1d13c:	015b0793          	addi	a5,s6,21
   1d140:	01c00713          	li	a4,28
   1d144:	02050513          	addi	a0,a0,32
   1d148:	fcf750e3          	bge	a4,a5,1d108 <__divdf3+0x114>
   1d14c:	ff8b0b13          	addi	s6,s6,-8
   1d150:	01699b33          	sll	s6,s3,s6
   1d154:	fd1ff06f          	j	1d124 <__divdf3+0x130>
   1d158:	00a46b33          	or	s6,s0,a0
   1d15c:	020b0463          	beqz	s6,1d184 <__divdf3+0x190>
   1d160:	00050493          	mv	s1,a0
   1d164:	00040b13          	mv	s6,s0
   1d168:	7ff00913          	li	s2,2047
   1d16c:	00300b93          	li	s7,3
   1d170:	f09ff06f          	j	1d078 <__divdf3+0x84>
   1d174:	00000493          	li	s1,0
   1d178:	00000913          	li	s2,0
   1d17c:	00100b93          	li	s7,1
   1d180:	ef9ff06f          	j	1d078 <__divdf3+0x84>
   1d184:	00000493          	li	s1,0
   1d188:	7ff00913          	li	s2,2047
   1d18c:	00200b93          	li	s7,2
   1d190:	ee9ff06f          	j	1d078 <__divdf3+0x84>
   1d194:	018466b3          	or	a3,s0,s8
   1d198:	08068263          	beqz	a3,1d21c <__divdf3+0x228>
   1d19c:	04040063          	beqz	s0,1d1dc <__divdf3+0x1e8>
   1d1a0:	00040513          	mv	a0,s0
   1d1a4:	375040ef          	jal	ra,21d18 <__clzsi2>
   1d1a8:	ff550713          	addi	a4,a0,-11
   1d1ac:	01d00793          	li	a5,29
   1d1b0:	ff850693          	addi	a3,a0,-8
   1d1b4:	40e787b3          	sub	a5,a5,a4
   1d1b8:	00d41433          	sll	s0,s0,a3
   1d1bc:	00fc57b3          	srl	a5,s8,a5
   1d1c0:	0087e7b3          	or	a5,a5,s0
   1d1c4:	00dc1433          	sll	s0,s8,a3
   1d1c8:	c0d00713          	li	a4,-1011
   1d1cc:	00040693          	mv	a3,s0
   1d1d0:	40a70733          	sub	a4,a4,a0
   1d1d4:	00078413          	mv	s0,a5
   1d1d8:	eddff06f          	j	1d0b4 <__divdf3+0xc0>
   1d1dc:	000c0513          	mv	a0,s8
   1d1e0:	339040ef          	jal	ra,21d18 <__clzsi2>
   1d1e4:	00050793          	mv	a5,a0
   1d1e8:	01578713          	addi	a4,a5,21
   1d1ec:	01c00693          	li	a3,28
   1d1f0:	02050513          	addi	a0,a0,32
   1d1f4:	fae6dce3          	bge	a3,a4,1d1ac <__divdf3+0x1b8>
   1d1f8:	ff878793          	addi	a5,a5,-8
   1d1fc:	00fc17b3          	sll	a5,s8,a5
   1d200:	fc9ff06f          	j	1d1c8 <__divdf3+0x1d4>
   1d204:	018466b3          	or	a3,s0,s8
   1d208:	02068263          	beqz	a3,1d22c <__divdf3+0x238>
   1d20c:	000c0693          	mv	a3,s8
   1d210:	7ff00713          	li	a4,2047
   1d214:	00300613          	li	a2,3
   1d218:	ea1ff06f          	j	1d0b8 <__divdf3+0xc4>
   1d21c:	00000413          	li	s0,0
   1d220:	00000713          	li	a4,0
   1d224:	00100613          	li	a2,1
   1d228:	e91ff06f          	j	1d0b8 <__divdf3+0xc4>
   1d22c:	00000413          	li	s0,0
   1d230:	7ff00713          	li	a4,2047
   1d234:	00200613          	li	a2,2
   1d238:	e81ff06f          	j	1d0b8 <__divdf3+0xc4>
   1d23c:	000a8993          	mv	s3,s5
   1d240:	000b0413          	mv	s0,s6
   1d244:	00048693          	mv	a3,s1
   1d248:	00200793          	li	a5,2
   1d24c:	54fb8c63          	beq	s7,a5,1d7a4 <__divdf3+0x7b0>
   1d250:	00300793          	li	a5,3
   1d254:	52fb8e63          	beq	s7,a5,1d790 <__divdf3+0x79c>
   1d258:	00100793          	li	a5,1
   1d25c:	3afb9463          	bne	s7,a5,1d604 <__divdf3+0x610>
   1d260:	00000413          	li	s0,0
   1d264:	00000713          	li	a4,0
   1d268:	4ec0006f          	j	1d754 <__divdf3+0x760>
   1d26c:	01646663          	bltu	s0,s6,1d278 <__divdf3+0x284>
   1d270:	448b1863          	bne	s6,s0,1d6c0 <__divdf3+0x6cc>
   1d274:	44d4e663          	bltu	s1,a3,1d6c0 <__divdf3+0x6cc>
   1d278:	01fb1713          	slli	a4,s6,0x1f
   1d27c:	0014d793          	srli	a5,s1,0x1
   1d280:	01f49d13          	slli	s10,s1,0x1f
   1d284:	001b5b13          	srli	s6,s6,0x1
   1d288:	00f764b3          	or	s1,a4,a5
   1d28c:	0186dc13          	srli	s8,a3,0x18
   1d290:	00841413          	slli	s0,s0,0x8
   1d294:	01045793          	srli	a5,s0,0x10
   1d298:	008c6c33          	or	s8,s8,s0
   1d29c:	00078593          	mv	a1,a5
   1d2a0:	000b0513          	mv	a0,s6
   1d2a4:	010c1a93          	slli	s5,s8,0x10
   1d2a8:	00f12623          	sw	a5,12(sp)
   1d2ac:	00869c93          	slli	s9,a3,0x8
   1d2b0:	010ada93          	srli	s5,s5,0x10
   1d2b4:	1b9040ef          	jal	ra,21c6c <__hidden___udivsi3>
   1d2b8:	00050593          	mv	a1,a0
   1d2bc:	00050b93          	mv	s7,a0
   1d2c0:	000a8513          	mv	a0,s5
   1d2c4:	17d040ef          	jal	ra,21c40 <__mulsi3>
   1d2c8:	00c12583          	lw	a1,12(sp)
   1d2cc:	00050413          	mv	s0,a0
   1d2d0:	000b0513          	mv	a0,s6
   1d2d4:	1e1040ef          	jal	ra,21cb4 <__umodsi3>
   1d2d8:	01051513          	slli	a0,a0,0x10
   1d2dc:	0104d793          	srli	a5,s1,0x10
   1d2e0:	00a7e7b3          	or	a5,a5,a0
   1d2e4:	000b8b13          	mv	s6,s7
   1d2e8:	0087fe63          	bgeu	a5,s0,1d304 <__divdf3+0x310>
   1d2ec:	00fc07b3          	add	a5,s8,a5
   1d2f0:	fffb8b13          	addi	s6,s7,-1
   1d2f4:	0187e863          	bltu	a5,s8,1d304 <__divdf3+0x310>
   1d2f8:	0087f663          	bgeu	a5,s0,1d304 <__divdf3+0x310>
   1d2fc:	ffeb8b13          	addi	s6,s7,-2
   1d300:	018787b3          	add	a5,a5,s8
   1d304:	00c12583          	lw	a1,12(sp)
   1d308:	40878433          	sub	s0,a5,s0
   1d30c:	00040513          	mv	a0,s0
   1d310:	15d040ef          	jal	ra,21c6c <__hidden___udivsi3>
   1d314:	00050593          	mv	a1,a0
   1d318:	00050d93          	mv	s11,a0
   1d31c:	000a8513          	mv	a0,s5
   1d320:	121040ef          	jal	ra,21c40 <__mulsi3>
   1d324:	00c12583          	lw	a1,12(sp)
   1d328:	00050b93          	mv	s7,a0
   1d32c:	00040513          	mv	a0,s0
   1d330:	185040ef          	jal	ra,21cb4 <__umodsi3>
   1d334:	01049793          	slli	a5,s1,0x10
   1d338:	01051513          	slli	a0,a0,0x10
   1d33c:	0107d793          	srli	a5,a5,0x10
   1d340:	00a7e7b3          	or	a5,a5,a0
   1d344:	000d8713          	mv	a4,s11
   1d348:	0177fe63          	bgeu	a5,s7,1d364 <__divdf3+0x370>
   1d34c:	00fc07b3          	add	a5,s8,a5
   1d350:	fffd8713          	addi	a4,s11,-1
   1d354:	0187e863          	bltu	a5,s8,1d364 <__divdf3+0x370>
   1d358:	0177f663          	bgeu	a5,s7,1d364 <__divdf3+0x370>
   1d35c:	ffed8713          	addi	a4,s11,-2
   1d360:	018787b3          	add	a5,a5,s8
   1d364:	010b1813          	slli	a6,s6,0x10
   1d368:	00010eb7          	lui	t4,0x10
   1d36c:	00e86833          	or	a6,a6,a4
   1d370:	fffe8b13          	addi	s6,t4,-1 # ffff <exit-0x95>
   1d374:	016878b3          	and	a7,a6,s6
   1d378:	016cfb33          	and	s6,s9,s6
   1d37c:	417787b3          	sub	a5,a5,s7
   1d380:	01085713          	srli	a4,a6,0x10
   1d384:	010cdb93          	srli	s7,s9,0x10
   1d388:	00088513          	mv	a0,a7
   1d38c:	000b0593          	mv	a1,s6
   1d390:	0b1040ef          	jal	ra,21c40 <__mulsi3>
   1d394:	00050313          	mv	t1,a0
   1d398:	000b8593          	mv	a1,s7
   1d39c:	00088513          	mv	a0,a7
   1d3a0:	0a1040ef          	jal	ra,21c40 <__mulsi3>
   1d3a4:	00050893          	mv	a7,a0
   1d3a8:	000b0593          	mv	a1,s6
   1d3ac:	00070513          	mv	a0,a4
   1d3b0:	091040ef          	jal	ra,21c40 <__mulsi3>
   1d3b4:	00050e13          	mv	t3,a0
   1d3b8:	000b8593          	mv	a1,s7
   1d3bc:	00070513          	mv	a0,a4
   1d3c0:	081040ef          	jal	ra,21c40 <__mulsi3>
   1d3c4:	01035713          	srli	a4,t1,0x10
   1d3c8:	01c888b3          	add	a7,a7,t3
   1d3cc:	01170733          	add	a4,a4,a7
   1d3d0:	00050613          	mv	a2,a0
   1d3d4:	01c77463          	bgeu	a4,t3,1d3dc <__divdf3+0x3e8>
   1d3d8:	01d50633          	add	a2,a0,t4
   1d3dc:	01075693          	srli	a3,a4,0x10
   1d3e0:	00c686b3          	add	a3,a3,a2
   1d3e4:	00010637          	lui	a2,0x10
   1d3e8:	fff60613          	addi	a2,a2,-1 # ffff <exit-0x95>
   1d3ec:	00c77733          	and	a4,a4,a2
   1d3f0:	01071713          	slli	a4,a4,0x10
   1d3f4:	00c37333          	and	t1,t1,a2
   1d3f8:	00670733          	add	a4,a4,t1
   1d3fc:	00d7e863          	bltu	a5,a3,1d40c <__divdf3+0x418>
   1d400:	00080413          	mv	s0,a6
   1d404:	04d79863          	bne	a5,a3,1d454 <__divdf3+0x460>
   1d408:	04ed7663          	bgeu	s10,a4,1d454 <__divdf3+0x460>
   1d40c:	019d0633          	add	a2,s10,s9
   1d410:	01a635b3          	sltu	a1,a2,s10
   1d414:	01858533          	add	a0,a1,s8
   1d418:	00a787b3          	add	a5,a5,a0
   1d41c:	fff80413          	addi	s0,a6,-1 # 7fffff <__BSS_END__+0x7dc4fb>
   1d420:	00060d13          	mv	s10,a2
   1d424:	00fc6663          	bltu	s8,a5,1d430 <__divdf3+0x43c>
   1d428:	02fc1663          	bne	s8,a5,1d454 <__divdf3+0x460>
   1d42c:	02059463          	bnez	a1,1d454 <__divdf3+0x460>
   1d430:	00d7e663          	bltu	a5,a3,1d43c <__divdf3+0x448>
   1d434:	02f69063          	bne	a3,a5,1d454 <__divdf3+0x460>
   1d438:	00e67e63          	bgeu	a2,a4,1d454 <__divdf3+0x460>
   1d43c:	00cc8633          	add	a2,s9,a2
   1d440:	00060d13          	mv	s10,a2
   1d444:	01963633          	sltu	a2,a2,s9
   1d448:	01860633          	add	a2,a2,s8
   1d44c:	ffe80413          	addi	s0,a6,-2
   1d450:	00c787b3          	add	a5,a5,a2
   1d454:	40ed0db3          	sub	s11,s10,a4
   1d458:	40d787b3          	sub	a5,a5,a3
   1d45c:	01bd3d33          	sltu	s10,s10,s11
   1d460:	41a784b3          	sub	s1,a5,s10
   1d464:	fff00693          	li	a3,-1
   1d468:	189c0e63          	beq	s8,s1,1d604 <__divdf3+0x610>
   1d46c:	00c12583          	lw	a1,12(sp)
   1d470:	00048513          	mv	a0,s1
   1d474:	7f8040ef          	jal	ra,21c6c <__hidden___udivsi3>
   1d478:	00050593          	mv	a1,a0
   1d47c:	00050a13          	mv	s4,a0
   1d480:	000a8513          	mv	a0,s5
   1d484:	7bc040ef          	jal	ra,21c40 <__mulsi3>
   1d488:	00c12583          	lw	a1,12(sp)
   1d48c:	00050d13          	mv	s10,a0
   1d490:	00048513          	mv	a0,s1
   1d494:	021040ef          	jal	ra,21cb4 <__umodsi3>
   1d498:	01051513          	slli	a0,a0,0x10
   1d49c:	010dd693          	srli	a3,s11,0x10
   1d4a0:	00a6e6b3          	or	a3,a3,a0
   1d4a4:	000a0493          	mv	s1,s4
   1d4a8:	01a6fe63          	bgeu	a3,s10,1d4c4 <__divdf3+0x4d0>
   1d4ac:	00dc06b3          	add	a3,s8,a3
   1d4b0:	fffa0493          	addi	s1,s4,-1
   1d4b4:	0186e863          	bltu	a3,s8,1d4c4 <__divdf3+0x4d0>
   1d4b8:	01a6f663          	bgeu	a3,s10,1d4c4 <__divdf3+0x4d0>
   1d4bc:	ffea0493          	addi	s1,s4,-2
   1d4c0:	018686b3          	add	a3,a3,s8
   1d4c4:	00c12583          	lw	a1,12(sp)
   1d4c8:	41a68a33          	sub	s4,a3,s10
   1d4cc:	000a0513          	mv	a0,s4
   1d4d0:	79c040ef          	jal	ra,21c6c <__hidden___udivsi3>
   1d4d4:	00050593          	mv	a1,a0
   1d4d8:	00050d13          	mv	s10,a0
   1d4dc:	000a8513          	mv	a0,s5
   1d4e0:	760040ef          	jal	ra,21c40 <__mulsi3>
   1d4e4:	00c12583          	lw	a1,12(sp)
   1d4e8:	00050a93          	mv	s5,a0
   1d4ec:	000a0513          	mv	a0,s4
   1d4f0:	7c4040ef          	jal	ra,21cb4 <__umodsi3>
   1d4f4:	010d9793          	slli	a5,s11,0x10
   1d4f8:	01051513          	slli	a0,a0,0x10
   1d4fc:	0107d793          	srli	a5,a5,0x10
   1d500:	00a7e7b3          	or	a5,a5,a0
   1d504:	000d0713          	mv	a4,s10
   1d508:	0157fe63          	bgeu	a5,s5,1d524 <__divdf3+0x530>
   1d50c:	00fc07b3          	add	a5,s8,a5
   1d510:	fffd0713          	addi	a4,s10,-1
   1d514:	0187e863          	bltu	a5,s8,1d524 <__divdf3+0x530>
   1d518:	0157f663          	bgeu	a5,s5,1d524 <__divdf3+0x530>
   1d51c:	ffed0713          	addi	a4,s10,-2
   1d520:	018787b3          	add	a5,a5,s8
   1d524:	01049813          	slli	a6,s1,0x10
   1d528:	00e86833          	or	a6,a6,a4
   1d52c:	01081893          	slli	a7,a6,0x10
   1d530:	0108d893          	srli	a7,a7,0x10
   1d534:	415787b3          	sub	a5,a5,s5
   1d538:	01085713          	srli	a4,a6,0x10
   1d53c:	00088513          	mv	a0,a7
   1d540:	000b0593          	mv	a1,s6
   1d544:	6fc040ef          	jal	ra,21c40 <__mulsi3>
   1d548:	00050313          	mv	t1,a0
   1d54c:	000b8593          	mv	a1,s7
   1d550:	00088513          	mv	a0,a7
   1d554:	6ec040ef          	jal	ra,21c40 <__mulsi3>
   1d558:	00050893          	mv	a7,a0
   1d55c:	000b0593          	mv	a1,s6
   1d560:	00070513          	mv	a0,a4
   1d564:	6dc040ef          	jal	ra,21c40 <__mulsi3>
   1d568:	00050e13          	mv	t3,a0
   1d56c:	000b8593          	mv	a1,s7
   1d570:	00070513          	mv	a0,a4
   1d574:	6cc040ef          	jal	ra,21c40 <__mulsi3>
   1d578:	01035713          	srli	a4,t1,0x10
   1d57c:	01c888b3          	add	a7,a7,t3
   1d580:	01170733          	add	a4,a4,a7
   1d584:	00050693          	mv	a3,a0
   1d588:	01c77663          	bgeu	a4,t3,1d594 <__divdf3+0x5a0>
   1d58c:	00010637          	lui	a2,0x10
   1d590:	00c506b3          	add	a3,a0,a2
   1d594:	01075613          	srli	a2,a4,0x10
   1d598:	00d60633          	add	a2,a2,a3
   1d59c:	000106b7          	lui	a3,0x10
   1d5a0:	fff68693          	addi	a3,a3,-1 # ffff <exit-0x95>
   1d5a4:	00d77733          	and	a4,a4,a3
   1d5a8:	01071713          	slli	a4,a4,0x10
   1d5ac:	00d37333          	and	t1,t1,a3
   1d5b0:	00670733          	add	a4,a4,t1
   1d5b4:	00c7e863          	bltu	a5,a2,1d5c4 <__divdf3+0x5d0>
   1d5b8:	00080693          	mv	a3,a6
   1d5bc:	04c79263          	bne	a5,a2,1d600 <__divdf3+0x60c>
   1d5c0:	04070263          	beqz	a4,1d604 <__divdf3+0x610>
   1d5c4:	00fc07b3          	add	a5,s8,a5
   1d5c8:	fff80693          	addi	a3,a6,-1
   1d5cc:	00078593          	mv	a1,a5
   1d5d0:	0387e463          	bltu	a5,s8,1d5f8 <__divdf3+0x604>
   1d5d4:	00c7e663          	bltu	a5,a2,1d5e0 <__divdf3+0x5ec>
   1d5d8:	02c79463          	bne	a5,a2,1d600 <__divdf3+0x60c>
   1d5dc:	02ecf063          	bgeu	s9,a4,1d5fc <__divdf3+0x608>
   1d5e0:	001c9513          	slli	a0,s9,0x1
   1d5e4:	019535b3          	sltu	a1,a0,s9
   1d5e8:	018585b3          	add	a1,a1,s8
   1d5ec:	ffe80693          	addi	a3,a6,-2
   1d5f0:	00b785b3          	add	a1,a5,a1
   1d5f4:	00050c93          	mv	s9,a0
   1d5f8:	00c59463          	bne	a1,a2,1d600 <__divdf3+0x60c>
   1d5fc:	01970463          	beq	a4,s9,1d604 <__divdf3+0x610>
   1d600:	0016e693          	ori	a3,a3,1
   1d604:	3ff90793          	addi	a5,s2,1023
   1d608:	0cf05863          	blez	a5,1d6d8 <__divdf3+0x6e4>
   1d60c:	0076f713          	andi	a4,a3,7
   1d610:	02070063          	beqz	a4,1d630 <__divdf3+0x63c>
   1d614:	00f6f713          	andi	a4,a3,15
   1d618:	00400613          	li	a2,4
   1d61c:	00c70a63          	beq	a4,a2,1d630 <__divdf3+0x63c>
   1d620:	00468713          	addi	a4,a3,4
   1d624:	00d73633          	sltu	a2,a4,a3
   1d628:	00c40433          	add	s0,s0,a2
   1d62c:	00070693          	mv	a3,a4
   1d630:	01000737          	lui	a4,0x1000
   1d634:	00e47733          	and	a4,s0,a4
   1d638:	00070a63          	beqz	a4,1d64c <__divdf3+0x658>
   1d63c:	ff0007b7          	lui	a5,0xff000
   1d640:	fff78793          	addi	a5,a5,-1 # feffffff <__BSS_END__+0xfefdc4fb>
   1d644:	00f47433          	and	s0,s0,a5
   1d648:	40090793          	addi	a5,s2,1024
   1d64c:	7fe00713          	li	a4,2046
   1d650:	14f74a63          	blt	a4,a5,1d7a4 <__divdf3+0x7b0>
   1d654:	01d41713          	slli	a4,s0,0x1d
   1d658:	0036d693          	srli	a3,a3,0x3
   1d65c:	00d76733          	or	a4,a4,a3
   1d660:	00345413          	srli	s0,s0,0x3
   1d664:	00c41413          	slli	s0,s0,0xc
   1d668:	00c45413          	srli	s0,s0,0xc
   1d66c:	01479793          	slli	a5,a5,0x14
   1d670:	04c12083          	lw	ra,76(sp)
   1d674:	0087e7b3          	or	a5,a5,s0
   1d678:	04812403          	lw	s0,72(sp)
   1d67c:	01f99993          	slli	s3,s3,0x1f
   1d680:	0137e6b3          	or	a3,a5,s3
   1d684:	04412483          	lw	s1,68(sp)
   1d688:	04012903          	lw	s2,64(sp)
   1d68c:	03c12983          	lw	s3,60(sp)
   1d690:	03812a03          	lw	s4,56(sp)
   1d694:	03412a83          	lw	s5,52(sp)
   1d698:	03012b03          	lw	s6,48(sp)
   1d69c:	02c12b83          	lw	s7,44(sp)
   1d6a0:	02812c03          	lw	s8,40(sp)
   1d6a4:	02412c83          	lw	s9,36(sp)
   1d6a8:	02012d03          	lw	s10,32(sp)
   1d6ac:	01c12d83          	lw	s11,28(sp)
   1d6b0:	00070513          	mv	a0,a4
   1d6b4:	00068593          	mv	a1,a3
   1d6b8:	05010113          	addi	sp,sp,80
   1d6bc:	00008067          	ret
   1d6c0:	fff90913          	addi	s2,s2,-1
   1d6c4:	00000d13          	li	s10,0
   1d6c8:	bc5ff06f          	j	1d28c <__divdf3+0x298>
   1d6cc:	000a0993          	mv	s3,s4
   1d6d0:	00060b93          	mv	s7,a2
   1d6d4:	b75ff06f          	j	1d248 <__divdf3+0x254>
   1d6d8:	00100613          	li	a2,1
   1d6dc:	00078c63          	beqz	a5,1d6f4 <__divdf3+0x700>
   1d6e0:	40f60633          	sub	a2,a2,a5
   1d6e4:	03800713          	li	a4,56
   1d6e8:	b6c74ce3          	blt	a4,a2,1d260 <__divdf3+0x26c>
   1d6ec:	01f00713          	li	a4,31
   1d6f0:	06c74663          	blt	a4,a2,1d75c <__divdf3+0x768>
   1d6f4:	41e90913          	addi	s2,s2,1054
   1d6f8:	00c6d7b3          	srl	a5,a3,a2
   1d6fc:	012696b3          	sll	a3,a3,s2
   1d700:	00d036b3          	snez	a3,a3
   1d704:	01241933          	sll	s2,s0,s2
   1d708:	0126e6b3          	or	a3,a3,s2
   1d70c:	00d7e7b3          	or	a5,a5,a3
   1d710:	00c45433          	srl	s0,s0,a2
   1d714:	0077f713          	andi	a4,a5,7
   1d718:	02070063          	beqz	a4,1d738 <__divdf3+0x744>
   1d71c:	00f7f713          	andi	a4,a5,15
   1d720:	00400693          	li	a3,4
   1d724:	00d70a63          	beq	a4,a3,1d738 <__divdf3+0x744>
   1d728:	00478713          	addi	a4,a5,4
   1d72c:	00f736b3          	sltu	a3,a4,a5
   1d730:	00d40433          	add	s0,s0,a3
   1d734:	00070793          	mv	a5,a4
   1d738:	00800737          	lui	a4,0x800
   1d73c:	00e47733          	and	a4,s0,a4
   1d740:	06071a63          	bnez	a4,1d7b4 <__divdf3+0x7c0>
   1d744:	01d41713          	slli	a4,s0,0x1d
   1d748:	0037d793          	srli	a5,a5,0x3
   1d74c:	00f76733          	or	a4,a4,a5
   1d750:	00345413          	srli	s0,s0,0x3
   1d754:	00000793          	li	a5,0
   1d758:	f0dff06f          	j	1d664 <__divdf3+0x670>
   1d75c:	fe100713          	li	a4,-31
   1d760:	40f707b3          	sub	a5,a4,a5
   1d764:	02000593          	li	a1,32
   1d768:	00f457b3          	srl	a5,s0,a5
   1d76c:	00000713          	li	a4,0
   1d770:	00b60663          	beq	a2,a1,1d77c <__divdf3+0x788>
   1d774:	43e90913          	addi	s2,s2,1086
   1d778:	01241733          	sll	a4,s0,s2
   1d77c:	00d76733          	or	a4,a4,a3
   1d780:	00e03733          	snez	a4,a4
   1d784:	00e7e7b3          	or	a5,a5,a4
   1d788:	00000413          	li	s0,0
   1d78c:	f89ff06f          	j	1d714 <__divdf3+0x720>
   1d790:	00080437          	lui	s0,0x80
   1d794:	00000713          	li	a4,0
   1d798:	7ff00793          	li	a5,2047
   1d79c:	00000993          	li	s3,0
   1d7a0:	ec5ff06f          	j	1d664 <__divdf3+0x670>
   1d7a4:	00000413          	li	s0,0
   1d7a8:	00000713          	li	a4,0
   1d7ac:	7ff00793          	li	a5,2047
   1d7b0:	eb5ff06f          	j	1d664 <__divdf3+0x670>
   1d7b4:	00000413          	li	s0,0
   1d7b8:	00000713          	li	a4,0
   1d7bc:	00100793          	li	a5,1
   1d7c0:	ea5ff06f          	j	1d664 <__divdf3+0x670>

0001d7c4 <__eqdf2>:
   1d7c4:	0145d813          	srli	a6,a1,0x14
   1d7c8:	00100737          	lui	a4,0x100
   1d7cc:	fff70713          	addi	a4,a4,-1 # fffff <__BSS_END__+0xdc4fb>
   1d7d0:	0146d313          	srli	t1,a3,0x14
   1d7d4:	7ff87813          	andi	a6,a6,2047
   1d7d8:	7ff00e13          	li	t3,2047
   1d7dc:	00b777b3          	and	a5,a4,a1
   1d7e0:	00050893          	mv	a7,a0
   1d7e4:	00d77733          	and	a4,a4,a3
   1d7e8:	01f5d593          	srli	a1,a1,0x1f
   1d7ec:	7ff37313          	andi	t1,t1,2047
   1d7f0:	01f6d693          	srli	a3,a3,0x1f
   1d7f4:	00100513          	li	a0,1
   1d7f8:	01c80663          	beq	a6,t3,1d804 <__eqdf2+0x40>
   1d7fc:	03c31463          	bne	t1,t3,1d824 <__eqdf2+0x60>
   1d800:	00008067          	ret
   1d804:	05031463          	bne	t1,a6,1d84c <__eqdf2+0x88>
   1d808:	00e7e7b3          	or	a5,a5,a4
   1d80c:	00c7e7b3          	or	a5,a5,a2
   1d810:	0117e7b3          	or	a5,a5,a7
   1d814:	02079c63          	bnez	a5,1d84c <__eqdf2+0x88>
   1d818:	40d585b3          	sub	a1,a1,a3
   1d81c:	00b03533          	snez	a0,a1
   1d820:	00008067          	ret
   1d824:	00100513          	li	a0,1
   1d828:	02681263          	bne	a6,t1,1d84c <__eqdf2+0x88>
   1d82c:	02e79063          	bne	a5,a4,1d84c <__eqdf2+0x88>
   1d830:	00c89e63          	bne	a7,a2,1d84c <__eqdf2+0x88>
   1d834:	00d58a63          	beq	a1,a3,1d848 <__eqdf2+0x84>
   1d838:	00081a63          	bnez	a6,1d84c <__eqdf2+0x88>
   1d83c:	0117e7b3          	or	a5,a5,a7
   1d840:	00f03533          	snez	a0,a5
   1d844:	00008067          	ret
   1d848:	00000513          	li	a0,0
   1d84c:	00008067          	ret

0001d850 <__gedf2>:
   1d850:	0146d793          	srli	a5,a3,0x14
   1d854:	0145d313          	srli	t1,a1,0x14
   1d858:	00100737          	lui	a4,0x100
   1d85c:	fff70713          	addi	a4,a4,-1 # fffff <__BSS_END__+0xdc4fb>
   1d860:	00050813          	mv	a6,a0
   1d864:	00050e13          	mv	t3,a0
   1d868:	7ff37313          	andi	t1,t1,2047
   1d86c:	7ff7f513          	andi	a0,a5,2047
   1d870:	7ff00793          	li	a5,2047
   1d874:	00b778b3          	and	a7,a4,a1
   1d878:	00060e93          	mv	t4,a2
   1d87c:	00d77733          	and	a4,a4,a3
   1d880:	01f5d593          	srli	a1,a1,0x1f
   1d884:	01f6d693          	srli	a3,a3,0x1f
   1d888:	02f31c63          	bne	t1,a5,1d8c0 <__gedf2+0x70>
   1d88c:	0108e8b3          	or	a7,a7,a6
   1d890:	0c089463          	bnez	a7,1d958 <__gedf2+0x108>
   1d894:	00650a63          	beq	a0,t1,1d8a8 <__gedf2+0x58>
   1d898:	00100513          	li	a0,1
   1d89c:	0a058c63          	beqz	a1,1d954 <__gedf2+0x104>
   1d8a0:	fff00513          	li	a0,-1
   1d8a4:	00008067          	ret
   1d8a8:	00c76733          	or	a4,a4,a2
   1d8ac:	ffe00513          	li	a0,-2
   1d8b0:	0a071263          	bnez	a4,1d954 <__gedf2+0x104>
   1d8b4:	fed592e3          	bne	a1,a3,1d898 <__gedf2+0x48>
   1d8b8:	00000513          	li	a0,0
   1d8bc:	00008067          	ret
   1d8c0:	04f51063          	bne	a0,a5,1d900 <__gedf2+0xb0>
   1d8c4:	00c76733          	or	a4,a4,a2
   1d8c8:	ffe00513          	li	a0,-2
   1d8cc:	08071463          	bnez	a4,1d954 <__gedf2+0x104>
   1d8d0:	00030c63          	beqz	t1,1d8e8 <__gedf2+0x98>
   1d8d4:	fcd592e3          	bne	a1,a3,1d898 <__gedf2+0x48>
   1d8d8:	fff00513          	li	a0,-1
   1d8dc:	06058c63          	beqz	a1,1d954 <__gedf2+0x104>
   1d8e0:	00058513          	mv	a0,a1
   1d8e4:	00008067          	ret
   1d8e8:	0108e8b3          	or	a7,a7,a6
   1d8ec:	fe0894e3          	bnez	a7,1d8d4 <__gedf2+0x84>
   1d8f0:	fff00513          	li	a0,-1
   1d8f4:	06068063          	beqz	a3,1d954 <__gedf2+0x104>
   1d8f8:	00068513          	mv	a0,a3
   1d8fc:	00008067          	ret
   1d900:	02030663          	beqz	t1,1d92c <__gedf2+0xdc>
   1d904:	f8050ae3          	beqz	a0,1d898 <__gedf2+0x48>
   1d908:	f8d598e3          	bne	a1,a3,1d898 <__gedf2+0x48>
   1d90c:	f86546e3          	blt	a0,t1,1d898 <__gedf2+0x48>
   1d910:	fca344e3          	blt	t1,a0,1d8d8 <__gedf2+0x88>
   1d914:	f91762e3          	bltu	a4,a7,1d898 <__gedf2+0x48>
   1d918:	fce890e3          	bne	a7,a4,1d8d8 <__gedf2+0x88>
   1d91c:	f7ceeee3          	bltu	t4,t3,1d898 <__gedf2+0x48>
   1d920:	00000513          	li	a0,0
   1d924:	03de7863          	bgeu	t3,t4,1d954 <__gedf2+0x104>
   1d928:	fb1ff06f          	j	1d8d8 <__gedf2+0x88>
   1d92c:	0108e833          	or	a6,a7,a6
   1d930:	00050663          	beqz	a0,1d93c <__gedf2+0xec>
   1d934:	fa080ee3          	beqz	a6,1d8f0 <__gedf2+0xa0>
   1d938:	f9dff06f          	j	1d8d4 <__gedf2+0x84>
   1d93c:	00c76633          	or	a2,a4,a2
   1d940:	00060863          	beqz	a2,1d950 <__gedf2+0x100>
   1d944:	fa0806e3          	beqz	a6,1d8f0 <__gedf2+0xa0>
   1d948:	fcd586e3          	beq	a1,a3,1d914 <__gedf2+0xc4>
   1d94c:	f4dff06f          	j	1d898 <__gedf2+0x48>
   1d950:	f40814e3          	bnez	a6,1d898 <__gedf2+0x48>
   1d954:	00008067          	ret
   1d958:	ffe00513          	li	a0,-2
   1d95c:	00008067          	ret

0001d960 <__ledf2>:
   1d960:	0146d793          	srli	a5,a3,0x14
   1d964:	0145d313          	srli	t1,a1,0x14
   1d968:	00100737          	lui	a4,0x100
   1d96c:	fff70713          	addi	a4,a4,-1 # fffff <__BSS_END__+0xdc4fb>
   1d970:	00050813          	mv	a6,a0
   1d974:	00050e13          	mv	t3,a0
   1d978:	7ff37313          	andi	t1,t1,2047
   1d97c:	7ff7f513          	andi	a0,a5,2047
   1d980:	7ff00793          	li	a5,2047
   1d984:	00b778b3          	and	a7,a4,a1
   1d988:	00060e93          	mv	t4,a2
   1d98c:	00d77733          	and	a4,a4,a3
   1d990:	01f5d593          	srli	a1,a1,0x1f
   1d994:	01f6d693          	srli	a3,a3,0x1f
   1d998:	02f31c63          	bne	t1,a5,1d9d0 <__ledf2+0x70>
   1d99c:	0108e8b3          	or	a7,a7,a6
   1d9a0:	0c089463          	bnez	a7,1da68 <__ledf2+0x108>
   1d9a4:	00650a63          	beq	a0,t1,1d9b8 <__ledf2+0x58>
   1d9a8:	00100513          	li	a0,1
   1d9ac:	0a058c63          	beqz	a1,1da64 <__ledf2+0x104>
   1d9b0:	fff00513          	li	a0,-1
   1d9b4:	00008067          	ret
   1d9b8:	00c76733          	or	a4,a4,a2
   1d9bc:	00200513          	li	a0,2
   1d9c0:	0a071263          	bnez	a4,1da64 <__ledf2+0x104>
   1d9c4:	fed592e3          	bne	a1,a3,1d9a8 <__ledf2+0x48>
   1d9c8:	00000513          	li	a0,0
   1d9cc:	00008067          	ret
   1d9d0:	04f51063          	bne	a0,a5,1da10 <__ledf2+0xb0>
   1d9d4:	00c76733          	or	a4,a4,a2
   1d9d8:	00200513          	li	a0,2
   1d9dc:	08071463          	bnez	a4,1da64 <__ledf2+0x104>
   1d9e0:	00030c63          	beqz	t1,1d9f8 <__ledf2+0x98>
   1d9e4:	fcd592e3          	bne	a1,a3,1d9a8 <__ledf2+0x48>
   1d9e8:	fff00513          	li	a0,-1
   1d9ec:	06058c63          	beqz	a1,1da64 <__ledf2+0x104>
   1d9f0:	00058513          	mv	a0,a1
   1d9f4:	00008067          	ret
   1d9f8:	0108e8b3          	or	a7,a7,a6
   1d9fc:	fe0894e3          	bnez	a7,1d9e4 <__ledf2+0x84>
   1da00:	fff00513          	li	a0,-1
   1da04:	06068063          	beqz	a3,1da64 <__ledf2+0x104>
   1da08:	00068513          	mv	a0,a3
   1da0c:	00008067          	ret
   1da10:	02030663          	beqz	t1,1da3c <__ledf2+0xdc>
   1da14:	f8050ae3          	beqz	a0,1d9a8 <__ledf2+0x48>
   1da18:	f8d598e3          	bne	a1,a3,1d9a8 <__ledf2+0x48>
   1da1c:	f86546e3          	blt	a0,t1,1d9a8 <__ledf2+0x48>
   1da20:	fca344e3          	blt	t1,a0,1d9e8 <__ledf2+0x88>
   1da24:	f91762e3          	bltu	a4,a7,1d9a8 <__ledf2+0x48>
   1da28:	fce890e3          	bne	a7,a4,1d9e8 <__ledf2+0x88>
   1da2c:	f7ceeee3          	bltu	t4,t3,1d9a8 <__ledf2+0x48>
   1da30:	00000513          	li	a0,0
   1da34:	03de7863          	bgeu	t3,t4,1da64 <__ledf2+0x104>
   1da38:	fb1ff06f          	j	1d9e8 <__ledf2+0x88>
   1da3c:	0108e833          	or	a6,a7,a6
   1da40:	00050663          	beqz	a0,1da4c <__ledf2+0xec>
   1da44:	fa080ee3          	beqz	a6,1da00 <__ledf2+0xa0>
   1da48:	f9dff06f          	j	1d9e4 <__ledf2+0x84>
   1da4c:	00c76633          	or	a2,a4,a2
   1da50:	00060863          	beqz	a2,1da60 <__ledf2+0x100>
   1da54:	fa0806e3          	beqz	a6,1da00 <__ledf2+0xa0>
   1da58:	fcd586e3          	beq	a1,a3,1da24 <__ledf2+0xc4>
   1da5c:	f4dff06f          	j	1d9a8 <__ledf2+0x48>
   1da60:	f40814e3          	bnez	a6,1d9a8 <__ledf2+0x48>
   1da64:	00008067          	ret
   1da68:	00200513          	li	a0,2
   1da6c:	00008067          	ret

0001da70 <__muldf3>:
   1da70:	fd010113          	addi	sp,sp,-48
   1da74:	01512a23          	sw	s5,20(sp)
   1da78:	0145da93          	srli	s5,a1,0x14
   1da7c:	02812423          	sw	s0,40(sp)
   1da80:	02912223          	sw	s1,36(sp)
   1da84:	03212023          	sw	s2,32(sp)
   1da88:	01312e23          	sw	s3,28(sp)
   1da8c:	01612823          	sw	s6,16(sp)
   1da90:	00c59493          	slli	s1,a1,0xc
   1da94:	02112623          	sw	ra,44(sp)
   1da98:	01412c23          	sw	s4,24(sp)
   1da9c:	01712623          	sw	s7,12(sp)
   1daa0:	7ffafa93          	andi	s5,s5,2047
   1daa4:	00050413          	mv	s0,a0
   1daa8:	00060b13          	mv	s6,a2
   1daac:	00068913          	mv	s2,a3
   1dab0:	00c4d493          	srli	s1,s1,0xc
   1dab4:	01f5d993          	srli	s3,a1,0x1f
   1dab8:	3c0a8063          	beqz	s5,1de78 <__muldf3+0x408>
   1dabc:	7ff00793          	li	a5,2047
   1dac0:	42fa8263          	beq	s5,a5,1dee4 <__muldf3+0x474>
   1dac4:	00349493          	slli	s1,s1,0x3
   1dac8:	01d55793          	srli	a5,a0,0x1d
   1dacc:	0097e7b3          	or	a5,a5,s1
   1dad0:	008004b7          	lui	s1,0x800
   1dad4:	0097e4b3          	or	s1,a5,s1
   1dad8:	00351a13          	slli	s4,a0,0x3
   1dadc:	c01a8a93          	addi	s5,s5,-1023
   1dae0:	00000b93          	li	s7,0
   1dae4:	01495713          	srli	a4,s2,0x14
   1dae8:	00c91413          	slli	s0,s2,0xc
   1daec:	7ff77713          	andi	a4,a4,2047
   1daf0:	00c45413          	srli	s0,s0,0xc
   1daf4:	01f95913          	srli	s2,s2,0x1f
   1daf8:	42070263          	beqz	a4,1df1c <__muldf3+0x4ac>
   1dafc:	7ff00793          	li	a5,2047
   1db00:	48f70663          	beq	a4,a5,1df8c <__muldf3+0x51c>
   1db04:	00341413          	slli	s0,s0,0x3
   1db08:	01db5793          	srli	a5,s6,0x1d
   1db0c:	0087e7b3          	or	a5,a5,s0
   1db10:	00800437          	lui	s0,0x800
   1db14:	0087e433          	or	s0,a5,s0
   1db18:	c0170693          	addi	a3,a4,-1023
   1db1c:	003b1793          	slli	a5,s6,0x3
   1db20:	00000613          	li	a2,0
   1db24:	002b9713          	slli	a4,s7,0x2
   1db28:	00da8ab3          	add	s5,s5,a3
   1db2c:	00c76733          	or	a4,a4,a2
   1db30:	00a00693          	li	a3,10
   1db34:	0129c833          	xor	a6,s3,s2
   1db38:	001a8893          	addi	a7,s5,1
   1db3c:	4ce6c863          	blt	a3,a4,1e00c <__muldf3+0x59c>
   1db40:	00200693          	li	a3,2
   1db44:	48e6c063          	blt	a3,a4,1dfc4 <__muldf3+0x554>
   1db48:	fff70713          	addi	a4,a4,-1
   1db4c:	00100693          	li	a3,1
   1db50:	48e6fc63          	bgeu	a3,a4,1dfe8 <__muldf3+0x578>
   1db54:	00010937          	lui	s2,0x10
   1db58:	fff90e13          	addi	t3,s2,-1 # ffff <exit-0x95>
   1db5c:	010a5293          	srli	t0,s4,0x10
   1db60:	01c7ffb3          	and	t6,a5,t3
   1db64:	01ca7a33          	and	s4,s4,t3
   1db68:	0107df13          	srli	t5,a5,0x10
   1db6c:	000a0513          	mv	a0,s4
   1db70:	000f8593          	mv	a1,t6
   1db74:	0cc040ef          	jal	ra,21c40 <__mulsi3>
   1db78:	00050793          	mv	a5,a0
   1db7c:	000f0593          	mv	a1,t5
   1db80:	000a0513          	mv	a0,s4
   1db84:	0bc040ef          	jal	ra,21c40 <__mulsi3>
   1db88:	00050e93          	mv	t4,a0
   1db8c:	000f8593          	mv	a1,t6
   1db90:	00028513          	mv	a0,t0
   1db94:	0ac040ef          	jal	ra,21c40 <__mulsi3>
   1db98:	00050393          	mv	t2,a0
   1db9c:	000f0593          	mv	a1,t5
   1dba0:	00028513          	mv	a0,t0
   1dba4:	09c040ef          	jal	ra,21c40 <__mulsi3>
   1dba8:	0107d313          	srli	t1,a5,0x10
   1dbac:	007e8eb3          	add	t4,t4,t2
   1dbb0:	01d30333          	add	t1,t1,t4
   1dbb4:	00050713          	mv	a4,a0
   1dbb8:	00737463          	bgeu	t1,t2,1dbc0 <__muldf3+0x150>
   1dbbc:	01250733          	add	a4,a0,s2
   1dbc0:	01035993          	srli	s3,t1,0x10
   1dbc4:	01c37333          	and	t1,t1,t3
   1dbc8:	01c7f7b3          	and	a5,a5,t3
   1dbcc:	01031313          	slli	t1,t1,0x10
   1dbd0:	01c47e33          	and	t3,s0,t3
   1dbd4:	00f30333          	add	t1,t1,a5
   1dbd8:	01045913          	srli	s2,s0,0x10
   1dbdc:	000a0513          	mv	a0,s4
   1dbe0:	000e0593          	mv	a1,t3
   1dbe4:	05c040ef          	jal	ra,21c40 <__mulsi3>
   1dbe8:	00050393          	mv	t2,a0
   1dbec:	00090593          	mv	a1,s2
   1dbf0:	000a0513          	mv	a0,s4
   1dbf4:	04c040ef          	jal	ra,21c40 <__mulsi3>
   1dbf8:	00050e93          	mv	t4,a0
   1dbfc:	000e0593          	mv	a1,t3
   1dc00:	00028513          	mv	a0,t0
   1dc04:	03c040ef          	jal	ra,21c40 <__mulsi3>
   1dc08:	00050413          	mv	s0,a0
   1dc0c:	00090593          	mv	a1,s2
   1dc10:	00028513          	mv	a0,t0
   1dc14:	02c040ef          	jal	ra,21c40 <__mulsi3>
   1dc18:	0103d693          	srli	a3,t2,0x10
   1dc1c:	008e8eb3          	add	t4,t4,s0
   1dc20:	01d686b3          	add	a3,a3,t4
   1dc24:	00050793          	mv	a5,a0
   1dc28:	0086f663          	bgeu	a3,s0,1dc34 <__muldf3+0x1c4>
   1dc2c:	00010637          	lui	a2,0x10
   1dc30:	00c507b3          	add	a5,a0,a2
   1dc34:	00010a37          	lui	s4,0x10
   1dc38:	fffa0e93          	addi	t4,s4,-1 # ffff <exit-0x95>
   1dc3c:	0106d293          	srli	t0,a3,0x10
   1dc40:	00f282b3          	add	t0,t0,a5
   1dc44:	01d6f7b3          	and	a5,a3,t4
   1dc48:	01d3f3b3          	and	t2,t2,t4
   1dc4c:	01079793          	slli	a5,a5,0x10
   1dc50:	007787b3          	add	a5,a5,t2
   1dc54:	01d4feb3          	and	t4,s1,t4
   1dc58:	00f98433          	add	s0,s3,a5
   1dc5c:	000e8513          	mv	a0,t4
   1dc60:	0104d993          	srli	s3,s1,0x10
   1dc64:	000f8593          	mv	a1,t6
   1dc68:	7d9030ef          	jal	ra,21c40 <__mulsi3>
   1dc6c:	00050493          	mv	s1,a0
   1dc70:	000f0593          	mv	a1,t5
   1dc74:	000e8513          	mv	a0,t4
   1dc78:	7c9030ef          	jal	ra,21c40 <__mulsi3>
   1dc7c:	00050393          	mv	t2,a0
   1dc80:	000f8593          	mv	a1,t6
   1dc84:	00098513          	mv	a0,s3
   1dc88:	7b9030ef          	jal	ra,21c40 <__mulsi3>
   1dc8c:	00050f93          	mv	t6,a0
   1dc90:	000f0593          	mv	a1,t5
   1dc94:	00098513          	mv	a0,s3
   1dc98:	7a9030ef          	jal	ra,21c40 <__mulsi3>
   1dc9c:	0104d693          	srli	a3,s1,0x10
   1dca0:	01f383b3          	add	t2,t2,t6
   1dca4:	007686b3          	add	a3,a3,t2
   1dca8:	00050613          	mv	a2,a0
   1dcac:	01f6f463          	bgeu	a3,t6,1dcb4 <__muldf3+0x244>
   1dcb0:	01450633          	add	a2,a0,s4
   1dcb4:	00010a37          	lui	s4,0x10
   1dcb8:	fffa0393          	addi	t2,s4,-1 # ffff <exit-0x95>
   1dcbc:	0106df93          	srli	t6,a3,0x10
   1dcc0:	0076f6b3          	and	a3,a3,t2
   1dcc4:	01069693          	slli	a3,a3,0x10
   1dcc8:	0074f4b3          	and	s1,s1,t2
   1dccc:	00cf8fb3          	add	t6,t6,a2
   1dcd0:	00968f33          	add	t5,a3,s1
   1dcd4:	000e8513          	mv	a0,t4
   1dcd8:	000e0593          	mv	a1,t3
   1dcdc:	765030ef          	jal	ra,21c40 <__mulsi3>
   1dce0:	00050493          	mv	s1,a0
   1dce4:	00090593          	mv	a1,s2
   1dce8:	000e8513          	mv	a0,t4
   1dcec:	755030ef          	jal	ra,21c40 <__mulsi3>
   1dcf0:	00050e93          	mv	t4,a0
   1dcf4:	000e0593          	mv	a1,t3
   1dcf8:	00098513          	mv	a0,s3
   1dcfc:	745030ef          	jal	ra,21c40 <__mulsi3>
   1dd00:	00050e13          	mv	t3,a0
   1dd04:	00090593          	mv	a1,s2
   1dd08:	00098513          	mv	a0,s3
   1dd0c:	735030ef          	jal	ra,21c40 <__mulsi3>
   1dd10:	0104d613          	srli	a2,s1,0x10
   1dd14:	01ce8eb3          	add	t4,t4,t3
   1dd18:	01d60633          	add	a2,a2,t4
   1dd1c:	00050593          	mv	a1,a0
   1dd20:	01c67463          	bgeu	a2,t3,1dd28 <__muldf3+0x2b8>
   1dd24:	014505b3          	add	a1,a0,s4
   1dd28:	007676b3          	and	a3,a2,t2
   1dd2c:	01069693          	slli	a3,a3,0x10
   1dd30:	0074f4b3          	and	s1,s1,t2
   1dd34:	00870733          	add	a4,a4,s0
   1dd38:	009686b3          	add	a3,a3,s1
   1dd3c:	005682b3          	add	t0,a3,t0
   1dd40:	00f737b3          	sltu	a5,a4,a5
   1dd44:	00f287b3          	add	a5,t0,a5
   1dd48:	00d2b6b3          	sltu	a3,t0,a3
   1dd4c:	0057b2b3          	sltu	t0,a5,t0
   1dd50:	01065613          	srli	a2,a2,0x10
   1dd54:	0056e6b3          	or	a3,a3,t0
   1dd58:	00c686b3          	add	a3,a3,a2
   1dd5c:	01e70633          	add	a2,a4,t5
   1dd60:	01f78fb3          	add	t6,a5,t6
   1dd64:	00e63733          	sltu	a4,a2,a4
   1dd68:	00ef8733          	add	a4,t6,a4
   1dd6c:	00ffb433          	sltu	s0,t6,a5
   1dd70:	01f73fb3          	sltu	t6,a4,t6
   1dd74:	01f46433          	or	s0,s0,t6
   1dd78:	00d40433          	add	s0,s0,a3
   1dd7c:	00b40433          	add	s0,s0,a1
   1dd80:	01775793          	srli	a5,a4,0x17
   1dd84:	00941413          	slli	s0,s0,0x9
   1dd88:	00f46433          	or	s0,s0,a5
   1dd8c:	00961793          	slli	a5,a2,0x9
   1dd90:	0067e7b3          	or	a5,a5,t1
   1dd94:	00f037b3          	snez	a5,a5
   1dd98:	01765613          	srli	a2,a2,0x17
   1dd9c:	00971713          	slli	a4,a4,0x9
   1dda0:	00c7e7b3          	or	a5,a5,a2
   1dda4:	00e7e7b3          	or	a5,a5,a4
   1dda8:	01000737          	lui	a4,0x1000
   1ddac:	00e47733          	and	a4,s0,a4
   1ddb0:	28070063          	beqz	a4,1e030 <__muldf3+0x5c0>
   1ddb4:	0017d713          	srli	a4,a5,0x1
   1ddb8:	0017f793          	andi	a5,a5,1
   1ddbc:	00f76733          	or	a4,a4,a5
   1ddc0:	01f41793          	slli	a5,s0,0x1f
   1ddc4:	00f767b3          	or	a5,a4,a5
   1ddc8:	00145413          	srli	s0,s0,0x1
   1ddcc:	3ff88693          	addi	a3,a7,1023
   1ddd0:	26d05463          	blez	a3,1e038 <__muldf3+0x5c8>
   1ddd4:	0077f713          	andi	a4,a5,7
   1ddd8:	02070063          	beqz	a4,1ddf8 <__muldf3+0x388>
   1dddc:	00f7f713          	andi	a4,a5,15
   1dde0:	00400613          	li	a2,4
   1dde4:	00c70a63          	beq	a4,a2,1ddf8 <__muldf3+0x388>
   1dde8:	00478713          	addi	a4,a5,4
   1ddec:	00f73633          	sltu	a2,a4,a5
   1ddf0:	00c40433          	add	s0,s0,a2
   1ddf4:	00070793          	mv	a5,a4
   1ddf8:	01000737          	lui	a4,0x1000
   1ddfc:	00e47733          	and	a4,s0,a4
   1de00:	00070a63          	beqz	a4,1de14 <__muldf3+0x3a4>
   1de04:	ff000737          	lui	a4,0xff000
   1de08:	fff70713          	addi	a4,a4,-1 # feffffff <__BSS_END__+0xfefdc4fb>
   1de0c:	00e47433          	and	s0,s0,a4
   1de10:	40088693          	addi	a3,a7,1024
   1de14:	7fe00713          	li	a4,2046
   1de18:	2ed74a63          	blt	a4,a3,1e10c <__muldf3+0x69c>
   1de1c:	01d41713          	slli	a4,s0,0x1d
   1de20:	0037d793          	srli	a5,a5,0x3
   1de24:	00f76733          	or	a4,a4,a5
   1de28:	00345413          	srli	s0,s0,0x3
   1de2c:	00c41413          	slli	s0,s0,0xc
   1de30:	00c45413          	srli	s0,s0,0xc
   1de34:	01469693          	slli	a3,a3,0x14
   1de38:	02c12083          	lw	ra,44(sp)
   1de3c:	0086e6b3          	or	a3,a3,s0
   1de40:	02812403          	lw	s0,40(sp)
   1de44:	01f81813          	slli	a6,a6,0x1f
   1de48:	0106e7b3          	or	a5,a3,a6
   1de4c:	02412483          	lw	s1,36(sp)
   1de50:	02012903          	lw	s2,32(sp)
   1de54:	01c12983          	lw	s3,28(sp)
   1de58:	01812a03          	lw	s4,24(sp)
   1de5c:	01412a83          	lw	s5,20(sp)
   1de60:	01012b03          	lw	s6,16(sp)
   1de64:	00c12b83          	lw	s7,12(sp)
   1de68:	00070513          	mv	a0,a4
   1de6c:	00078593          	mv	a1,a5
   1de70:	03010113          	addi	sp,sp,48
   1de74:	00008067          	ret
   1de78:	00a4ea33          	or	s4,s1,a0
   1de7c:	080a0063          	beqz	s4,1defc <__muldf3+0x48c>
   1de80:	04048063          	beqz	s1,1dec0 <__muldf3+0x450>
   1de84:	00048513          	mv	a0,s1
   1de88:	691030ef          	jal	ra,21d18 <__clzsi2>
   1de8c:	ff550713          	addi	a4,a0,-11
   1de90:	01d00793          	li	a5,29
   1de94:	ff850693          	addi	a3,a0,-8
   1de98:	40e787b3          	sub	a5,a5,a4
   1de9c:	00d494b3          	sll	s1,s1,a3
   1dea0:	00f457b3          	srl	a5,s0,a5
   1dea4:	0097e7b3          	or	a5,a5,s1
   1dea8:	00d414b3          	sll	s1,s0,a3
   1deac:	c0d00a93          	li	s5,-1011
   1deb0:	00048a13          	mv	s4,s1
   1deb4:	40aa8ab3          	sub	s5,s5,a0
   1deb8:	00078493          	mv	s1,a5
   1debc:	c25ff06f          	j	1dae0 <__muldf3+0x70>
   1dec0:	659030ef          	jal	ra,21d18 <__clzsi2>
   1dec4:	00050793          	mv	a5,a0
   1dec8:	01578713          	addi	a4,a5,21
   1decc:	01c00693          	li	a3,28
   1ded0:	02050513          	addi	a0,a0,32
   1ded4:	fae6dee3          	bge	a3,a4,1de90 <__muldf3+0x420>
   1ded8:	ff878793          	addi	a5,a5,-8
   1dedc:	00f417b3          	sll	a5,s0,a5
   1dee0:	fcdff06f          	j	1deac <__muldf3+0x43c>
   1dee4:	00a4ea33          	or	s4,s1,a0
   1dee8:	020a0263          	beqz	s4,1df0c <__muldf3+0x49c>
   1deec:	00050a13          	mv	s4,a0
   1def0:	7ff00a93          	li	s5,2047
   1def4:	00300b93          	li	s7,3
   1def8:	bedff06f          	j	1dae4 <__muldf3+0x74>
   1defc:	00000493          	li	s1,0
   1df00:	00000a93          	li	s5,0
   1df04:	00100b93          	li	s7,1
   1df08:	bddff06f          	j	1dae4 <__muldf3+0x74>
   1df0c:	00000493          	li	s1,0
   1df10:	7ff00a93          	li	s5,2047
   1df14:	00200b93          	li	s7,2
   1df18:	bcdff06f          	j	1dae4 <__muldf3+0x74>
   1df1c:	016467b3          	or	a5,s0,s6
   1df20:	08078263          	beqz	a5,1dfa4 <__muldf3+0x534>
   1df24:	04040063          	beqz	s0,1df64 <__muldf3+0x4f4>
   1df28:	00040513          	mv	a0,s0
   1df2c:	5ed030ef          	jal	ra,21d18 <__clzsi2>
   1df30:	ff550693          	addi	a3,a0,-11
   1df34:	01d00713          	li	a4,29
   1df38:	ff850793          	addi	a5,a0,-8
   1df3c:	40d70733          	sub	a4,a4,a3
   1df40:	00f41433          	sll	s0,s0,a5
   1df44:	00eb5733          	srl	a4,s6,a4
   1df48:	00876733          	or	a4,a4,s0
   1df4c:	00fb1433          	sll	s0,s6,a5
   1df50:	c0d00693          	li	a3,-1011
   1df54:	00040793          	mv	a5,s0
   1df58:	40a686b3          	sub	a3,a3,a0
   1df5c:	00070413          	mv	s0,a4
   1df60:	bc1ff06f          	j	1db20 <__muldf3+0xb0>
   1df64:	000b0513          	mv	a0,s6
   1df68:	5b1030ef          	jal	ra,21d18 <__clzsi2>
   1df6c:	00050793          	mv	a5,a0
   1df70:	01578693          	addi	a3,a5,21
   1df74:	01c00713          	li	a4,28
   1df78:	02050513          	addi	a0,a0,32
   1df7c:	fad75ce3          	bge	a4,a3,1df34 <__muldf3+0x4c4>
   1df80:	ff878793          	addi	a5,a5,-8
   1df84:	00fb1733          	sll	a4,s6,a5
   1df88:	fc9ff06f          	j	1df50 <__muldf3+0x4e0>
   1df8c:	016467b3          	or	a5,s0,s6
   1df90:	02078263          	beqz	a5,1dfb4 <__muldf3+0x544>
   1df94:	000b0793          	mv	a5,s6
   1df98:	7ff00693          	li	a3,2047
   1df9c:	00300613          	li	a2,3
   1dfa0:	b85ff06f          	j	1db24 <__muldf3+0xb4>
   1dfa4:	00000413          	li	s0,0
   1dfa8:	00000693          	li	a3,0
   1dfac:	00100613          	li	a2,1
   1dfb0:	b75ff06f          	j	1db24 <__muldf3+0xb4>
   1dfb4:	00000413          	li	s0,0
   1dfb8:	7ff00693          	li	a3,2047
   1dfbc:	00200613          	li	a2,2
   1dfc0:	b65ff06f          	j	1db24 <__muldf3+0xb4>
   1dfc4:	00100693          	li	a3,1
   1dfc8:	00e696b3          	sll	a3,a3,a4
   1dfcc:	5306f713          	andi	a4,a3,1328
   1dfd0:	04071863          	bnez	a4,1e020 <__muldf3+0x5b0>
   1dfd4:	2406f593          	andi	a1,a3,576
   1dfd8:	10059c63          	bnez	a1,1e0f0 <__muldf3+0x680>
   1dfdc:	0886f693          	andi	a3,a3,136
   1dfe0:	b6068ae3          	beqz	a3,1db54 <__muldf3+0xe4>
   1dfe4:	00090813          	mv	a6,s2
   1dfe8:	00200713          	li	a4,2
   1dfec:	12e60063          	beq	a2,a4,1e10c <__muldf3+0x69c>
   1dff0:	00300713          	li	a4,3
   1dff4:	10e60663          	beq	a2,a4,1e100 <__muldf3+0x690>
   1dff8:	00100713          	li	a4,1
   1dffc:	dce618e3          	bne	a2,a4,1ddcc <__muldf3+0x35c>
   1e000:	00000413          	li	s0,0
   1e004:	00000713          	li	a4,0
   1e008:	0ac0006f          	j	1e0b4 <__muldf3+0x644>
   1e00c:	00f00693          	li	a3,15
   1e010:	0ed70863          	beq	a4,a3,1e100 <__muldf3+0x690>
   1e014:	00b00693          	li	a3,11
   1e018:	00098813          	mv	a6,s3
   1e01c:	fcd704e3          	beq	a4,a3,1dfe4 <__muldf3+0x574>
   1e020:	00048413          	mv	s0,s1
   1e024:	000a0793          	mv	a5,s4
   1e028:	000b8613          	mv	a2,s7
   1e02c:	fbdff06f          	j	1dfe8 <__muldf3+0x578>
   1e030:	000a8893          	mv	a7,s5
   1e034:	d99ff06f          	j	1ddcc <__muldf3+0x35c>
   1e038:	00100613          	li	a2,1
   1e03c:	00068c63          	beqz	a3,1e054 <__muldf3+0x5e4>
   1e040:	40d60633          	sub	a2,a2,a3
   1e044:	03800713          	li	a4,56
   1e048:	fac74ce3          	blt	a4,a2,1e000 <__muldf3+0x590>
   1e04c:	01f00713          	li	a4,31
   1e050:	06c74663          	blt	a4,a2,1e0bc <__muldf3+0x64c>
   1e054:	41e88893          	addi	a7,a7,1054
   1e058:	00c7d733          	srl	a4,a5,a2
   1e05c:	011797b3          	sll	a5,a5,a7
   1e060:	00f037b3          	snez	a5,a5
   1e064:	011418b3          	sll	a7,s0,a7
   1e068:	0117e7b3          	or	a5,a5,a7
   1e06c:	00e7e7b3          	or	a5,a5,a4
   1e070:	00c45433          	srl	s0,s0,a2
   1e074:	0077f713          	andi	a4,a5,7
   1e078:	02070063          	beqz	a4,1e098 <__muldf3+0x628>
   1e07c:	00f7f713          	andi	a4,a5,15
   1e080:	00400693          	li	a3,4
   1e084:	00d70a63          	beq	a4,a3,1e098 <__muldf3+0x628>
   1e088:	00478713          	addi	a4,a5,4
   1e08c:	00f736b3          	sltu	a3,a4,a5
   1e090:	00d40433          	add	s0,s0,a3
   1e094:	00070793          	mv	a5,a4
   1e098:	00800737          	lui	a4,0x800
   1e09c:	00e47733          	and	a4,s0,a4
   1e0a0:	06071e63          	bnez	a4,1e11c <__muldf3+0x6ac>
   1e0a4:	01d41713          	slli	a4,s0,0x1d
   1e0a8:	0037d793          	srli	a5,a5,0x3
   1e0ac:	00f76733          	or	a4,a4,a5
   1e0b0:	00345413          	srli	s0,s0,0x3
   1e0b4:	00000693          	li	a3,0
   1e0b8:	d75ff06f          	j	1de2c <__muldf3+0x3bc>
   1e0bc:	fe100713          	li	a4,-31
   1e0c0:	40d70733          	sub	a4,a4,a3
   1e0c4:	02000593          	li	a1,32
   1e0c8:	00e45733          	srl	a4,s0,a4
   1e0cc:	00000693          	li	a3,0
   1e0d0:	00b60663          	beq	a2,a1,1e0dc <__muldf3+0x66c>
   1e0d4:	43e88893          	addi	a7,a7,1086
   1e0d8:	011416b3          	sll	a3,s0,a7
   1e0dc:	00f6e6b3          	or	a3,a3,a5
   1e0e0:	00d036b3          	snez	a3,a3
   1e0e4:	00d767b3          	or	a5,a4,a3
   1e0e8:	00000413          	li	s0,0
   1e0ec:	f89ff06f          	j	1e074 <__muldf3+0x604>
   1e0f0:	00080437          	lui	s0,0x80
   1e0f4:	7ff00693          	li	a3,2047
   1e0f8:	00000813          	li	a6,0
   1e0fc:	d31ff06f          	j	1de2c <__muldf3+0x3bc>
   1e100:	00080437          	lui	s0,0x80
   1e104:	00000713          	li	a4,0
   1e108:	fedff06f          	j	1e0f4 <__muldf3+0x684>
   1e10c:	00000413          	li	s0,0
   1e110:	00000713          	li	a4,0
   1e114:	7ff00693          	li	a3,2047
   1e118:	d15ff06f          	j	1de2c <__muldf3+0x3bc>
   1e11c:	00000413          	li	s0,0
   1e120:	00000713          	li	a4,0
   1e124:	00100693          	li	a3,1
   1e128:	d05ff06f          	j	1de2c <__muldf3+0x3bc>

0001e12c <__subdf3>:
   1e12c:	00100837          	lui	a6,0x100
   1e130:	fff80813          	addi	a6,a6,-1 # fffff <__BSS_END__+0xdc4fb>
   1e134:	fe010113          	addi	sp,sp,-32
   1e138:	00b878b3          	and	a7,a6,a1
   1e13c:	0145d713          	srli	a4,a1,0x14
   1e140:	01d55793          	srli	a5,a0,0x1d
   1e144:	00812c23          	sw	s0,24(sp)
   1e148:	00912a23          	sw	s1,20(sp)
   1e14c:	7ff77413          	andi	s0,a4,2047
   1e150:	01f5d493          	srli	s1,a1,0x1f
   1e154:	00389713          	slli	a4,a7,0x3
   1e158:	00d875b3          	and	a1,a6,a3
   1e15c:	0146d813          	srli	a6,a3,0x14
   1e160:	00e7e7b3          	or	a5,a5,a4
   1e164:	00359593          	slli	a1,a1,0x3
   1e168:	01d65713          	srli	a4,a2,0x1d
   1e16c:	00112e23          	sw	ra,28(sp)
   1e170:	01212823          	sw	s2,16(sp)
   1e174:	01312623          	sw	s3,12(sp)
   1e178:	7ff87813          	andi	a6,a6,2047
   1e17c:	7ff00893          	li	a7,2047
   1e180:	00351513          	slli	a0,a0,0x3
   1e184:	01f6d693          	srli	a3,a3,0x1f
   1e188:	00b76733          	or	a4,a4,a1
   1e18c:	00361613          	slli	a2,a2,0x3
   1e190:	07181c63          	bne	a6,a7,1e208 <__subdf3+0xdc>
   1e194:	00c768b3          	or	a7,a4,a2
   1e198:	80140593          	addi	a1,s0,-2047 # 7f801 <__BSS_END__+0x5bcfd>
   1e19c:	00088e63          	beqz	a7,1e1b8 <__subdf3+0x8c>
   1e1a0:	00068313          	mv	t1,a3
   1e1a4:	42d49a63          	bne	s1,a3,1e5d8 <__subdf3+0x4ac>
   1e1a8:	26058863          	beqz	a1,1e418 <__subdf3+0x2ec>
   1e1ac:	76041a63          	bnez	s0,1e920 <__subdf3+0x7f4>
   1e1b0:	7ff00413          	li	s0,2047
   1e1b4:	1f80006f          	j	1e3ac <__subdf3+0x280>
   1e1b8:	0016c313          	xori	t1,a3,1
   1e1bc:	42649c63          	bne	s1,t1,1e5f4 <__subdf3+0x4c8>
   1e1c0:	24058c63          	beqz	a1,1e418 <__subdf3+0x2ec>
   1e1c4:	fe0406e3          	beqz	s0,1e1b0 <__subdf3+0x84>
   1e1c8:	00000793          	li	a5,0
   1e1cc:	00000513          	li	a0,0
   1e1d0:	7ff00413          	li	s0,2047
   1e1d4:	008006b7          	lui	a3,0x800
   1e1d8:	00d7f6b3          	and	a3,a5,a3
   1e1dc:	74068c63          	beqz	a3,1e934 <__subdf3+0x808>
   1e1e0:	00140413          	addi	s0,s0,1
   1e1e4:	7ff00713          	li	a4,2047
   1e1e8:	10e40663          	beq	s0,a4,1e2f4 <__subdf3+0x1c8>
   1e1ec:	ff800737          	lui	a4,0xff800
   1e1f0:	fff70713          	addi	a4,a4,-1 # ff7fffff <__BSS_END__+0xff7dc4fb>
   1e1f4:	00e7f7b3          	and	a5,a5,a4
   1e1f8:	00355513          	srli	a0,a0,0x3
   1e1fc:	01d79693          	slli	a3,a5,0x1d
   1e200:	00a6e6b3          	or	a3,a3,a0
   1e204:	6bc0006f          	j	1e8c0 <__subdf3+0x794>
   1e208:	0016c313          	xori	t1,a3,1
   1e20c:	410405b3          	sub	a1,s0,a6
   1e210:	2c649a63          	bne	s1,t1,1e4e4 <__subdf3+0x3b8>
   1e214:	12b05863          	blez	a1,1e344 <__subdf3+0x218>
   1e218:	06081663          	bnez	a6,1e284 <__subdf3+0x158>
   1e21c:	00c766b3          	or	a3,a4,a2
   1e220:	70068663          	beqz	a3,1e92c <__subdf3+0x800>
   1e224:	fff58693          	addi	a3,a1,-1 # 7fffff <__BSS_END__+0x7dc4fb>
   1e228:	04069863          	bnez	a3,1e278 <__subdf3+0x14c>
   1e22c:	00c50633          	add	a2,a0,a2
   1e230:	00a636b3          	sltu	a3,a2,a0
   1e234:	00e78733          	add	a4,a5,a4
   1e238:	00d707b3          	add	a5,a4,a3
   1e23c:	00800737          	lui	a4,0x800
   1e240:	00e7f733          	and	a4,a5,a4
   1e244:	00060513          	mv	a0,a2
   1e248:	26071863          	bnez	a4,1e4b8 <__subdf3+0x38c>
   1e24c:	00100413          	li	s0,1
   1e250:	00757713          	andi	a4,a0,7
   1e254:	f80700e3          	beqz	a4,1e1d4 <__subdf3+0xa8>
   1e258:	00f57713          	andi	a4,a0,15
   1e25c:	00400693          	li	a3,4
   1e260:	f6d70ae3          	beq	a4,a3,1e1d4 <__subdf3+0xa8>
   1e264:	00450713          	addi	a4,a0,4
   1e268:	00a736b3          	sltu	a3,a4,a0
   1e26c:	00d787b3          	add	a5,a5,a3
   1e270:	00070513          	mv	a0,a4
   1e274:	f61ff06f          	j	1e1d4 <__subdf3+0xa8>
   1e278:	09159263          	bne	a1,a7,1e2fc <__subdf3+0x1d0>
   1e27c:	7ff00413          	li	s0,2047
   1e280:	fd1ff06f          	j	1e250 <__subdf3+0x124>
   1e284:	fd1406e3          	beq	s0,a7,1e250 <__subdf3+0x124>
   1e288:	03800693          	li	a3,56
   1e28c:	06b6cc63          	blt	a3,a1,1e304 <__subdf3+0x1d8>
   1e290:	008006b7          	lui	a3,0x800
   1e294:	00d76733          	or	a4,a4,a3
   1e298:	00058693          	mv	a3,a1
   1e29c:	01f00593          	li	a1,31
   1e2a0:	06d5c863          	blt	a1,a3,1e310 <__subdf3+0x1e4>
   1e2a4:	02000813          	li	a6,32
   1e2a8:	40d80833          	sub	a6,a6,a3
   1e2ac:	00d658b3          	srl	a7,a2,a3
   1e2b0:	010715b3          	sll	a1,a4,a6
   1e2b4:	01061833          	sll	a6,a2,a6
   1e2b8:	0115e5b3          	or	a1,a1,a7
   1e2bc:	01003833          	snez	a6,a6
   1e2c0:	0105e633          	or	a2,a1,a6
   1e2c4:	00d756b3          	srl	a3,a4,a3
   1e2c8:	00a60533          	add	a0,a2,a0
   1e2cc:	00f686b3          	add	a3,a3,a5
   1e2d0:	00c53633          	sltu	a2,a0,a2
   1e2d4:	00c687b3          	add	a5,a3,a2
   1e2d8:	00800737          	lui	a4,0x800
   1e2dc:	00e7f733          	and	a4,a5,a4
   1e2e0:	f60708e3          	beqz	a4,1e250 <__subdf3+0x124>
   1e2e4:	00140413          	addi	s0,s0,1
   1e2e8:	7ff00713          	li	a4,2047
   1e2ec:	1ce41863          	bne	s0,a4,1e4bc <__subdf3+0x390>
   1e2f0:	7ff00413          	li	s0,2047
   1e2f4:	00000793          	li	a5,0
   1e2f8:	1880006f          	j	1e480 <__subdf3+0x354>
   1e2fc:	03800593          	li	a1,56
   1e300:	f8d5dee3          	bge	a1,a3,1e29c <__subdf3+0x170>
   1e304:	00000693          	li	a3,0
   1e308:	00100613          	li	a2,1
   1e30c:	fbdff06f          	j	1e2c8 <__subdf3+0x19c>
   1e310:	fe068593          	addi	a1,a3,-32 # 7fffe0 <__BSS_END__+0x7dc4dc>
   1e314:	02000893          	li	a7,32
   1e318:	00b755b3          	srl	a1,a4,a1
   1e31c:	00000813          	li	a6,0
   1e320:	01168863          	beq	a3,a7,1e330 <__subdf3+0x204>
   1e324:	04000813          	li	a6,64
   1e328:	40d80833          	sub	a6,a6,a3
   1e32c:	01071833          	sll	a6,a4,a6
   1e330:	00c86833          	or	a6,a6,a2
   1e334:	01003833          	snez	a6,a6
   1e338:	0105e633          	or	a2,a1,a6
   1e33c:	00000693          	li	a3,0
   1e340:	f89ff06f          	j	1e2c8 <__subdf3+0x19c>
   1e344:	0c058a63          	beqz	a1,1e418 <__subdf3+0x2ec>
   1e348:	408806b3          	sub	a3,a6,s0
   1e34c:	04040e63          	beqz	s0,1e3a8 <__subdf3+0x27c>
   1e350:	03800593          	li	a1,56
   1e354:	08d5c263          	blt	a1,a3,1e3d8 <__subdf3+0x2ac>
   1e358:	008005b7          	lui	a1,0x800
   1e35c:	00b7e7b3          	or	a5,a5,a1
   1e360:	01f00593          	li	a1,31
   1e364:	08d5c063          	blt	a1,a3,1e3e4 <__subdf3+0x2b8>
   1e368:	02000893          	li	a7,32
   1e36c:	40d888b3          	sub	a7,a7,a3
   1e370:	011795b3          	sll	a1,a5,a7
   1e374:	00d55333          	srl	t1,a0,a3
   1e378:	011518b3          	sll	a7,a0,a7
   1e37c:	0065e5b3          	or	a1,a1,t1
   1e380:	011038b3          	snez	a7,a7
   1e384:	0115e5b3          	or	a1,a1,a7
   1e388:	00d7d6b3          	srl	a3,a5,a3
   1e38c:	00c58633          	add	a2,a1,a2
   1e390:	00e686b3          	add	a3,a3,a4
   1e394:	00b635b3          	sltu	a1,a2,a1
   1e398:	00060513          	mv	a0,a2
   1e39c:	00b687b3          	add	a5,a3,a1
   1e3a0:	00080413          	mv	s0,a6
   1e3a4:	f35ff06f          	j	1e2d8 <__subdf3+0x1ac>
   1e3a8:	00068413          	mv	s0,a3
   1e3ac:	00a7e6b3          	or	a3,a5,a0
   1e3b0:	00068a63          	beqz	a3,1e3c4 <__subdf3+0x298>
   1e3b4:	fff40693          	addi	a3,s0,-1
   1e3b8:	e6068ae3          	beqz	a3,1e22c <__subdf3+0x100>
   1e3bc:	7ff00593          	li	a1,2047
   1e3c0:	00b41863          	bne	s0,a1,1e3d0 <__subdf3+0x2a4>
   1e3c4:	00070793          	mv	a5,a4
   1e3c8:	00060513          	mv	a0,a2
   1e3cc:	e85ff06f          	j	1e250 <__subdf3+0x124>
   1e3d0:	03800593          	li	a1,56
   1e3d4:	f8d5d6e3          	bge	a1,a3,1e360 <__subdf3+0x234>
   1e3d8:	00000693          	li	a3,0
   1e3dc:	00100593          	li	a1,1
   1e3e0:	fadff06f          	j	1e38c <__subdf3+0x260>
   1e3e4:	fe068593          	addi	a1,a3,-32
   1e3e8:	02000313          	li	t1,32
   1e3ec:	00b7d5b3          	srl	a1,a5,a1
   1e3f0:	00000893          	li	a7,0
   1e3f4:	00668863          	beq	a3,t1,1e404 <__subdf3+0x2d8>
   1e3f8:	04000893          	li	a7,64
   1e3fc:	40d888b3          	sub	a7,a7,a3
   1e400:	011798b3          	sll	a7,a5,a7
   1e404:	00a8e8b3          	or	a7,a7,a0
   1e408:	011038b3          	snez	a7,a7
   1e40c:	0115e5b3          	or	a1,a1,a7
   1e410:	00000693          	li	a3,0
   1e414:	f79ff06f          	j	1e38c <__subdf3+0x260>
   1e418:	00140693          	addi	a3,s0,1
   1e41c:	7fe6f593          	andi	a1,a3,2046
   1e420:	06059463          	bnez	a1,1e488 <__subdf3+0x35c>
   1e424:	00a7e6b3          	or	a3,a5,a0
   1e428:	04041063          	bnez	s0,1e468 <__subdf3+0x33c>
   1e42c:	f8068ce3          	beqz	a3,1e3c4 <__subdf3+0x298>
   1e430:	00c766b3          	or	a3,a4,a2
   1e434:	e0068ee3          	beqz	a3,1e250 <__subdf3+0x124>
   1e438:	00c50633          	add	a2,a0,a2
   1e43c:	00a636b3          	sltu	a3,a2,a0
   1e440:	00e78733          	add	a4,a5,a4
   1e444:	00d707b3          	add	a5,a4,a3
   1e448:	00800737          	lui	a4,0x800
   1e44c:	00e7f733          	and	a4,a5,a4
   1e450:	00060513          	mv	a0,a2
   1e454:	de070ee3          	beqz	a4,1e250 <__subdf3+0x124>
   1e458:	ff800737          	lui	a4,0xff800
   1e45c:	fff70713          	addi	a4,a4,-1 # ff7fffff <__BSS_END__+0xff7dc4fb>
   1e460:	00e7f7b3          	and	a5,a5,a4
   1e464:	de9ff06f          	j	1e24c <__subdf3+0x120>
   1e468:	4a068c63          	beqz	a3,1e920 <__subdf3+0x7f4>
   1e46c:	00c76633          	or	a2,a4,a2
   1e470:	e00606e3          	beqz	a2,1e27c <__subdf3+0x150>
   1e474:	00000493          	li	s1,0
   1e478:	7ff00413          	li	s0,2047
   1e47c:	000807b7          	lui	a5,0x80
   1e480:	00000693          	li	a3,0
   1e484:	4400006f          	j	1e8c4 <__subdf3+0x798>
   1e488:	7ff00593          	li	a1,2047
   1e48c:	e6b682e3          	beq	a3,a1,1e2f0 <__subdf3+0x1c4>
   1e490:	00c50633          	add	a2,a0,a2
   1e494:	00a63533          	sltu	a0,a2,a0
   1e498:	00e78733          	add	a4,a5,a4
   1e49c:	00a70733          	add	a4,a4,a0
   1e4a0:	01f71513          	slli	a0,a4,0x1f
   1e4a4:	00165613          	srli	a2,a2,0x1
   1e4a8:	00c56533          	or	a0,a0,a2
   1e4ac:	00175793          	srli	a5,a4,0x1
   1e4b0:	00068413          	mv	s0,a3
   1e4b4:	d9dff06f          	j	1e250 <__subdf3+0x124>
   1e4b8:	00200413          	li	s0,2
   1e4bc:	ff800737          	lui	a4,0xff800
   1e4c0:	fff70713          	addi	a4,a4,-1 # ff7fffff <__BSS_END__+0xff7dc4fb>
   1e4c4:	00e7f7b3          	and	a5,a5,a4
   1e4c8:	00155713          	srli	a4,a0,0x1
   1e4cc:	00157513          	andi	a0,a0,1
   1e4d0:	00a76733          	or	a4,a4,a0
   1e4d4:	01f79513          	slli	a0,a5,0x1f
   1e4d8:	00e56533          	or	a0,a0,a4
   1e4dc:	0017d793          	srli	a5,a5,0x1
   1e4e0:	d71ff06f          	j	1e250 <__subdf3+0x124>
   1e4e4:	12b05663          	blez	a1,1e610 <__subdf3+0x4e4>
   1e4e8:	04081463          	bnez	a6,1e530 <__subdf3+0x404>
   1e4ec:	00c766b3          	or	a3,a4,a2
   1e4f0:	42068e63          	beqz	a3,1e92c <__subdf3+0x800>
   1e4f4:	fff58693          	addi	a3,a1,-1 # 7fffff <__BSS_END__+0x7dc4fb>
   1e4f8:	02069063          	bnez	a3,1e518 <__subdf3+0x3ec>
   1e4fc:	40c50633          	sub	a2,a0,a2
   1e500:	00c536b3          	sltu	a3,a0,a2
   1e504:	40e78733          	sub	a4,a5,a4
   1e508:	00060513          	mv	a0,a2
   1e50c:	40d707b3          	sub	a5,a4,a3
   1e510:	00100413          	li	s0,1
   1e514:	0740006f          	j	1e588 <__subdf3+0x45c>
   1e518:	d71582e3          	beq	a1,a7,1e27c <__subdf3+0x150>
   1e51c:	03800593          	li	a1,56
   1e520:	02d5d463          	bge	a1,a3,1e548 <__subdf3+0x41c>
   1e524:	00000693          	li	a3,0
   1e528:	00100613          	li	a2,1
   1e52c:	0480006f          	j	1e574 <__subdf3+0x448>
   1e530:	d31400e3          	beq	s0,a7,1e250 <__subdf3+0x124>
   1e534:	03800693          	li	a3,56
   1e538:	feb6c6e3          	blt	a3,a1,1e524 <__subdf3+0x3f8>
   1e53c:	008006b7          	lui	a3,0x800
   1e540:	00d76733          	or	a4,a4,a3
   1e544:	00058693          	mv	a3,a1
   1e548:	01f00593          	li	a1,31
   1e54c:	04d5cc63          	blt	a1,a3,1e5a4 <__subdf3+0x478>
   1e550:	02000813          	li	a6,32
   1e554:	40d80833          	sub	a6,a6,a3
   1e558:	00d658b3          	srl	a7,a2,a3
   1e55c:	010715b3          	sll	a1,a4,a6
   1e560:	01061833          	sll	a6,a2,a6
   1e564:	0115e5b3          	or	a1,a1,a7
   1e568:	01003833          	snez	a6,a6
   1e56c:	0105e633          	or	a2,a1,a6
   1e570:	00d756b3          	srl	a3,a4,a3
   1e574:	40c50633          	sub	a2,a0,a2
   1e578:	00c53733          	sltu	a4,a0,a2
   1e57c:	40d786b3          	sub	a3,a5,a3
   1e580:	00060513          	mv	a0,a2
   1e584:	40e687b3          	sub	a5,a3,a4
   1e588:	00800737          	lui	a4,0x800
   1e58c:	00e7f6b3          	and	a3,a5,a4
   1e590:	cc0680e3          	beqz	a3,1e250 <__subdf3+0x124>
   1e594:	fff70713          	addi	a4,a4,-1 # 7fffff <__BSS_END__+0x7dc4fb>
   1e598:	00e7f9b3          	and	s3,a5,a4
   1e59c:	00050913          	mv	s2,a0
   1e5a0:	23c0006f          	j	1e7dc <__subdf3+0x6b0>
   1e5a4:	fe068593          	addi	a1,a3,-32 # 7fffe0 <__BSS_END__+0x7dc4dc>
   1e5a8:	02000893          	li	a7,32
   1e5ac:	00b755b3          	srl	a1,a4,a1
   1e5b0:	00000813          	li	a6,0
   1e5b4:	01168863          	beq	a3,a7,1e5c4 <__subdf3+0x498>
   1e5b8:	04000813          	li	a6,64
   1e5bc:	40d80833          	sub	a6,a6,a3
   1e5c0:	01071833          	sll	a6,a4,a6
   1e5c4:	00c86833          	or	a6,a6,a2
   1e5c8:	01003833          	snez	a6,a6
   1e5cc:	0105e633          	or	a2,a1,a6
   1e5d0:	00000693          	li	a3,0
   1e5d4:	fa1ff06f          	j	1e574 <__subdf3+0x448>
   1e5d8:	12058c63          	beqz	a1,1e710 <__subdf3+0x5e4>
   1e5dc:	06040663          	beqz	s0,1e648 <__subdf3+0x51c>
   1e5e0:	00070793          	mv	a5,a4
   1e5e4:	00060513          	mv	a0,a2
   1e5e8:	7ff00413          	li	s0,2047
   1e5ec:	00068493          	mv	s1,a3
   1e5f0:	c61ff06f          	j	1e250 <__subdf3+0x124>
   1e5f4:	10058e63          	beqz	a1,1e710 <__subdf3+0x5e4>
   1e5f8:	04040e63          	beqz	s0,1e654 <__subdf3+0x528>
   1e5fc:	00000793          	li	a5,0
   1e600:	00000513          	li	a0,0
   1e604:	7ff00413          	li	s0,2047
   1e608:	00030493          	mv	s1,t1
   1e60c:	bc9ff06f          	j	1e1d4 <__subdf3+0xa8>
   1e610:	10058063          	beqz	a1,1e710 <__subdf3+0x5e4>
   1e614:	408806b3          	sub	a3,a6,s0
   1e618:	06041063          	bnez	s0,1e678 <__subdf3+0x54c>
   1e61c:	00030493          	mv	s1,t1
   1e620:	00068413          	mv	s0,a3
   1e624:	00a7e6b3          	or	a3,a5,a0
   1e628:	d8068ee3          	beqz	a3,1e3c4 <__subdf3+0x298>
   1e62c:	fff40693          	addi	a3,s0,-1
   1e630:	02069663          	bnez	a3,1e65c <__subdf3+0x530>
   1e634:	40a60533          	sub	a0,a2,a0
   1e638:	40f70733          	sub	a4,a4,a5
   1e63c:	00a63633          	sltu	a2,a2,a0
   1e640:	40c707b3          	sub	a5,a4,a2
   1e644:	ecdff06f          	j	1e510 <__subdf3+0x3e4>
   1e648:	00068493          	mv	s1,a3
   1e64c:	7ff00413          	li	s0,2047
   1e650:	fd5ff06f          	j	1e624 <__subdf3+0x4f8>
   1e654:	00030493          	mv	s1,t1
   1e658:	ff5ff06f          	j	1e64c <__subdf3+0x520>
   1e65c:	7ff00593          	li	a1,2047
   1e660:	d6b402e3          	beq	s0,a1,1e3c4 <__subdf3+0x298>
   1e664:	03800593          	li	a1,56
   1e668:	02d5d263          	bge	a1,a3,1e68c <__subdf3+0x560>
   1e66c:	00000693          	li	a3,0
   1e670:	00100593          	li	a1,1
   1e674:	0440006f          	j	1e6b8 <__subdf3+0x58c>
   1e678:	03800593          	li	a1,56
   1e67c:	08d5c663          	blt	a1,a3,1e708 <__subdf3+0x5dc>
   1e680:	008005b7          	lui	a1,0x800
   1e684:	00b7e7b3          	or	a5,a5,a1
   1e688:	00030493          	mv	s1,t1
   1e68c:	01f00593          	li	a1,31
   1e690:	04d5c263          	blt	a1,a3,1e6d4 <__subdf3+0x5a8>
   1e694:	02000893          	li	a7,32
   1e698:	40d888b3          	sub	a7,a7,a3
   1e69c:	011795b3          	sll	a1,a5,a7
   1e6a0:	00d55333          	srl	t1,a0,a3
   1e6a4:	011518b3          	sll	a7,a0,a7
   1e6a8:	0065e5b3          	or	a1,a1,t1
   1e6ac:	011038b3          	snez	a7,a7
   1e6b0:	0115e5b3          	or	a1,a1,a7
   1e6b4:	00d7d6b3          	srl	a3,a5,a3
   1e6b8:	40b605b3          	sub	a1,a2,a1
   1e6bc:	40d706b3          	sub	a3,a4,a3
   1e6c0:	00b63633          	sltu	a2,a2,a1
   1e6c4:	00058513          	mv	a0,a1
   1e6c8:	40c687b3          	sub	a5,a3,a2
   1e6cc:	00080413          	mv	s0,a6
   1e6d0:	eb9ff06f          	j	1e588 <__subdf3+0x45c>
   1e6d4:	fe068593          	addi	a1,a3,-32
   1e6d8:	02000313          	li	t1,32
   1e6dc:	00b7d5b3          	srl	a1,a5,a1
   1e6e0:	00000893          	li	a7,0
   1e6e4:	00668863          	beq	a3,t1,1e6f4 <__subdf3+0x5c8>
   1e6e8:	04000893          	li	a7,64
   1e6ec:	40d888b3          	sub	a7,a7,a3
   1e6f0:	011798b3          	sll	a7,a5,a7
   1e6f4:	00a8e8b3          	or	a7,a7,a0
   1e6f8:	011038b3          	snez	a7,a7
   1e6fc:	0115e5b3          	or	a1,a1,a7
   1e700:	00000693          	li	a3,0
   1e704:	fb5ff06f          	j	1e6b8 <__subdf3+0x58c>
   1e708:	00030493          	mv	s1,t1
   1e70c:	f61ff06f          	j	1e66c <__subdf3+0x540>
   1e710:	00140693          	addi	a3,s0,1
   1e714:	7fe6f693          	andi	a3,a3,2046
   1e718:	08069863          	bnez	a3,1e7a8 <__subdf3+0x67c>
   1e71c:	00c766b3          	or	a3,a4,a2
   1e720:	00a7e5b3          	or	a1,a5,a0
   1e724:	06041263          	bnez	s0,1e788 <__subdf3+0x65c>
   1e728:	00059c63          	bnez	a1,1e740 <__subdf3+0x614>
   1e72c:	22068a63          	beqz	a3,1e960 <__subdf3+0x834>
   1e730:	00070793          	mv	a5,a4
   1e734:	00060513          	mv	a0,a2
   1e738:	00030493          	mv	s1,t1
   1e73c:	b15ff06f          	j	1e250 <__subdf3+0x124>
   1e740:	b00688e3          	beqz	a3,1e250 <__subdf3+0x124>
   1e744:	40c50833          	sub	a6,a0,a2
   1e748:	010536b3          	sltu	a3,a0,a6
   1e74c:	40e785b3          	sub	a1,a5,a4
   1e750:	40d585b3          	sub	a1,a1,a3
   1e754:	008006b7          	lui	a3,0x800
   1e758:	00d5f6b3          	and	a3,a1,a3
   1e75c:	00068c63          	beqz	a3,1e774 <__subdf3+0x648>
   1e760:	40a60533          	sub	a0,a2,a0
   1e764:	40f70733          	sub	a4,a4,a5
   1e768:	00a63633          	sltu	a2,a2,a0
   1e76c:	40c707b3          	sub	a5,a4,a2
   1e770:	fc9ff06f          	j	1e738 <__subdf3+0x60c>
   1e774:	00b866b3          	or	a3,a6,a1
   1e778:	1e068463          	beqz	a3,1e960 <__subdf3+0x834>
   1e77c:	00058793          	mv	a5,a1
   1e780:	00080513          	mv	a0,a6
   1e784:	acdff06f          	j	1e250 <__subdf3+0x124>
   1e788:	00059c63          	bnez	a1,1e7a0 <__subdf3+0x674>
   1e78c:	1c068e63          	beqz	a3,1e968 <__subdf3+0x83c>
   1e790:	00070793          	mv	a5,a4
   1e794:	00060513          	mv	a0,a2
   1e798:	00030493          	mv	s1,t1
   1e79c:	ae1ff06f          	j	1e27c <__subdf3+0x150>
   1e7a0:	ac068ee3          	beqz	a3,1e27c <__subdf3+0x150>
   1e7a4:	cd1ff06f          	j	1e474 <__subdf3+0x348>
   1e7a8:	40c506b3          	sub	a3,a0,a2
   1e7ac:	00d535b3          	sltu	a1,a0,a3
   1e7b0:	40e789b3          	sub	s3,a5,a4
   1e7b4:	40b989b3          	sub	s3,s3,a1
   1e7b8:	008005b7          	lui	a1,0x800
   1e7bc:	00b9f5b3          	and	a1,s3,a1
   1e7c0:	00068913          	mv	s2,a3
   1e7c4:	06058c63          	beqz	a1,1e83c <__subdf3+0x710>
   1e7c8:	40a60933          	sub	s2,a2,a0
   1e7cc:	40f70733          	sub	a4,a4,a5
   1e7d0:	01263633          	sltu	a2,a2,s2
   1e7d4:	40c709b3          	sub	s3,a4,a2
   1e7d8:	00030493          	mv	s1,t1
   1e7dc:	06098a63          	beqz	s3,1e850 <__subdf3+0x724>
   1e7e0:	00098513          	mv	a0,s3
   1e7e4:	534030ef          	jal	ra,21d18 <__clzsi2>
   1e7e8:	ff850793          	addi	a5,a0,-8
   1e7ec:	02000693          	li	a3,32
   1e7f0:	40f686b3          	sub	a3,a3,a5
   1e7f4:	00f99733          	sll	a4,s3,a5
   1e7f8:	00d956b3          	srl	a3,s2,a3
   1e7fc:	00e6e6b3          	or	a3,a3,a4
   1e800:	00f919b3          	sll	s3,s2,a5
   1e804:	1087c263          	blt	a5,s0,1e908 <__subdf3+0x7dc>
   1e808:	408787b3          	sub	a5,a5,s0
   1e80c:	00178793          	addi	a5,a5,1 # 80001 <__BSS_END__+0x5c4fd>
   1e810:	02000713          	li	a4,32
   1e814:	40f70733          	sub	a4,a4,a5
   1e818:	00e69533          	sll	a0,a3,a4
   1e81c:	00f9d633          	srl	a2,s3,a5
   1e820:	00e99733          	sll	a4,s3,a4
   1e824:	00c56533          	or	a0,a0,a2
   1e828:	00e03733          	snez	a4,a4
   1e82c:	00e56533          	or	a0,a0,a4
   1e830:	00f6d7b3          	srl	a5,a3,a5
   1e834:	00000413          	li	s0,0
   1e838:	a19ff06f          	j	1e250 <__subdf3+0x124>
   1e83c:	0136e6b3          	or	a3,a3,s3
   1e840:	f8069ee3          	bnez	a3,1e7dc <__subdf3+0x6b0>
   1e844:	00000793          	li	a5,0
   1e848:	00000413          	li	s0,0
   1e84c:	10c0006f          	j	1e958 <__subdf3+0x82c>
   1e850:	00090513          	mv	a0,s2
   1e854:	4c4030ef          	jal	ra,21d18 <__clzsi2>
   1e858:	01850793          	addi	a5,a0,24
   1e85c:	01f00713          	li	a4,31
   1e860:	f8f756e3          	bge	a4,a5,1e7ec <__subdf3+0x6c0>
   1e864:	ff850513          	addi	a0,a0,-8
   1e868:	00a916b3          	sll	a3,s2,a0
   1e86c:	0487c063          	blt	a5,s0,1e8ac <__subdf3+0x780>
   1e870:	40878533          	sub	a0,a5,s0
   1e874:	00150793          	addi	a5,a0,1
   1e878:	f8f75ce3          	bge	a4,a5,1e810 <__subdf3+0x6e4>
   1e87c:	fe150513          	addi	a0,a0,-31
   1e880:	02000613          	li	a2,32
   1e884:	00a6d733          	srl	a4,a3,a0
   1e888:	00000513          	li	a0,0
   1e88c:	00c78863          	beq	a5,a2,1e89c <__subdf3+0x770>
   1e890:	04000513          	li	a0,64
   1e894:	40f50533          	sub	a0,a0,a5
   1e898:	00a69533          	sll	a0,a3,a0
   1e89c:	00a03533          	snez	a0,a0
   1e8a0:	00e56533          	or	a0,a0,a4
   1e8a4:	00000793          	li	a5,0
   1e8a8:	f8dff06f          	j	1e834 <__subdf3+0x708>
   1e8ac:	40f40433          	sub	s0,s0,a5
   1e8b0:	ff8007b7          	lui	a5,0xff800
   1e8b4:	fff78793          	addi	a5,a5,-1 # ff7fffff <__BSS_END__+0xff7dc4fb>
   1e8b8:	00f6f7b3          	and	a5,a3,a5
   1e8bc:	01d79693          	slli	a3,a5,0x1d
   1e8c0:	0037d793          	srli	a5,a5,0x3
   1e8c4:	01441713          	slli	a4,s0,0x14
   1e8c8:	7ff00637          	lui	a2,0x7ff00
   1e8cc:	00c79793          	slli	a5,a5,0xc
   1e8d0:	01c12083          	lw	ra,28(sp)
   1e8d4:	01812403          	lw	s0,24(sp)
   1e8d8:	00c77733          	and	a4,a4,a2
   1e8dc:	00c7d793          	srli	a5,a5,0xc
   1e8e0:	01f49493          	slli	s1,s1,0x1f
   1e8e4:	00f767b3          	or	a5,a4,a5
   1e8e8:	0097e733          	or	a4,a5,s1
   1e8ec:	01012903          	lw	s2,16(sp)
   1e8f0:	01412483          	lw	s1,20(sp)
   1e8f4:	00c12983          	lw	s3,12(sp)
   1e8f8:	00068513          	mv	a0,a3
   1e8fc:	00070593          	mv	a1,a4
   1e900:	02010113          	addi	sp,sp,32
   1e904:	00008067          	ret
   1e908:	40f40433          	sub	s0,s0,a5
   1e90c:	ff8007b7          	lui	a5,0xff800
   1e910:	fff78793          	addi	a5,a5,-1 # ff7fffff <__BSS_END__+0xff7dc4fb>
   1e914:	00f6f7b3          	and	a5,a3,a5
   1e918:	00098513          	mv	a0,s3
   1e91c:	935ff06f          	j	1e250 <__subdf3+0x124>
   1e920:	00070793          	mv	a5,a4
   1e924:	00060513          	mv	a0,a2
   1e928:	955ff06f          	j	1e27c <__subdf3+0x150>
   1e92c:	00058413          	mv	s0,a1
   1e930:	921ff06f          	j	1e250 <__subdf3+0x124>
   1e934:	01d79713          	slli	a4,a5,0x1d
   1e938:	00355513          	srli	a0,a0,0x3
   1e93c:	7ff00613          	li	a2,2047
   1e940:	00a76733          	or	a4,a4,a0
   1e944:	0037d793          	srli	a5,a5,0x3
   1e948:	02c41863          	bne	s0,a2,1e978 <__subdf3+0x84c>
   1e94c:	00f76733          	or	a4,a4,a5
   1e950:	000807b7          	lui	a5,0x80
   1e954:	98070ee3          	beqz	a4,1e2f0 <__subdf3+0x1c4>
   1e958:	00000493          	li	s1,0
   1e95c:	f69ff06f          	j	1e8c4 <__subdf3+0x798>
   1e960:	00000793          	li	a5,0
   1e964:	ff5ff06f          	j	1e958 <__subdf3+0x82c>
   1e968:	00000493          	li	s1,0
   1e96c:	7ff00413          	li	s0,2047
   1e970:	000807b7          	lui	a5,0x80
   1e974:	f51ff06f          	j	1e8c4 <__subdf3+0x798>
   1e978:	00070693          	mv	a3,a4
   1e97c:	f49ff06f          	j	1e8c4 <__subdf3+0x798>

0001e980 <__fixdfsi>:
   1e980:	0145d713          	srli	a4,a1,0x14
   1e984:	001006b7          	lui	a3,0x100
   1e988:	fff68793          	addi	a5,a3,-1 # fffff <__BSS_END__+0xdc4fb>
   1e98c:	7ff77713          	andi	a4,a4,2047
   1e990:	3fe00613          	li	a2,1022
   1e994:	00b7f7b3          	and	a5,a5,a1
   1e998:	01f5d593          	srli	a1,a1,0x1f
   1e99c:	04e65e63          	bge	a2,a4,1e9f8 <__fixdfsi+0x78>
   1e9a0:	41d00613          	li	a2,1053
   1e9a4:	00e65a63          	bge	a2,a4,1e9b8 <__fixdfsi+0x38>
   1e9a8:	80000537          	lui	a0,0x80000
   1e9ac:	fff54513          	not	a0,a0
   1e9b0:	00a58533          	add	a0,a1,a0
   1e9b4:	00008067          	ret
   1e9b8:	00d7e7b3          	or	a5,a5,a3
   1e9bc:	43300693          	li	a3,1075
   1e9c0:	40e686b3          	sub	a3,a3,a4
   1e9c4:	01f00613          	li	a2,31
   1e9c8:	02d64063          	blt	a2,a3,1e9e8 <__fixdfsi+0x68>
   1e9cc:	bed70713          	addi	a4,a4,-1043
   1e9d0:	00e797b3          	sll	a5,a5,a4
   1e9d4:	00d55533          	srl	a0,a0,a3
   1e9d8:	00a7e533          	or	a0,a5,a0
   1e9dc:	02058063          	beqz	a1,1e9fc <__fixdfsi+0x7c>
   1e9e0:	40a00533          	neg	a0,a0
   1e9e4:	00008067          	ret
   1e9e8:	41300693          	li	a3,1043
   1e9ec:	40e68733          	sub	a4,a3,a4
   1e9f0:	00e7d533          	srl	a0,a5,a4
   1e9f4:	fe9ff06f          	j	1e9dc <__fixdfsi+0x5c>
   1e9f8:	00000513          	li	a0,0
   1e9fc:	00008067          	ret

0001ea00 <__floatsidf>:
   1ea00:	ff010113          	addi	sp,sp,-16
   1ea04:	00112623          	sw	ra,12(sp)
   1ea08:	00812423          	sw	s0,8(sp)
   1ea0c:	00912223          	sw	s1,4(sp)
   1ea10:	08050663          	beqz	a0,1ea9c <__floatsidf+0x9c>
   1ea14:	41f55793          	srai	a5,a0,0x1f
   1ea18:	00a7c433          	xor	s0,a5,a0
   1ea1c:	40f40433          	sub	s0,s0,a5
   1ea20:	01f55493          	srli	s1,a0,0x1f
   1ea24:	00040513          	mv	a0,s0
   1ea28:	2f0030ef          	jal	ra,21d18 <__clzsi2>
   1ea2c:	41e00713          	li	a4,1054
   1ea30:	00a00793          	li	a5,10
   1ea34:	40a70733          	sub	a4,a4,a0
   1ea38:	04a7c863          	blt	a5,a0,1ea88 <__floatsidf+0x88>
   1ea3c:	00b00793          	li	a5,11
   1ea40:	40a787b3          	sub	a5,a5,a0
   1ea44:	01550513          	addi	a0,a0,21 # 80000015 <__BSS_END__+0x7ffdc511>
   1ea48:	00f457b3          	srl	a5,s0,a5
   1ea4c:	00a41433          	sll	s0,s0,a0
   1ea50:	00048513          	mv	a0,s1
   1ea54:	00c79793          	slli	a5,a5,0xc
   1ea58:	00c7d793          	srli	a5,a5,0xc
   1ea5c:	01471713          	slli	a4,a4,0x14
   1ea60:	01f51513          	slli	a0,a0,0x1f
   1ea64:	00f76733          	or	a4,a4,a5
   1ea68:	00c12083          	lw	ra,12(sp)
   1ea6c:	00a767b3          	or	a5,a4,a0
   1ea70:	00040513          	mv	a0,s0
   1ea74:	00812403          	lw	s0,8(sp)
   1ea78:	00412483          	lw	s1,4(sp)
   1ea7c:	00078593          	mv	a1,a5
   1ea80:	01010113          	addi	sp,sp,16
   1ea84:	00008067          	ret
   1ea88:	ff550513          	addi	a0,a0,-11
   1ea8c:	00a417b3          	sll	a5,s0,a0
   1ea90:	00048513          	mv	a0,s1
   1ea94:	00000413          	li	s0,0
   1ea98:	fbdff06f          	j	1ea54 <__floatsidf+0x54>
   1ea9c:	00000713          	li	a4,0
   1eaa0:	00000793          	li	a5,0
   1eaa4:	ff1ff06f          	j	1ea94 <__floatsidf+0x94>

0001eaa8 <__eqtf2>:
   1eaa8:	00c52703          	lw	a4,12(a0)
   1eaac:	00c5a603          	lw	a2,12(a1) # 80000c <__BSS_END__+0x7dc508>
   1eab0:	0005a283          	lw	t0,0(a1)
   1eab4:	0045af83          	lw	t6,4(a1)
   1eab8:	0085af03          	lw	t5,8(a1)
   1eabc:	000085b7          	lui	a1,0x8
   1eac0:	01075813          	srli	a6,a4,0x10
   1eac4:	fff58593          	addi	a1,a1,-1 # 7fff <exit-0x8095>
   1eac8:	01071893          	slli	a7,a4,0x10
   1eacc:	01061e93          	slli	t4,a2,0x10
   1ead0:	01065693          	srli	a3,a2,0x10
   1ead4:	00b87833          	and	a6,a6,a1
   1ead8:	00052783          	lw	a5,0(a0)
   1eadc:	00452e03          	lw	t3,4(a0)
   1eae0:	00852303          	lw	t1,8(a0)
   1eae4:	ff010113          	addi	sp,sp,-16
   1eae8:	0108d893          	srli	a7,a7,0x10
   1eaec:	01f75713          	srli	a4,a4,0x1f
   1eaf0:	010ede93          	srli	t4,t4,0x10
   1eaf4:	00b6f6b3          	and	a3,a3,a1
   1eaf8:	01f65613          	srli	a2,a2,0x1f
   1eafc:	00100513          	li	a0,1
   1eb00:	00b80863          	beq	a6,a1,1eb10 <__eqtf2+0x68>
   1eb04:	02b69e63          	bne	a3,a1,1eb40 <__eqtf2+0x98>
   1eb08:	01010113          	addi	sp,sp,16
   1eb0c:	00008067          	ret
   1eb10:	ff069ce3          	bne	a3,a6,1eb08 <__eqtf2+0x60>
   1eb14:	01c7e7b3          	or	a5,a5,t3
   1eb18:	0067e7b3          	or	a5,a5,t1
   1eb1c:	0117e7b3          	or	a5,a5,a7
   1eb20:	0057e7b3          	or	a5,a5,t0
   1eb24:	01f7e7b3          	or	a5,a5,t6
   1eb28:	01e7e7b3          	or	a5,a5,t5
   1eb2c:	01d7e7b3          	or	a5,a5,t4
   1eb30:	fc079ce3          	bnez	a5,1eb08 <__eqtf2+0x60>
   1eb34:	40c70733          	sub	a4,a4,a2
   1eb38:	00e03533          	snez	a0,a4
   1eb3c:	fcdff06f          	j	1eb08 <__eqtf2+0x60>
   1eb40:	00100513          	li	a0,1
   1eb44:	fd0692e3          	bne	a3,a6,1eb08 <__eqtf2+0x60>
   1eb48:	fc5790e3          	bne	a5,t0,1eb08 <__eqtf2+0x60>
   1eb4c:	fbfe1ee3          	bne	t3,t6,1eb08 <__eqtf2+0x60>
   1eb50:	fbe31ce3          	bne	t1,t5,1eb08 <__eqtf2+0x60>
   1eb54:	fbd89ae3          	bne	a7,t4,1eb08 <__eqtf2+0x60>
   1eb58:	00c70e63          	beq	a4,a2,1eb74 <__eqtf2+0xcc>
   1eb5c:	fa0696e3          	bnez	a3,1eb08 <__eqtf2+0x60>
   1eb60:	01c7e533          	or	a0,a5,t3
   1eb64:	00656533          	or	a0,a0,t1
   1eb68:	01156533          	or	a0,a0,a7
   1eb6c:	00a03533          	snez	a0,a0
   1eb70:	f99ff06f          	j	1eb08 <__eqtf2+0x60>
   1eb74:	00000513          	li	a0,0
   1eb78:	f91ff06f          	j	1eb08 <__eqtf2+0x60>

0001eb7c <__getf2>:
   1eb7c:	00052883          	lw	a7,0(a0)
   1eb80:	00452303          	lw	t1,4(a0)
   1eb84:	00852e03          	lw	t3,8(a0)
   1eb88:	00c52503          	lw	a0,12(a0)
   1eb8c:	00c5a803          	lw	a6,12(a1)
   1eb90:	00008737          	lui	a4,0x8
   1eb94:	01055693          	srli	a3,a0,0x10
   1eb98:	fff70713          	addi	a4,a4,-1 # 7fff <exit-0x8095>
   1eb9c:	01051613          	slli	a2,a0,0x10
   1eba0:	01081f13          	slli	t5,a6,0x10
   1eba4:	0005a783          	lw	a5,0(a1)
   1eba8:	0045af83          	lw	t6,4(a1)
   1ebac:	0085ae83          	lw	t4,8(a1)
   1ebb0:	00e6f6b3          	and	a3,a3,a4
   1ebb4:	01f55593          	srli	a1,a0,0x1f
   1ebb8:	01085513          	srli	a0,a6,0x10
   1ebbc:	ff010113          	addi	sp,sp,-16
   1ebc0:	01065613          	srli	a2,a2,0x10
   1ebc4:	010f5f13          	srli	t5,t5,0x10
   1ebc8:	00e57533          	and	a0,a0,a4
   1ebcc:	01f85813          	srli	a6,a6,0x1f
   1ebd0:	04e69663          	bne	a3,a4,1ec1c <__getf2+0xa0>
   1ebd4:	011368b3          	or	a7,t1,a7
   1ebd8:	01c8e8b3          	or	a7,a7,t3
   1ebdc:	00c8e8b3          	or	a7,a7,a2
   1ebe0:	0e089c63          	bnez	a7,1ecd8 <__getf2+0x15c>
   1ebe4:	00d50a63          	beq	a0,a3,1ebf8 <__getf2+0x7c>
   1ebe8:	00100513          	li	a0,1
   1ebec:	02058463          	beqz	a1,1ec14 <__getf2+0x98>
   1ebf0:	fff00513          	li	a0,-1
   1ebf4:	0200006f          	j	1ec14 <__getf2+0x98>
   1ebf8:	01f7e7b3          	or	a5,a5,t6
   1ebfc:	01d7e7b3          	or	a5,a5,t4
   1ec00:	01e7e7b3          	or	a5,a5,t5
   1ec04:	ffe00513          	li	a0,-2
   1ec08:	00079663          	bnez	a5,1ec14 <__getf2+0x98>
   1ec0c:	00000513          	li	a0,0
   1ec10:	fcb81ce3          	bne	a6,a1,1ebe8 <__getf2+0x6c>
   1ec14:	01010113          	addi	sp,sp,16
   1ec18:	00008067          	ret
   1ec1c:	02e51663          	bne	a0,a4,1ec48 <__getf2+0xcc>
   1ec20:	01f7e733          	or	a4,a5,t6
   1ec24:	01d76733          	or	a4,a4,t4
   1ec28:	01e76733          	or	a4,a4,t5
   1ec2c:	0a071663          	bnez	a4,1ecd8 <__getf2+0x15c>
   1ec30:	02068863          	beqz	a3,1ec60 <__getf2+0xe4>
   1ec34:	fab81ae3          	bne	a6,a1,1ebe8 <__getf2+0x6c>
   1ec38:	fff00513          	li	a0,-1
   1ec3c:	fc058ce3          	beqz	a1,1ec14 <__getf2+0x98>
   1ec40:	00058513          	mv	a0,a1
   1ec44:	fd1ff06f          	j	1ec14 <__getf2+0x98>
   1ec48:	02068c63          	beqz	a3,1ec80 <__getf2+0x104>
   1ec4c:	f8050ee3          	beqz	a0,1ebe8 <__getf2+0x6c>
   1ec50:	f8b81ce3          	bne	a6,a1,1ebe8 <__getf2+0x6c>
   1ec54:	f8d54ae3          	blt	a0,a3,1ebe8 <__getf2+0x6c>
   1ec58:	04a6d863          	bge	a3,a0,1eca8 <__getf2+0x12c>
   1ec5c:	fddff06f          	j	1ec38 <__getf2+0xbc>
   1ec60:	01136733          	or	a4,t1,a7
   1ec64:	01c76733          	or	a4,a4,t3
   1ec68:	00c76733          	or	a4,a4,a2
   1ec6c:	fe0712e3          	bnez	a4,1ec50 <__getf2+0xd4>
   1ec70:	fff00513          	li	a0,-1
   1ec74:	fa0800e3          	beqz	a6,1ec14 <__getf2+0x98>
   1ec78:	00080513          	mv	a0,a6
   1ec7c:	f99ff06f          	j	1ec14 <__getf2+0x98>
   1ec80:	01136733          	or	a4,t1,a7
   1ec84:	01c76733          	or	a4,a4,t3
   1ec88:	00c76733          	or	a4,a4,a2
   1ec8c:	fe0510e3          	bnez	a0,1ec6c <__getf2+0xf0>
   1ec90:	01f7e6b3          	or	a3,a5,t6
   1ec94:	01d6e6b3          	or	a3,a3,t4
   1ec98:	01e6e6b3          	or	a3,a3,t5
   1ec9c:	02068a63          	beqz	a3,1ecd0 <__getf2+0x154>
   1eca0:	fc0708e3          	beqz	a4,1ec70 <__getf2+0xf4>
   1eca4:	f4b812e3          	bne	a6,a1,1ebe8 <__getf2+0x6c>
   1eca8:	f4cf60e3          	bltu	t5,a2,1ebe8 <__getf2+0x6c>
   1ecac:	f9e616e3          	bne	a2,t5,1ec38 <__getf2+0xbc>
   1ecb0:	f3ceece3          	bltu	t4,t3,1ebe8 <__getf2+0x6c>
   1ecb4:	f9de12e3          	bne	t3,t4,1ec38 <__getf2+0xbc>
   1ecb8:	f26fe8e3          	bltu	t6,t1,1ebe8 <__getf2+0x6c>
   1ecbc:	f7f31ee3          	bne	t1,t6,1ec38 <__getf2+0xbc>
   1ecc0:	f317e4e3          	bltu	a5,a7,1ebe8 <__getf2+0x6c>
   1ecc4:	00000513          	li	a0,0
   1ecc8:	f6f8e8e3          	bltu	a7,a5,1ec38 <__getf2+0xbc>
   1eccc:	f49ff06f          	j	1ec14 <__getf2+0x98>
   1ecd0:	f40702e3          	beqz	a4,1ec14 <__getf2+0x98>
   1ecd4:	f15ff06f          	j	1ebe8 <__getf2+0x6c>
   1ecd8:	ffe00513          	li	a0,-2
   1ecdc:	f39ff06f          	j	1ec14 <__getf2+0x98>

0001ece0 <__letf2>:
   1ece0:	00052883          	lw	a7,0(a0)
   1ece4:	00452303          	lw	t1,4(a0)
   1ece8:	00852e03          	lw	t3,8(a0)
   1ecec:	00c52503          	lw	a0,12(a0)
   1ecf0:	00c5a803          	lw	a6,12(a1)
   1ecf4:	00008737          	lui	a4,0x8
   1ecf8:	01055693          	srli	a3,a0,0x10
   1ecfc:	fff70713          	addi	a4,a4,-1 # 7fff <exit-0x8095>
   1ed00:	01051613          	slli	a2,a0,0x10
   1ed04:	01081f13          	slli	t5,a6,0x10
   1ed08:	0005a783          	lw	a5,0(a1)
   1ed0c:	0045af83          	lw	t6,4(a1)
   1ed10:	0085ae83          	lw	t4,8(a1)
   1ed14:	00e6f6b3          	and	a3,a3,a4
   1ed18:	01f55593          	srli	a1,a0,0x1f
   1ed1c:	01085513          	srli	a0,a6,0x10
   1ed20:	ff010113          	addi	sp,sp,-16
   1ed24:	01065613          	srli	a2,a2,0x10
   1ed28:	010f5f13          	srli	t5,t5,0x10
   1ed2c:	00e57533          	and	a0,a0,a4
   1ed30:	01f85813          	srli	a6,a6,0x1f
   1ed34:	04e69663          	bne	a3,a4,1ed80 <__letf2+0xa0>
   1ed38:	011368b3          	or	a7,t1,a7
   1ed3c:	01c8e8b3          	or	a7,a7,t3
   1ed40:	00c8e8b3          	or	a7,a7,a2
   1ed44:	0e089c63          	bnez	a7,1ee3c <__letf2+0x15c>
   1ed48:	00d50a63          	beq	a0,a3,1ed5c <__letf2+0x7c>
   1ed4c:	00100513          	li	a0,1
   1ed50:	02058463          	beqz	a1,1ed78 <__letf2+0x98>
   1ed54:	fff00513          	li	a0,-1
   1ed58:	0200006f          	j	1ed78 <__letf2+0x98>
   1ed5c:	01f7e7b3          	or	a5,a5,t6
   1ed60:	01d7e7b3          	or	a5,a5,t4
   1ed64:	01e7e7b3          	or	a5,a5,t5
   1ed68:	00200513          	li	a0,2
   1ed6c:	00079663          	bnez	a5,1ed78 <__letf2+0x98>
   1ed70:	00000513          	li	a0,0
   1ed74:	fcb81ce3          	bne	a6,a1,1ed4c <__letf2+0x6c>
   1ed78:	01010113          	addi	sp,sp,16
   1ed7c:	00008067          	ret
   1ed80:	02e51663          	bne	a0,a4,1edac <__letf2+0xcc>
   1ed84:	01f7e733          	or	a4,a5,t6
   1ed88:	01d76733          	or	a4,a4,t4
   1ed8c:	01e76733          	or	a4,a4,t5
   1ed90:	0a071663          	bnez	a4,1ee3c <__letf2+0x15c>
   1ed94:	02068863          	beqz	a3,1edc4 <__letf2+0xe4>
   1ed98:	fab81ae3          	bne	a6,a1,1ed4c <__letf2+0x6c>
   1ed9c:	fff00513          	li	a0,-1
   1eda0:	fc058ce3          	beqz	a1,1ed78 <__letf2+0x98>
   1eda4:	00058513          	mv	a0,a1
   1eda8:	fd1ff06f          	j	1ed78 <__letf2+0x98>
   1edac:	02068c63          	beqz	a3,1ede4 <__letf2+0x104>
   1edb0:	f8050ee3          	beqz	a0,1ed4c <__letf2+0x6c>
   1edb4:	f8b81ce3          	bne	a6,a1,1ed4c <__letf2+0x6c>
   1edb8:	f8d54ae3          	blt	a0,a3,1ed4c <__letf2+0x6c>
   1edbc:	04a6d863          	bge	a3,a0,1ee0c <__letf2+0x12c>
   1edc0:	fddff06f          	j	1ed9c <__letf2+0xbc>
   1edc4:	01136733          	or	a4,t1,a7
   1edc8:	01c76733          	or	a4,a4,t3
   1edcc:	00c76733          	or	a4,a4,a2
   1edd0:	fe0712e3          	bnez	a4,1edb4 <__letf2+0xd4>
   1edd4:	fff00513          	li	a0,-1
   1edd8:	fa0800e3          	beqz	a6,1ed78 <__letf2+0x98>
   1eddc:	00080513          	mv	a0,a6
   1ede0:	f99ff06f          	j	1ed78 <__letf2+0x98>
   1ede4:	01136733          	or	a4,t1,a7
   1ede8:	01c76733          	or	a4,a4,t3
   1edec:	00c76733          	or	a4,a4,a2
   1edf0:	fe0510e3          	bnez	a0,1edd0 <__letf2+0xf0>
   1edf4:	01f7e6b3          	or	a3,a5,t6
   1edf8:	01d6e6b3          	or	a3,a3,t4
   1edfc:	01e6e6b3          	or	a3,a3,t5
   1ee00:	02068a63          	beqz	a3,1ee34 <__letf2+0x154>
   1ee04:	fc0708e3          	beqz	a4,1edd4 <__letf2+0xf4>
   1ee08:	f4b812e3          	bne	a6,a1,1ed4c <__letf2+0x6c>
   1ee0c:	f4cf60e3          	bltu	t5,a2,1ed4c <__letf2+0x6c>
   1ee10:	f9e616e3          	bne	a2,t5,1ed9c <__letf2+0xbc>
   1ee14:	f3ceece3          	bltu	t4,t3,1ed4c <__letf2+0x6c>
   1ee18:	f9de12e3          	bne	t3,t4,1ed9c <__letf2+0xbc>
   1ee1c:	f26fe8e3          	bltu	t6,t1,1ed4c <__letf2+0x6c>
   1ee20:	f7f31ee3          	bne	t1,t6,1ed9c <__letf2+0xbc>
   1ee24:	f317e4e3          	bltu	a5,a7,1ed4c <__letf2+0x6c>
   1ee28:	00000513          	li	a0,0
   1ee2c:	f6f8e8e3          	bltu	a7,a5,1ed9c <__letf2+0xbc>
   1ee30:	f49ff06f          	j	1ed78 <__letf2+0x98>
   1ee34:	f40702e3          	beqz	a4,1ed78 <__letf2+0x98>
   1ee38:	f15ff06f          	j	1ed4c <__letf2+0x6c>
   1ee3c:	00200513          	li	a0,2
   1ee40:	f39ff06f          	j	1ed78 <__letf2+0x98>

0001ee44 <__multf3>:
   1ee44:	f6010113          	addi	sp,sp,-160
   1ee48:	09312623          	sw	s3,140(sp)
   1ee4c:	00c5a983          	lw	s3,12(a1)
   1ee50:	0005a783          	lw	a5,0(a1)
   1ee54:	0085a683          	lw	a3,8(a1)
   1ee58:	08812c23          	sw	s0,152(sp)
   1ee5c:	00050413          	mv	s0,a0
   1ee60:	0045a503          	lw	a0,4(a1)
   1ee64:	01099713          	slli	a4,s3,0x10
   1ee68:	09212823          	sw	s2,144(sp)
   1ee6c:	09412423          	sw	s4,136(sp)
   1ee70:	00062903          	lw	s2,0(a2) # 7ff00000 <__BSS_END__+0x7fedc4fc>
   1ee74:	00c62a03          	lw	s4,12(a2)
   1ee78:	09512223          	sw	s5,132(sp)
   1ee7c:	09612023          	sw	s6,128(sp)
   1ee80:	00862a83          	lw	s5,8(a2)
   1ee84:	00462b03          	lw	s6,4(a2)
   1ee88:	00008637          	lui	a2,0x8
   1ee8c:	08912a23          	sw	s1,148(sp)
   1ee90:	01075713          	srli	a4,a4,0x10
   1ee94:	0109d493          	srli	s1,s3,0x10
   1ee98:	fff60613          	addi	a2,a2,-1 # 7fff <exit-0x8095>
   1ee9c:	05312623          	sw	s3,76(sp)
   1eea0:	08112e23          	sw	ra,156(sp)
   1eea4:	07712e23          	sw	s7,124(sp)
   1eea8:	07812c23          	sw	s8,120(sp)
   1eeac:	07912a23          	sw	s9,116(sp)
   1eeb0:	07a12823          	sw	s10,112(sp)
   1eeb4:	07b12623          	sw	s11,108(sp)
   1eeb8:	04f12023          	sw	a5,64(sp)
   1eebc:	04a12223          	sw	a0,68(sp)
   1eec0:	04d12423          	sw	a3,72(sp)
   1eec4:	00f12823          	sw	a5,16(sp)
   1eec8:	00a12a23          	sw	a0,20(sp)
   1eecc:	00d12c23          	sw	a3,24(sp)
   1eed0:	00e12e23          	sw	a4,28(sp)
   1eed4:	00c4f4b3          	and	s1,s1,a2
   1eed8:	01f9d993          	srli	s3,s3,0x1f
   1eedc:	58048ce3          	beqz	s1,1fc74 <__multf3+0xe30>
   1eee0:	6cc48ee3          	beq	s1,a2,1fdbc <__multf3+0xf78>
   1eee4:	000107b7          	lui	a5,0x10
   1eee8:	00f76733          	or	a4,a4,a5
   1eeec:	00e12e23          	sw	a4,28(sp)
   1eef0:	01010613          	addi	a2,sp,16
   1eef4:	01c10793          	addi	a5,sp,28
   1eef8:	0007a703          	lw	a4,0(a5) # 10000 <exit-0x94>
   1eefc:	ffc7a683          	lw	a3,-4(a5)
   1ef00:	ffc78793          	addi	a5,a5,-4
   1ef04:	00371713          	slli	a4,a4,0x3
   1ef08:	01d6d693          	srli	a3,a3,0x1d
   1ef0c:	00d76733          	or	a4,a4,a3
   1ef10:	00e7a223          	sw	a4,4(a5)
   1ef14:	fef612e3          	bne	a2,a5,1eef8 <__multf3+0xb4>
   1ef18:	01012783          	lw	a5,16(sp)
   1ef1c:	00379793          	slli	a5,a5,0x3
   1ef20:	00f12823          	sw	a5,16(sp)
   1ef24:	ffffc7b7          	lui	a5,0xffffc
   1ef28:	00178793          	addi	a5,a5,1 # ffffc001 <__BSS_END__+0xfffd84fd>
   1ef2c:	00f484b3          	add	s1,s1,a5
   1ef30:	00000b93          	li	s7,0
   1ef34:	010a1513          	slli	a0,s4,0x10
   1ef38:	000087b7          	lui	a5,0x8
   1ef3c:	010a5813          	srli	a6,s4,0x10
   1ef40:	01055513          	srli	a0,a0,0x10
   1ef44:	fff78793          	addi	a5,a5,-1 # 7fff <exit-0x8095>
   1ef48:	05412623          	sw	s4,76(sp)
   1ef4c:	05212023          	sw	s2,64(sp)
   1ef50:	05612223          	sw	s6,68(sp)
   1ef54:	05512423          	sw	s5,72(sp)
   1ef58:	03212023          	sw	s2,32(sp)
   1ef5c:	03612223          	sw	s6,36(sp)
   1ef60:	03512423          	sw	s5,40(sp)
   1ef64:	02a12623          	sw	a0,44(sp)
   1ef68:	00f87833          	and	a6,a6,a5
   1ef6c:	01fa5a13          	srli	s4,s4,0x1f
   1ef70:	66080ae3          	beqz	a6,1fde4 <__multf3+0xfa0>
   1ef74:	00f81463          	bne	a6,a5,1ef7c <__multf3+0x138>
   1ef78:	7b50006f          	j	1ff2c <__multf3+0x10e8>
   1ef7c:	000107b7          	lui	a5,0x10
   1ef80:	00f56533          	or	a0,a0,a5
   1ef84:	02a12623          	sw	a0,44(sp)
   1ef88:	02010613          	addi	a2,sp,32
   1ef8c:	02c10793          	addi	a5,sp,44
   1ef90:	0007a703          	lw	a4,0(a5) # 10000 <exit-0x94>
   1ef94:	ffc7a683          	lw	a3,-4(a5)
   1ef98:	ffc78793          	addi	a5,a5,-4
   1ef9c:	00371713          	slli	a4,a4,0x3
   1efa0:	01d6d693          	srli	a3,a3,0x1d
   1efa4:	00d76733          	or	a4,a4,a3
   1efa8:	00e7a223          	sw	a4,4(a5)
   1efac:	fef612e3          	bne	a2,a5,1ef90 <__multf3+0x14c>
   1efb0:	02012783          	lw	a5,32(sp)
   1efb4:	00379793          	slli	a5,a5,0x3
   1efb8:	02f12023          	sw	a5,32(sp)
   1efbc:	ffffc7b7          	lui	a5,0xffffc
   1efc0:	00178793          	addi	a5,a5,1 # ffffc001 <__BSS_END__+0xfffd84fd>
   1efc4:	00f80833          	add	a6,a6,a5
   1efc8:	00000693          	li	a3,0
   1efcc:	002b9793          	slli	a5,s7,0x2
   1efd0:	00980833          	add	a6,a6,s1
   1efd4:	00d7e7b3          	or	a5,a5,a3
   1efd8:	00a00713          	li	a4,10
   1efdc:	0149c933          	xor	s2,s3,s4
   1efe0:	00180c93          	addi	s9,a6,1
   1efe4:	00f75463          	bge	a4,a5,1efec <__multf3+0x1a8>
   1efe8:	7b50006f          	j	1ff9c <__multf3+0x1158>
   1efec:	00200713          	li	a4,2
   1eff0:	00f75463          	bge	a4,a5,1eff8 <__multf3+0x1b4>
   1eff4:	7650006f          	j	1ff58 <__multf3+0x1114>
   1eff8:	fff78793          	addi	a5,a5,-1
   1effc:	00100713          	li	a4,1
   1f000:	00f76463          	bltu	a4,a5,1f008 <__multf3+0x1c4>
   1f004:	7fd0006f          	j	20000 <__multf3+0x11bc>
   1f008:	01012e03          	lw	t3,16(sp)
   1f00c:	02012303          	lw	t1,32(sp)
   1f010:	00010fb7          	lui	t6,0x10
   1f014:	ffff8793          	addi	a5,t6,-1 # ffff <exit-0x95>
   1f018:	00fe78b3          	and	a7,t3,a5
   1f01c:	00f377b3          	and	a5,t1,a5
   1f020:	010e5293          	srli	t0,t3,0x10
   1f024:	01035713          	srli	a4,t1,0x10
   1f028:	00088513          	mv	a0,a7
   1f02c:	00078593          	mv	a1,a5
   1f030:	411020ef          	jal	ra,21c40 <__mulsi3>
   1f034:	00050e93          	mv	t4,a0
   1f038:	00070593          	mv	a1,a4
   1f03c:	00088513          	mv	a0,a7
   1f040:	401020ef          	jal	ra,21c40 <__mulsi3>
   1f044:	00050893          	mv	a7,a0
   1f048:	00078593          	mv	a1,a5
   1f04c:	00028513          	mv	a0,t0
   1f050:	3f1020ef          	jal	ra,21c40 <__mulsi3>
   1f054:	00050f13          	mv	t5,a0
   1f058:	00070593          	mv	a1,a4
   1f05c:	00028513          	mv	a0,t0
   1f060:	3e1020ef          	jal	ra,21c40 <__mulsi3>
   1f064:	010ed713          	srli	a4,t4,0x10
   1f068:	01e888b3          	add	a7,a7,t5
   1f06c:	01170733          	add	a4,a4,a7
   1f070:	00050793          	mv	a5,a0
   1f074:	01e77463          	bgeu	a4,t5,1f07c <__multf3+0x238>
   1f078:	01f507b3          	add	a5,a0,t6
   1f07c:	01075693          	srli	a3,a4,0x10
   1f080:	00f687b3          	add	a5,a3,a5
   1f084:	000102b7          	lui	t0,0x10
   1f088:	02412f03          	lw	t5,36(sp)
   1f08c:	04f12223          	sw	a5,68(sp)
   1f090:	fff28793          	addi	a5,t0,-1 # ffff <exit-0x95>
   1f094:	00f77733          	and	a4,a4,a5
   1f098:	01071713          	slli	a4,a4,0x10
   1f09c:	00fefeb3          	and	t4,t4,a5
   1f0a0:	01d70533          	add	a0,a4,t4
   1f0a4:	00ff7fb3          	and	t6,t5,a5
   1f0a8:	00fe7733          	and	a4,t3,a5
   1f0ac:	04a12023          	sw	a0,64(sp)
   1f0b0:	010e5893          	srli	a7,t3,0x10
   1f0b4:	010f5393          	srli	t2,t5,0x10
   1f0b8:	00070513          	mv	a0,a4
   1f0bc:	000f8593          	mv	a1,t6
   1f0c0:	381020ef          	jal	ra,21c40 <__mulsi3>
   1f0c4:	00050e93          	mv	t4,a0
   1f0c8:	00038593          	mv	a1,t2
   1f0cc:	00070513          	mv	a0,a4
   1f0d0:	371020ef          	jal	ra,21c40 <__mulsi3>
   1f0d4:	00050713          	mv	a4,a0
   1f0d8:	000f8593          	mv	a1,t6
   1f0dc:	00088513          	mv	a0,a7
   1f0e0:	361020ef          	jal	ra,21c40 <__mulsi3>
   1f0e4:	00050f93          	mv	t6,a0
   1f0e8:	00038593          	mv	a1,t2
   1f0ec:	00088513          	mv	a0,a7
   1f0f0:	351020ef          	jal	ra,21c40 <__mulsi3>
   1f0f4:	010ed893          	srli	a7,t4,0x10
   1f0f8:	01f70733          	add	a4,a4,t6
   1f0fc:	00e888b3          	add	a7,a7,a4
   1f100:	00050b13          	mv	s6,a0
   1f104:	01f8f463          	bgeu	a7,t6,1f10c <__multf3+0x2c8>
   1f108:	00550b33          	add	s6,a0,t0
   1f10c:	01412f83          	lw	t6,20(sp)
   1f110:	0108d393          	srli	t2,a7,0x10
   1f114:	00f8f8b3          	and	a7,a7,a5
   1f118:	00fefeb3          	and	t4,t4,a5
   1f11c:	00fff2b3          	and	t0,t6,a5
   1f120:	01089893          	slli	a7,a7,0x10
   1f124:	00f377b3          	and	a5,t1,a5
   1f128:	01d888b3          	add	a7,a7,t4
   1f12c:	010fd993          	srli	s3,t6,0x10
   1f130:	01035713          	srli	a4,t1,0x10
   1f134:	00028513          	mv	a0,t0
   1f138:	00078593          	mv	a1,a5
   1f13c:	305020ef          	jal	ra,21c40 <__mulsi3>
   1f140:	00050e93          	mv	t4,a0
   1f144:	00070593          	mv	a1,a4
   1f148:	00028513          	mv	a0,t0
   1f14c:	2f5020ef          	jal	ra,21c40 <__mulsi3>
   1f150:	00050293          	mv	t0,a0
   1f154:	00078593          	mv	a1,a5
   1f158:	00098513          	mv	a0,s3
   1f15c:	2e5020ef          	jal	ra,21c40 <__mulsi3>
   1f160:	00050493          	mv	s1,a0
   1f164:	00070593          	mv	a1,a4
   1f168:	00098513          	mv	a0,s3
   1f16c:	2d5020ef          	jal	ra,21c40 <__mulsi3>
   1f170:	010ed713          	srli	a4,t4,0x10
   1f174:	009282b3          	add	t0,t0,s1
   1f178:	00570733          	add	a4,a4,t0
   1f17c:	00050793          	mv	a5,a0
   1f180:	00977663          	bgeu	a4,s1,1f18c <__multf3+0x348>
   1f184:	000106b7          	lui	a3,0x10
   1f188:	00d507b3          	add	a5,a0,a3
   1f18c:	000102b7          	lui	t0,0x10
   1f190:	fff28593          	addi	a1,t0,-1 # ffff <exit-0x95>
   1f194:	01075493          	srli	s1,a4,0x10
   1f198:	00b77733          	and	a4,a4,a1
   1f19c:	00befeb3          	and	t4,t4,a1
   1f1a0:	00f484b3          	add	s1,s1,a5
   1f1a4:	00bf7ab3          	and	s5,t5,a1
   1f1a8:	00bff7b3          	and	a5,t6,a1
   1f1ac:	01071713          	slli	a4,a4,0x10
   1f1b0:	01d70733          	add	a4,a4,t4
   1f1b4:	010fda13          	srli	s4,t6,0x10
   1f1b8:	010f5993          	srli	s3,t5,0x10
   1f1bc:	00078513          	mv	a0,a5
   1f1c0:	000a8593          	mv	a1,s5
   1f1c4:	27d020ef          	jal	ra,21c40 <__mulsi3>
   1f1c8:	00050e93          	mv	t4,a0
   1f1cc:	00098593          	mv	a1,s3
   1f1d0:	00078513          	mv	a0,a5
   1f1d4:	26d020ef          	jal	ra,21c40 <__mulsi3>
   1f1d8:	00050793          	mv	a5,a0
   1f1dc:	000a8593          	mv	a1,s5
   1f1e0:	000a0513          	mv	a0,s4
   1f1e4:	25d020ef          	jal	ra,21c40 <__mulsi3>
   1f1e8:	00050a93          	mv	s5,a0
   1f1ec:	00098593          	mv	a1,s3
   1f1f0:	000a0513          	mv	a0,s4
   1f1f4:	24d020ef          	jal	ra,21c40 <__mulsi3>
   1f1f8:	015787b3          	add	a5,a5,s5
   1f1fc:	010ed693          	srli	a3,t4,0x10
   1f200:	00d787b3          	add	a5,a5,a3
   1f204:	0157f463          	bgeu	a5,s5,1f20c <__multf3+0x3c8>
   1f208:	00550533          	add	a0,a0,t0
   1f20c:	02812983          	lw	s3,40(sp)
   1f210:	00010a37          	lui	s4,0x10
   1f214:	fffa0593          	addi	a1,s4,-1 # ffff <exit-0x95>
   1f218:	0107d293          	srli	t0,a5,0x10
   1f21c:	00b7f7b3          	and	a5,a5,a1
   1f220:	00befeb3          	and	t4,t4,a1
   1f224:	00be7bb3          	and	s7,t3,a1
   1f228:	00b9fab3          	and	s5,s3,a1
   1f22c:	01079793          	slli	a5,a5,0x10
   1f230:	00a282b3          	add	t0,t0,a0
   1f234:	01d787b3          	add	a5,a5,t4
   1f238:	010e5d13          	srli	s10,t3,0x10
   1f23c:	0109dc13          	srli	s8,s3,0x10
   1f240:	000b8513          	mv	a0,s7
   1f244:	000a8593          	mv	a1,s5
   1f248:	1f9020ef          	jal	ra,21c40 <__mulsi3>
   1f24c:	00050e93          	mv	t4,a0
   1f250:	000c0593          	mv	a1,s8
   1f254:	000b8513          	mv	a0,s7
   1f258:	1e9020ef          	jal	ra,21c40 <__mulsi3>
   1f25c:	00050b93          	mv	s7,a0
   1f260:	000a8593          	mv	a1,s5
   1f264:	000d0513          	mv	a0,s10
   1f268:	1d9020ef          	jal	ra,21c40 <__mulsi3>
   1f26c:	00050a93          	mv	s5,a0
   1f270:	000c0593          	mv	a1,s8
   1f274:	000d0513          	mv	a0,s10
   1f278:	1c9020ef          	jal	ra,21c40 <__mulsi3>
   1f27c:	010ed693          	srli	a3,t4,0x10
   1f280:	015b8633          	add	a2,s7,s5
   1f284:	00c686b3          	add	a3,a3,a2
   1f288:	0156f463          	bgeu	a3,s5,1f290 <__multf3+0x44c>
   1f28c:	01450533          	add	a0,a0,s4
   1f290:	00010d37          	lui	s10,0x10
   1f294:	fffd0a13          	addi	s4,s10,-1 # ffff <exit-0x95>
   1f298:	0106d613          	srli	a2,a3,0x10
   1f29c:	0146f6b3          	and	a3,a3,s4
   1f2a0:	014efeb3          	and	t4,t4,s4
   1f2a4:	01069693          	slli	a3,a3,0x10
   1f2a8:	01d686b3          	add	a3,a3,t4
   1f2ac:	01812e83          	lw	t4,24(sp)
   1f2b0:	00a60db3          	add	s11,a2,a0
   1f2b4:	00d12623          	sw	a3,12(sp)
   1f2b8:	014efbb3          	and	s7,t4,s4
   1f2bc:	01437a33          	and	s4,t1,s4
   1f2c0:	01035c13          	srli	s8,t1,0x10
   1f2c4:	000b8513          	mv	a0,s7
   1f2c8:	000a0593          	mv	a1,s4
   1f2cc:	175020ef          	jal	ra,21c40 <__mulsi3>
   1f2d0:	00050a93          	mv	s5,a0
   1f2d4:	000c0593          	mv	a1,s8
   1f2d8:	000b8513          	mv	a0,s7
   1f2dc:	165020ef          	jal	ra,21c40 <__mulsi3>
   1f2e0:	00050b93          	mv	s7,a0
   1f2e4:	000a0593          	mv	a1,s4
   1f2e8:	010ed513          	srli	a0,t4,0x10
   1f2ec:	155020ef          	jal	ra,21c40 <__mulsi3>
   1f2f0:	00050a13          	mv	s4,a0
   1f2f4:	000c0593          	mv	a1,s8
   1f2f8:	010ed513          	srli	a0,t4,0x10
   1f2fc:	145020ef          	jal	ra,21c40 <__mulsi3>
   1f300:	010ad693          	srli	a3,s5,0x10
   1f304:	014b8bb3          	add	s7,s7,s4
   1f308:	01768bb3          	add	s7,a3,s7
   1f30c:	014bf463          	bgeu	s7,s4,1f314 <__multf3+0x4d0>
   1f310:	01a50533          	add	a0,a0,s10
   1f314:	04412583          	lw	a1,68(sp)
   1f318:	010bd693          	srli	a3,s7,0x10
   1f31c:	00010a37          	lui	s4,0x10
   1f320:	011588b3          	add	a7,a1,a7
   1f324:	00b8b5b3          	sltu	a1,a7,a1
   1f328:	00b383b3          	add	t2,t2,a1
   1f32c:	016383b3          	add	t2,t2,s6
   1f330:	00e88733          	add	a4,a7,a4
   1f334:	009384b3          	add	s1,t2,s1
   1f338:	04e12223          	sw	a4,68(sp)
   1f33c:	01173733          	sltu	a4,a4,a7
   1f340:	00e48733          	add	a4,s1,a4
   1f344:	0074b633          	sltu	a2,s1,t2
   1f348:	009734b3          	sltu	s1,a4,s1
   1f34c:	00b3b3b3          	sltu	t2,t2,a1
   1f350:	00966633          	or	a2,a2,s1
   1f354:	00c12583          	lw	a1,12(sp)
   1f358:	00760633          	add	a2,a2,t2
   1f35c:	00f707b3          	add	a5,a4,a5
   1f360:	00a68533          	add	a0,a3,a0
   1f364:	fffa0693          	addi	a3,s4,-1 # ffff <exit-0x95>
   1f368:	005602b3          	add	t0,a2,t0
   1f36c:	00dbfbb3          	and	s7,s7,a3
   1f370:	00e7b733          	sltu	a4,a5,a4
   1f374:	00b788b3          	add	a7,a5,a1
   1f378:	00e28733          	add	a4,t0,a4
   1f37c:	010b9b93          	slli	s7,s7,0x10
   1f380:	00dafab3          	and	s5,s5,a3
   1f384:	01b705b3          	add	a1,a4,s11
   1f388:	015b8ab3          	add	s5,s7,s5
   1f38c:	00f8b7b3          	sltu	a5,a7,a5
   1f390:	00f587b3          	add	a5,a1,a5
   1f394:	01588ab3          	add	s5,a7,s5
   1f398:	00a78533          	add	a0,a5,a0
   1f39c:	05512423          	sw	s5,72(sp)
   1f3a0:	011abab3          	sltu	s5,s5,a7
   1f3a4:	01550ab3          	add	s5,a0,s5
   1f3a8:	00c2b633          	sltu	a2,t0,a2
   1f3ac:	005732b3          	sltu	t0,a4,t0
   1f3b0:	00e5b733          	sltu	a4,a1,a4
   1f3b4:	00b7b5b3          	sltu	a1,a5,a1
   1f3b8:	02c12883          	lw	a7,44(sp)
   1f3bc:	00b76733          	or	a4,a4,a1
   1f3c0:	00566633          	or	a2,a2,t0
   1f3c4:	05512623          	sw	s5,76(sp)
   1f3c8:	00f537b3          	sltu	a5,a0,a5
   1f3cc:	00aabab3          	sltu	s5,s5,a0
   1f3d0:	00e60633          	add	a2,a2,a4
   1f3d4:	0157e7b3          	or	a5,a5,s5
   1f3d8:	00c787b3          	add	a5,a5,a2
   1f3dc:	04f12823          	sw	a5,80(sp)
   1f3e0:	010e5493          	srli	s1,t3,0x10
   1f3e4:	00d8f7b3          	and	a5,a7,a3
   1f3e8:	00de7e33          	and	t3,t3,a3
   1f3ec:	0108d713          	srli	a4,a7,0x10
   1f3f0:	000e0513          	mv	a0,t3
   1f3f4:	00078593          	mv	a1,a5
   1f3f8:	049020ef          	jal	ra,21c40 <__mulsi3>
   1f3fc:	00050293          	mv	t0,a0
   1f400:	00070593          	mv	a1,a4
   1f404:	000e0513          	mv	a0,t3
   1f408:	039020ef          	jal	ra,21c40 <__mulsi3>
   1f40c:	00050e13          	mv	t3,a0
   1f410:	00078593          	mv	a1,a5
   1f414:	00048513          	mv	a0,s1
   1f418:	029020ef          	jal	ra,21c40 <__mulsi3>
   1f41c:	00050393          	mv	t2,a0
   1f420:	00070593          	mv	a1,a4
   1f424:	00048513          	mv	a0,s1
   1f428:	019020ef          	jal	ra,21c40 <__mulsi3>
   1f42c:	0102d713          	srli	a4,t0,0x10
   1f430:	007e0e33          	add	t3,t3,t2
   1f434:	01c70733          	add	a4,a4,t3
   1f438:	00050793          	mv	a5,a0
   1f43c:	00777463          	bgeu	a4,t2,1f444 <__multf3+0x600>
   1f440:	014507b3          	add	a5,a0,s4
   1f444:	01075493          	srli	s1,a4,0x10
   1f448:	000103b7          	lui	t2,0x10
   1f44c:	00f484b3          	add	s1,s1,a5
   1f450:	fff38793          	addi	a5,t2,-1 # ffff <exit-0x95>
   1f454:	00f77733          	and	a4,a4,a5
   1f458:	00f2f2b3          	and	t0,t0,a5
   1f45c:	01071713          	slli	a4,a4,0x10
   1f460:	00570733          	add	a4,a4,t0
   1f464:	01c12283          	lw	t0,28(sp)
   1f468:	01035a93          	srli	s5,t1,0x10
   1f46c:	00f37333          	and	t1,t1,a5
   1f470:	00f2fa33          	and	s4,t0,a5
   1f474:	0102db13          	srli	s6,t0,0x10
   1f478:	000a0513          	mv	a0,s4
   1f47c:	00030593          	mv	a1,t1
   1f480:	7c0020ef          	jal	ra,21c40 <__mulsi3>
   1f484:	00050e13          	mv	t3,a0
   1f488:	000a8593          	mv	a1,s5
   1f48c:	000a0513          	mv	a0,s4
   1f490:	7b0020ef          	jal	ra,21c40 <__mulsi3>
   1f494:	00050a13          	mv	s4,a0
   1f498:	00030593          	mv	a1,t1
   1f49c:	000b0513          	mv	a0,s6
   1f4a0:	7a0020ef          	jal	ra,21c40 <__mulsi3>
   1f4a4:	00050313          	mv	t1,a0
   1f4a8:	000a8593          	mv	a1,s5
   1f4ac:	000b0513          	mv	a0,s6
   1f4b0:	790020ef          	jal	ra,21c40 <__mulsi3>
   1f4b4:	010e5793          	srli	a5,t3,0x10
   1f4b8:	006a0a33          	add	s4,s4,t1
   1f4bc:	014787b3          	add	a5,a5,s4
   1f4c0:	00050693          	mv	a3,a0
   1f4c4:	0067f463          	bgeu	a5,t1,1f4cc <__multf3+0x688>
   1f4c8:	007506b3          	add	a3,a0,t2
   1f4cc:	0107d393          	srli	t2,a5,0x10
   1f4d0:	00010a37          	lui	s4,0x10
   1f4d4:	00d383b3          	add	t2,t2,a3
   1f4d8:	fffa0693          	addi	a3,s4,-1 # ffff <exit-0x95>
   1f4dc:	00d7f7b3          	and	a5,a5,a3
   1f4e0:	00de7e33          	and	t3,t3,a3
   1f4e4:	01079793          	slli	a5,a5,0x10
   1f4e8:	01c787b3          	add	a5,a5,t3
   1f4ec:	010fda93          	srli	s5,t6,0x10
   1f4f0:	0109de13          	srli	t3,s3,0x10
   1f4f4:	00dfffb3          	and	t6,t6,a3
   1f4f8:	00d9f9b3          	and	s3,s3,a3
   1f4fc:	000f8513          	mv	a0,t6
   1f500:	00098593          	mv	a1,s3
   1f504:	73c020ef          	jal	ra,21c40 <__mulsi3>
   1f508:	00050313          	mv	t1,a0
   1f50c:	000e0593          	mv	a1,t3
   1f510:	000f8513          	mv	a0,t6
   1f514:	72c020ef          	jal	ra,21c40 <__mulsi3>
   1f518:	00050f93          	mv	t6,a0
   1f51c:	00098593          	mv	a1,s3
   1f520:	000a8513          	mv	a0,s5
   1f524:	71c020ef          	jal	ra,21c40 <__mulsi3>
   1f528:	00050993          	mv	s3,a0
   1f52c:	000e0593          	mv	a1,t3
   1f530:	000a8513          	mv	a0,s5
   1f534:	70c020ef          	jal	ra,21c40 <__mulsi3>
   1f538:	01035e13          	srli	t3,t1,0x10
   1f53c:	013f8fb3          	add	t6,t6,s3
   1f540:	01fe0e33          	add	t3,t3,t6
   1f544:	00050693          	mv	a3,a0
   1f548:	013e7463          	bgeu	t3,s3,1f550 <__multf3+0x70c>
   1f54c:	014506b3          	add	a3,a0,s4
   1f550:	010e5f93          	srli	t6,t3,0x10
   1f554:	00010a37          	lui	s4,0x10
   1f558:	00df8fb3          	add	t6,t6,a3
   1f55c:	fffa0693          	addi	a3,s4,-1 # ffff <exit-0x95>
   1f560:	00de7e33          	and	t3,t3,a3
   1f564:	00d37333          	and	t1,t1,a3
   1f568:	010f5b13          	srli	s6,t5,0x10
   1f56c:	00defab3          	and	s5,t4,a3
   1f570:	00df7f33          	and	t5,t5,a3
   1f574:	010e1e13          	slli	t3,t3,0x10
   1f578:	006e0e33          	add	t3,t3,t1
   1f57c:	000a8513          	mv	a0,s5
   1f580:	010ed313          	srli	t1,t4,0x10
   1f584:	000f0593          	mv	a1,t5
   1f588:	6b8020ef          	jal	ra,21c40 <__mulsi3>
   1f58c:	00050993          	mv	s3,a0
   1f590:	000b0593          	mv	a1,s6
   1f594:	000a8513          	mv	a0,s5
   1f598:	6a8020ef          	jal	ra,21c40 <__mulsi3>
   1f59c:	00050a93          	mv	s5,a0
   1f5a0:	000f0593          	mv	a1,t5
   1f5a4:	00030513          	mv	a0,t1
   1f5a8:	698020ef          	jal	ra,21c40 <__mulsi3>
   1f5ac:	00050f13          	mv	t5,a0
   1f5b0:	000b0593          	mv	a1,s6
   1f5b4:	00030513          	mv	a0,t1
   1f5b8:	688020ef          	jal	ra,21c40 <__mulsi3>
   1f5bc:	0109d693          	srli	a3,s3,0x10
   1f5c0:	01ea8633          	add	a2,s5,t5
   1f5c4:	00c686b3          	add	a3,a3,a2
   1f5c8:	01e6f463          	bgeu	a3,t5,1f5d0 <__multf3+0x78c>
   1f5cc:	01450533          	add	a0,a0,s4
   1f5d0:	00010337          	lui	t1,0x10
   1f5d4:	fff30593          	addi	a1,t1,-1 # ffff <exit-0x95>
   1f5d8:	0106d613          	srli	a2,a3,0x10
   1f5dc:	00b6f6b3          	and	a3,a3,a1
   1f5e0:	00b9f9b3          	and	s3,s3,a1
   1f5e4:	01069693          	slli	a3,a3,0x10
   1f5e8:	00a60633          	add	a2,a2,a0
   1f5ec:	01368533          	add	a0,a3,s3
   1f5f0:	04c12683          	lw	a3,76(sp)
   1f5f4:	05012f03          	lw	t5,80(sp)
   1f5f8:	02812983          	lw	s3,40(sp)
   1f5fc:	00e68733          	add	a4,a3,a4
   1f600:	009f04b3          	add	s1,t5,s1
   1f604:	00d736b3          	sltu	a3,a4,a3
   1f608:	00d486b3          	add	a3,s1,a3
   1f60c:	00f707b3          	add	a5,a4,a5
   1f610:	007683b3          	add	t2,a3,t2
   1f614:	00e7b733          	sltu	a4,a5,a4
   1f618:	00e38733          	add	a4,t2,a4
   1f61c:	01c78e33          	add	t3,a5,t3
   1f620:	01e4bf33          	sltu	t5,s1,t5
   1f624:	0096b4b3          	sltu	s1,a3,s1
   1f628:	00d3b6b3          	sltu	a3,t2,a3
   1f62c:	007733b3          	sltu	t2,a4,t2
   1f630:	0076e6b3          	or	a3,a3,t2
   1f634:	01f70fb3          	add	t6,a4,t6
   1f638:	009f6f33          	or	t5,t5,s1
   1f63c:	00fe37b3          	sltu	a5,t3,a5
   1f640:	00df0f33          	add	t5,t5,a3
   1f644:	00ff87b3          	add	a5,t6,a5
   1f648:	00ae06b3          	add	a3,t3,a0
   1f64c:	00c78633          	add	a2,a5,a2
   1f650:	04d12623          	sw	a3,76(sp)
   1f654:	01c6b6b3          	sltu	a3,a3,t3
   1f658:	00d606b3          	add	a3,a2,a3
   1f65c:	00efb733          	sltu	a4,t6,a4
   1f660:	01f7bfb3          	sltu	t6,a5,t6
   1f664:	01f76733          	or	a4,a4,t6
   1f668:	04d12823          	sw	a3,80(sp)
   1f66c:	00f637b3          	sltu	a5,a2,a5
   1f670:	00c6b6b3          	sltu	a3,a3,a2
   1f674:	01e70733          	add	a4,a4,t5
   1f678:	00d7e7b3          	or	a5,a5,a3
   1f67c:	00e787b3          	add	a5,a5,a4
   1f680:	04f12a23          	sw	a5,84(sp)
   1f684:	010edf93          	srli	t6,t4,0x10
   1f688:	00b9f7b3          	and	a5,s3,a1
   1f68c:	00befeb3          	and	t4,t4,a1
   1f690:	0109d713          	srli	a4,s3,0x10
   1f694:	000e8513          	mv	a0,t4
   1f698:	00078593          	mv	a1,a5
   1f69c:	5a4020ef          	jal	ra,21c40 <__mulsi3>
   1f6a0:	00050e13          	mv	t3,a0
   1f6a4:	00070593          	mv	a1,a4
   1f6a8:	000e8513          	mv	a0,t4
   1f6ac:	594020ef          	jal	ra,21c40 <__mulsi3>
   1f6b0:	00050e93          	mv	t4,a0
   1f6b4:	00078593          	mv	a1,a5
   1f6b8:	000f8513          	mv	a0,t6
   1f6bc:	584020ef          	jal	ra,21c40 <__mulsi3>
   1f6c0:	00050f13          	mv	t5,a0
   1f6c4:	00070593          	mv	a1,a4
   1f6c8:	000f8513          	mv	a0,t6
   1f6cc:	574020ef          	jal	ra,21c40 <__mulsi3>
   1f6d0:	010e5793          	srli	a5,t3,0x10
   1f6d4:	01ee8eb3          	add	t4,t4,t5
   1f6d8:	01d787b3          	add	a5,a5,t4
   1f6dc:	00050713          	mv	a4,a0
   1f6e0:	01e7f463          	bgeu	a5,t5,1f6e8 <__multf3+0x8a4>
   1f6e4:	00650733          	add	a4,a0,t1
   1f6e8:	0107d493          	srli	s1,a5,0x10
   1f6ec:	00010eb7          	lui	t4,0x10
   1f6f0:	00e484b3          	add	s1,s1,a4
   1f6f4:	fffe8713          	addi	a4,t4,-1 # ffff <exit-0x95>
   1f6f8:	00e7f7b3          	and	a5,a5,a4
   1f6fc:	00ee7e33          	and	t3,t3,a4
   1f700:	01079793          	slli	a5,a5,0x10
   1f704:	01c787b3          	add	a5,a5,t3
   1f708:	01412e03          	lw	t3,20(sp)
   1f70c:	0108df13          	srli	t5,a7,0x10
   1f710:	010e5393          	srli	t2,t3,0x10
   1f714:	00ee7e33          	and	t3,t3,a4
   1f718:	00e8f733          	and	a4,a7,a4
   1f71c:	000e0513          	mv	a0,t3
   1f720:	00070593          	mv	a1,a4
   1f724:	51c020ef          	jal	ra,21c40 <__mulsi3>
   1f728:	00050313          	mv	t1,a0
   1f72c:	000f0593          	mv	a1,t5
   1f730:	000e0513          	mv	a0,t3
   1f734:	50c020ef          	jal	ra,21c40 <__mulsi3>
   1f738:	00050e13          	mv	t3,a0
   1f73c:	00070593          	mv	a1,a4
   1f740:	00038513          	mv	a0,t2
   1f744:	4fc020ef          	jal	ra,21c40 <__mulsi3>
   1f748:	00050f93          	mv	t6,a0
   1f74c:	000f0593          	mv	a1,t5
   1f750:	00038513          	mv	a0,t2
   1f754:	4ec020ef          	jal	ra,21c40 <__mulsi3>
   1f758:	01035f13          	srli	t5,t1,0x10
   1f75c:	01fe0e33          	add	t3,t3,t6
   1f760:	01cf0f33          	add	t5,t5,t3
   1f764:	00050713          	mv	a4,a0
   1f768:	01ff7463          	bgeu	t5,t6,1f770 <__multf3+0x92c>
   1f76c:	01d50733          	add	a4,a0,t4
   1f770:	010f5393          	srli	t2,t5,0x10
   1f774:	00e383b3          	add	t2,t2,a4
   1f778:	00010eb7          	lui	t4,0x10
   1f77c:	02412703          	lw	a4,36(sp)
   1f780:	fffe8693          	addi	a3,t4,-1 # ffff <exit-0x95>
   1f784:	00df7f33          	and	t5,t5,a3
   1f788:	00d37333          	and	t1,t1,a3
   1f78c:	01075a93          	srli	s5,a4,0x10
   1f790:	00d2fe33          	and	t3,t0,a3
   1f794:	00d77733          	and	a4,a4,a3
   1f798:	010f1f13          	slli	t5,t5,0x10
   1f79c:	006f0f33          	add	t5,t5,t1
   1f7a0:	0102da13          	srli	s4,t0,0x10
   1f7a4:	000e0513          	mv	a0,t3
   1f7a8:	00070593          	mv	a1,a4
   1f7ac:	494020ef          	jal	ra,21c40 <__mulsi3>
   1f7b0:	00050313          	mv	t1,a0
   1f7b4:	000a8593          	mv	a1,s5
   1f7b8:	000e0513          	mv	a0,t3
   1f7bc:	484020ef          	jal	ra,21c40 <__mulsi3>
   1f7c0:	00050e13          	mv	t3,a0
   1f7c4:	00070593          	mv	a1,a4
   1f7c8:	000a0513          	mv	a0,s4
   1f7cc:	474020ef          	jal	ra,21c40 <__mulsi3>
   1f7d0:	00050f93          	mv	t6,a0
   1f7d4:	000a8593          	mv	a1,s5
   1f7d8:	000a0513          	mv	a0,s4
   1f7dc:	464020ef          	jal	ra,21c40 <__mulsi3>
   1f7e0:	01035713          	srli	a4,t1,0x10
   1f7e4:	01fe0e33          	add	t3,t3,t6
   1f7e8:	01c70733          	add	a4,a4,t3
   1f7ec:	00050693          	mv	a3,a0
   1f7f0:	01f77463          	bgeu	a4,t6,1f7f8 <__multf3+0x9b4>
   1f7f4:	01d506b3          	add	a3,a0,t4
   1f7f8:	01075f93          	srli	t6,a4,0x10
   1f7fc:	00010eb7          	lui	t4,0x10
   1f800:	00df8fb3          	add	t6,t6,a3
   1f804:	fffe8693          	addi	a3,t4,-1 # ffff <exit-0x95>
   1f808:	00d77733          	and	a4,a4,a3
   1f80c:	00d37333          	and	t1,t1,a3
   1f810:	01071713          	slli	a4,a4,0x10
   1f814:	00670733          	add	a4,a4,t1
   1f818:	01812303          	lw	t1,24(sp)
   1f81c:	0108de13          	srli	t3,a7,0x10
   1f820:	00d8f8b3          	and	a7,a7,a3
   1f824:	01035a93          	srli	s5,t1,0x10
   1f828:	00d37333          	and	t1,t1,a3
   1f82c:	00030513          	mv	a0,t1
   1f830:	00088593          	mv	a1,a7
   1f834:	40c020ef          	jal	ra,21c40 <__mulsi3>
   1f838:	00050a13          	mv	s4,a0
   1f83c:	000e0593          	mv	a1,t3
   1f840:	00030513          	mv	a0,t1
   1f844:	3fc020ef          	jal	ra,21c40 <__mulsi3>
   1f848:	00050313          	mv	t1,a0
   1f84c:	00088593          	mv	a1,a7
   1f850:	000a8513          	mv	a0,s5
   1f854:	3ec020ef          	jal	ra,21c40 <__mulsi3>
   1f858:	00050893          	mv	a7,a0
   1f85c:	000e0593          	mv	a1,t3
   1f860:	000a8513          	mv	a0,s5
   1f864:	3dc020ef          	jal	ra,21c40 <__mulsi3>
   1f868:	010a5e13          	srli	t3,s4,0x10
   1f86c:	01130333          	add	t1,t1,a7
   1f870:	006e0e33          	add	t3,t3,t1
   1f874:	00050693          	mv	a3,a0
   1f878:	011e7463          	bgeu	t3,a7,1f880 <__multf3+0xa3c>
   1f87c:	01d506b3          	add	a3,a0,t4
   1f880:	010e5e93          	srli	t4,t3,0x10
   1f884:	00010337          	lui	t1,0x10
   1f888:	00de8eb3          	add	t4,t4,a3
   1f88c:	fff30693          	addi	a3,t1,-1 # ffff <exit-0x95>
   1f890:	00de7e33          	and	t3,t3,a3
   1f894:	00da7a33          	and	s4,s4,a3
   1f898:	010e1e13          	slli	t3,t3,0x10
   1f89c:	014e0e33          	add	t3,t3,s4
   1f8a0:	0102db13          	srli	s6,t0,0x10
   1f8a4:	00d9fa33          	and	s4,s3,a3
   1f8a8:	00d2f2b3          	and	t0,t0,a3
   1f8ac:	0109da93          	srli	s5,s3,0x10
   1f8b0:	00028513          	mv	a0,t0
   1f8b4:	000a0593          	mv	a1,s4
   1f8b8:	388020ef          	jal	ra,21c40 <__mulsi3>
   1f8bc:	00050993          	mv	s3,a0
   1f8c0:	000a8593          	mv	a1,s5
   1f8c4:	00028513          	mv	a0,t0
   1f8c8:	378020ef          	jal	ra,21c40 <__mulsi3>
   1f8cc:	00050893          	mv	a7,a0
   1f8d0:	000a0593          	mv	a1,s4
   1f8d4:	000b0513          	mv	a0,s6
   1f8d8:	368020ef          	jal	ra,21c40 <__mulsi3>
   1f8dc:	00050293          	mv	t0,a0
   1f8e0:	000a8593          	mv	a1,s5
   1f8e4:	000b0513          	mv	a0,s6
   1f8e8:	358020ef          	jal	ra,21c40 <__mulsi3>
   1f8ec:	005886b3          	add	a3,a7,t0
   1f8f0:	0109d613          	srli	a2,s3,0x10
   1f8f4:	00c686b3          	add	a3,a3,a2
   1f8f8:	0056f463          	bgeu	a3,t0,1f900 <__multf3+0xabc>
   1f8fc:	00650533          	add	a0,a0,t1
   1f900:	05012583          	lw	a1,80(sp)
   1f904:	0106d613          	srli	a2,a3,0x10
   1f908:	00a60633          	add	a2,a2,a0
   1f90c:	05412503          	lw	a0,84(sp)
   1f910:	00f587b3          	add	a5,a1,a5
   1f914:	00b7b5b3          	sltu	a1,a5,a1
   1f918:	009504b3          	add	s1,a0,s1
   1f91c:	01e78f33          	add	t5,a5,t5
   1f920:	00b485b3          	add	a1,s1,a1
   1f924:	007583b3          	add	t2,a1,t2
   1f928:	00ff37b3          	sltu	a5,t5,a5
   1f92c:	00f387b3          	add	a5,t2,a5
   1f930:	00ef0733          	add	a4,t5,a4
   1f934:	01f78fb3          	add	t6,a5,t6
   1f938:	04e12823          	sw	a4,80(sp)
   1f93c:	01e73733          	sltu	a4,a4,t5
   1f940:	00ef8733          	add	a4,t6,a4
   1f944:	00010337          	lui	t1,0x10
   1f948:	00a4b533          	sltu	a0,s1,a0
   1f94c:	0095b4b3          	sltu	s1,a1,s1
   1f950:	00b3b5b3          	sltu	a1,t2,a1
   1f954:	0077b3b3          	sltu	t2,a5,t2
   1f958:	fff30893          	addi	a7,t1,-1 # ffff <exit-0x95>
   1f95c:	0075e5b3          	or	a1,a1,t2
   1f960:	00956533          	or	a0,a0,s1
   1f964:	00ffb7b3          	sltu	a5,t6,a5
   1f968:	01f73fb3          	sltu	t6,a4,t6
   1f96c:	00b50533          	add	a0,a0,a1
   1f970:	0116f6b3          	and	a3,a3,a7
   1f974:	01f7e7b3          	or	a5,a5,t6
   1f978:	01c70e33          	add	t3,a4,t3
   1f97c:	00a787b3          	add	a5,a5,a0
   1f980:	0119f9b3          	and	s3,s3,a7
   1f984:	01069693          	slli	a3,a3,0x10
   1f988:	01d78eb3          	add	t4,a5,t4
   1f98c:	013686b3          	add	a3,a3,s3
   1f990:	00ee3733          	sltu	a4,t3,a4
   1f994:	00ee8733          	add	a4,t4,a4
   1f998:	00de06b3          	add	a3,t3,a3
   1f99c:	00c70633          	add	a2,a4,a2
   1f9a0:	04d12a23          	sw	a3,84(sp)
   1f9a4:	01c6b6b3          	sltu	a3,a3,t3
   1f9a8:	00d606b3          	add	a3,a2,a3
   1f9ac:	04d12c23          	sw	a3,88(sp)
   1f9b0:	00feb7b3          	sltu	a5,t4,a5
   1f9b4:	00c6b6b3          	sltu	a3,a3,a2
   1f9b8:	01d73eb3          	sltu	t4,a4,t4
   1f9bc:	00e63733          	sltu	a4,a2,a4
   1f9c0:	00d76733          	or	a4,a4,a3
   1f9c4:	01d7e7b3          	or	a5,a5,t4
   1f9c8:	00e787b3          	add	a5,a5,a4
   1f9cc:	04f12e23          	sw	a5,92(sp)
   1f9d0:	01c12703          	lw	a4,28(sp)
   1f9d4:	02c12783          	lw	a5,44(sp)
   1f9d8:	01075f93          	srli	t6,a4,0x10
   1f9dc:	0107df13          	srli	t5,a5,0x10
   1f9e0:	01177733          	and	a4,a4,a7
   1f9e4:	0117f7b3          	and	a5,a5,a7
   1f9e8:	00070513          	mv	a0,a4
   1f9ec:	00078593          	mv	a1,a5
   1f9f0:	250020ef          	jal	ra,21c40 <__mulsi3>
   1f9f4:	00050e13          	mv	t3,a0
   1f9f8:	000f0593          	mv	a1,t5
   1f9fc:	00070513          	mv	a0,a4
   1fa00:	240020ef          	jal	ra,21c40 <__mulsi3>
   1fa04:	00050713          	mv	a4,a0
   1fa08:	00078593          	mv	a1,a5
   1fa0c:	000f8513          	mv	a0,t6
   1fa10:	230020ef          	jal	ra,21c40 <__mulsi3>
   1fa14:	00050e93          	mv	t4,a0
   1fa18:	000f0593          	mv	a1,t5
   1fa1c:	000f8513          	mv	a0,t6
   1fa20:	220020ef          	jal	ra,21c40 <__mulsi3>
   1fa24:	010e5793          	srli	a5,t3,0x10
   1fa28:	01d70733          	add	a4,a4,t4
   1fa2c:	00e787b3          	add	a5,a5,a4
   1fa30:	00050693          	mv	a3,a0
   1fa34:	01d7f463          	bgeu	a5,t4,1fa3c <__multf3+0xbf8>
   1fa38:	006506b3          	add	a3,a0,t1
   1fa3c:	05812603          	lw	a2,88(sp)
   1fa40:	0117f733          	and	a4,a5,a7
   1fa44:	05c12583          	lw	a1,92(sp)
   1fa48:	01071713          	slli	a4,a4,0x10
   1fa4c:	011e7e33          	and	t3,t3,a7
   1fa50:	01c70733          	add	a4,a4,t3
   1fa54:	00e60733          	add	a4,a2,a4
   1fa58:	0107d793          	srli	a5,a5,0x10
   1fa5c:	00b787b3          	add	a5,a5,a1
   1fa60:	00c73633          	sltu	a2,a4,a2
   1fa64:	00c787b3          	add	a5,a5,a2
   1fa68:	00d78533          	add	a0,a5,a3
   1fa6c:	04e12c23          	sw	a4,88(sp)
   1fa70:	04012783          	lw	a5,64(sp)
   1fa74:	04412703          	lw	a4,68(sp)
   1fa78:	04a12e23          	sw	a0,92(sp)
   1fa7c:	05010593          	addi	a1,sp,80
   1fa80:	00f76733          	or	a4,a4,a5
   1fa84:	04812783          	lw	a5,72(sp)
   1fa88:	00f76733          	or	a4,a4,a5
   1fa8c:	04c12783          	lw	a5,76(sp)
   1fa90:	00d79793          	slli	a5,a5,0xd
   1fa94:	00e7e7b3          	or	a5,a5,a4
   1fa98:	04010713          	addi	a4,sp,64
   1fa9c:	00c72683          	lw	a3,12(a4)
   1faa0:	01072603          	lw	a2,16(a4)
   1faa4:	00470713          	addi	a4,a4,4
   1faa8:	0136d693          	srli	a3,a3,0x13
   1faac:	00d61613          	slli	a2,a2,0xd
   1fab0:	00c6e6b3          	or	a3,a3,a2
   1fab4:	fed72e23          	sw	a3,-4(a4)
   1fab8:	fee592e3          	bne	a1,a4,1fa9c <__multf3+0xc58>
   1fabc:	04812683          	lw	a3,72(sp)
   1fac0:	04012703          	lw	a4,64(sp)
   1fac4:	00f037b3          	snez	a5,a5
   1fac8:	02d12c23          	sw	a3,56(sp)
   1facc:	04412683          	lw	a3,68(sp)
   1fad0:	00e7e7b3          	or	a5,a5,a4
   1fad4:	04c12703          	lw	a4,76(sp)
   1fad8:	02d12a23          	sw	a3,52(sp)
   1fadc:	001006b7          	lui	a3,0x100
   1fae0:	02e12e23          	sw	a4,60(sp)
   1fae4:	02f12823          	sw	a5,48(sp)
   1fae8:	00d77733          	and	a4,a4,a3
   1faec:	52070c63          	beqz	a4,20024 <__multf3+0x11e0>
   1faf0:	01f79793          	slli	a5,a5,0x1f
   1faf4:	03010713          	addi	a4,sp,48
   1faf8:	03c10593          	addi	a1,sp,60
   1fafc:	00072683          	lw	a3,0(a4)
   1fb00:	00472603          	lw	a2,4(a4)
   1fb04:	00470713          	addi	a4,a4,4
   1fb08:	0016d693          	srli	a3,a3,0x1
   1fb0c:	01f61613          	slli	a2,a2,0x1f
   1fb10:	00c6e6b3          	or	a3,a3,a2
   1fb14:	fed72e23          	sw	a3,-4(a4)
   1fb18:	fee592e3          	bne	a1,a4,1fafc <__multf3+0xcb8>
   1fb1c:	03c12703          	lw	a4,60(sp)
   1fb20:	00f037b3          	snez	a5,a5
   1fb24:	00175713          	srli	a4,a4,0x1
   1fb28:	02e12e23          	sw	a4,60(sp)
   1fb2c:	03012703          	lw	a4,48(sp)
   1fb30:	00f767b3          	or	a5,a4,a5
   1fb34:	02f12823          	sw	a5,48(sp)
   1fb38:	000047b7          	lui	a5,0x4
   1fb3c:	fff78793          	addi	a5,a5,-1 # 3fff <exit-0xc095>
   1fb40:	00fc87b3          	add	a5,s9,a5
   1fb44:	50f05063          	blez	a5,20044 <__multf3+0x1200>
   1fb48:	03012703          	lw	a4,48(sp)
   1fb4c:	00777693          	andi	a3,a4,7
   1fb50:	04068463          	beqz	a3,1fb98 <__multf3+0xd54>
   1fb54:	00f77693          	andi	a3,a4,15
   1fb58:	00400613          	li	a2,4
   1fb5c:	02c68e63          	beq	a3,a2,1fb98 <__multf3+0xd54>
   1fb60:	00470713          	addi	a4,a4,4
   1fb64:	00473693          	sltiu	a3,a4,4
   1fb68:	02e12823          	sw	a4,48(sp)
   1fb6c:	03412703          	lw	a4,52(sp)
   1fb70:	00e68733          	add	a4,a3,a4
   1fb74:	02e12a23          	sw	a4,52(sp)
   1fb78:	00d73733          	sltu	a4,a4,a3
   1fb7c:	03812683          	lw	a3,56(sp)
   1fb80:	00e68733          	add	a4,a3,a4
   1fb84:	02e12c23          	sw	a4,56(sp)
   1fb88:	00d73733          	sltu	a4,a4,a3
   1fb8c:	03c12683          	lw	a3,60(sp)
   1fb90:	00d70733          	add	a4,a4,a3
   1fb94:	02e12e23          	sw	a4,60(sp)
   1fb98:	03c12703          	lw	a4,60(sp)
   1fb9c:	001006b7          	lui	a3,0x100
   1fba0:	00d776b3          	and	a3,a4,a3
   1fba4:	00068e63          	beqz	a3,1fbc0 <__multf3+0xd7c>
   1fba8:	fff007b7          	lui	a5,0xfff00
   1fbac:	fff78793          	addi	a5,a5,-1 # ffefffff <__BSS_END__+0xffedc4fb>
   1fbb0:	00f77733          	and	a4,a4,a5
   1fbb4:	000047b7          	lui	a5,0x4
   1fbb8:	02e12e23          	sw	a4,60(sp)
   1fbbc:	00fc87b3          	add	a5,s9,a5
   1fbc0:	03010713          	addi	a4,sp,48
   1fbc4:	03c10593          	addi	a1,sp,60
   1fbc8:	00072683          	lw	a3,0(a4)
   1fbcc:	00472603          	lw	a2,4(a4)
   1fbd0:	00470713          	addi	a4,a4,4
   1fbd4:	0036d693          	srli	a3,a3,0x3
   1fbd8:	01d61613          	slli	a2,a2,0x1d
   1fbdc:	00c6e6b3          	or	a3,a3,a2
   1fbe0:	fed72e23          	sw	a3,-4(a4)
   1fbe4:	feb712e3          	bne	a4,a1,1fbc8 <__multf3+0xd84>
   1fbe8:	000086b7          	lui	a3,0x8
   1fbec:	ffe68613          	addi	a2,a3,-2 # 7ffe <exit-0x8096>
   1fbf0:	03c12703          	lw	a4,60(sp)
   1fbf4:	42f64c63          	blt	a2,a5,2002c <__multf3+0x11e8>
   1fbf8:	00375713          	srli	a4,a4,0x3
   1fbfc:	02e12e23          	sw	a4,60(sp)
   1fc00:	00f91913          	slli	s2,s2,0xf
   1fc04:	00f96933          	or	s2,s2,a5
   1fc08:	03012783          	lw	a5,48(sp)
   1fc0c:	03c12703          	lw	a4,60(sp)
   1fc10:	05211723          	sh	s2,78(sp)
   1fc14:	00f42023          	sw	a5,0(s0)
   1fc18:	03412783          	lw	a5,52(sp)
   1fc1c:	04e11623          	sh	a4,76(sp)
   1fc20:	09c12083          	lw	ra,156(sp)
   1fc24:	00f42223          	sw	a5,4(s0)
   1fc28:	03812783          	lw	a5,56(sp)
   1fc2c:	00040513          	mv	a0,s0
   1fc30:	09412483          	lw	s1,148(sp)
   1fc34:	00f42423          	sw	a5,8(s0)
   1fc38:	04c12783          	lw	a5,76(sp)
   1fc3c:	09012903          	lw	s2,144(sp)
   1fc40:	08c12983          	lw	s3,140(sp)
   1fc44:	00f42623          	sw	a5,12(s0)
   1fc48:	09812403          	lw	s0,152(sp)
   1fc4c:	08812a03          	lw	s4,136(sp)
   1fc50:	08412a83          	lw	s5,132(sp)
   1fc54:	08012b03          	lw	s6,128(sp)
   1fc58:	07c12b83          	lw	s7,124(sp)
   1fc5c:	07812c03          	lw	s8,120(sp)
   1fc60:	07412c83          	lw	s9,116(sp)
   1fc64:	07012d03          	lw	s10,112(sp)
   1fc68:	06c12d83          	lw	s11,108(sp)
   1fc6c:	0a010113          	addi	sp,sp,160
   1fc70:	00008067          	ret
   1fc74:	00a7e633          	or	a2,a5,a0
   1fc78:	00d66633          	or	a2,a2,a3
   1fc7c:	00e66633          	or	a2,a2,a4
   1fc80:	14060c63          	beqz	a2,1fdd8 <__multf3+0xf94>
   1fc84:	04070e63          	beqz	a4,1fce0 <__multf3+0xe9c>
   1fc88:	00070513          	mv	a0,a4
   1fc8c:	08c020ef          	jal	ra,21d18 <__clzsi2>
   1fc90:	ff450693          	addi	a3,a0,-12
   1fc94:	02000613          	li	a2,32
   1fc98:	40d60633          	sub	a2,a2,a3
   1fc9c:	00000793          	li	a5,0
   1fca0:	40f005b3          	neg	a1,a5
   1fca4:	00259593          	slli	a1,a1,0x2
   1fca8:	00c58713          	addi	a4,a1,12
   1fcac:	01010313          	addi	t1,sp,16
   1fcb0:	00e30733          	add	a4,t1,a4
   1fcb4:	40b005b3          	neg	a1,a1
   1fcb8:	0ee31063          	bne	t1,a4,1fd98 <__multf3+0xf54>
   1fcbc:	fff78713          	addi	a4,a5,-1 # 3fff <exit-0xc095>
   1fcc0:	00279793          	slli	a5,a5,0x2
   1fcc4:	01010613          	addi	a2,sp,16
   1fcc8:	05078793          	addi	a5,a5,80
   1fccc:	00c787b3          	add	a5,a5,a2
   1fcd0:	01012603          	lw	a2,16(sp)
   1fcd4:	00d616b3          	sll	a3,a2,a3
   1fcd8:	fad7a823          	sw	a3,-80(a5)
   1fcdc:	07c0006f          	j	1fd58 <__multf3+0xf14>
   1fce0:	02068663          	beqz	a3,1fd0c <__multf3+0xec8>
   1fce4:	00068513          	mv	a0,a3
   1fce8:	030020ef          	jal	ra,21d18 <__clzsi2>
   1fcec:	02050513          	addi	a0,a0,32
   1fcf0:	ff450693          	addi	a3,a0,-12
   1fcf4:	4056d793          	srai	a5,a3,0x5
   1fcf8:	01f6f693          	andi	a3,a3,31
   1fcfc:	02068863          	beqz	a3,1fd2c <__multf3+0xee8>
   1fd00:	02000613          	li	a2,32
   1fd04:	40d60633          	sub	a2,a2,a3
   1fd08:	f99ff06f          	j	1fca0 <__multf3+0xe5c>
   1fd0c:	00050863          	beqz	a0,1fd1c <__multf3+0xed8>
   1fd10:	008020ef          	jal	ra,21d18 <__clzsi2>
   1fd14:	04050513          	addi	a0,a0,64
   1fd18:	fd9ff06f          	j	1fcf0 <__multf3+0xeac>
   1fd1c:	00078513          	mv	a0,a5
   1fd20:	7f9010ef          	jal	ra,21d18 <__clzsi2>
   1fd24:	06050513          	addi	a0,a0,96
   1fd28:	fc9ff06f          	j	1fcf0 <__multf3+0xeac>
   1fd2c:	40f00633          	neg	a2,a5
   1fd30:	01c10713          	addi	a4,sp,28
   1fd34:	00261613          	slli	a2,a2,0x2
   1fd38:	00300693          	li	a3,3
   1fd3c:	00c705b3          	add	a1,a4,a2
   1fd40:	0005a583          	lw	a1,0(a1)
   1fd44:	fff68693          	addi	a3,a3,-1
   1fd48:	ffc70713          	addi	a4,a4,-4
   1fd4c:	00b72223          	sw	a1,4(a4)
   1fd50:	fef6d6e3          	bge	a3,a5,1fd3c <__multf3+0xef8>
   1fd54:	fff78713          	addi	a4,a5,-1
   1fd58:	00170793          	addi	a5,a4,1
   1fd5c:	00279793          	slli	a5,a5,0x2
   1fd60:	00800693          	li	a3,8
   1fd64:	01010713          	addi	a4,sp,16
   1fd68:	00d7ea63          	bltu	a5,a3,1fd7c <__multf3+0xf38>
   1fd6c:	00012823          	sw	zero,16(sp)
   1fd70:	00072223          	sw	zero,4(a4)
   1fd74:	ff878793          	addi	a5,a5,-8
   1fd78:	01810713          	addi	a4,sp,24
   1fd7c:	00400693          	li	a3,4
   1fd80:	00d7e463          	bltu	a5,a3,1fd88 <__multf3+0xf44>
   1fd84:	00072023          	sw	zero,0(a4)
   1fd88:	ffffc4b7          	lui	s1,0xffffc
   1fd8c:	01148493          	addi	s1,s1,17 # ffffc011 <__BSS_END__+0xfffd850d>
   1fd90:	40a484b3          	sub	s1,s1,a0
   1fd94:	99cff06f          	j	1ef30 <__multf3+0xec>
   1fd98:	00072803          	lw	a6,0(a4)
   1fd9c:	ffc72883          	lw	a7,-4(a4)
   1fda0:	00b70e33          	add	t3,a4,a1
   1fda4:	00d81833          	sll	a6,a6,a3
   1fda8:	00c8d8b3          	srl	a7,a7,a2
   1fdac:	01186833          	or	a6,a6,a7
   1fdb0:	010e2023          	sw	a6,0(t3)
   1fdb4:	ffc70713          	addi	a4,a4,-4
   1fdb8:	f01ff06f          	j	1fcb8 <__multf3+0xe74>
   1fdbc:	00a7e7b3          	or	a5,a5,a0
   1fdc0:	00d7e7b3          	or	a5,a5,a3
   1fdc4:	00e7e7b3          	or	a5,a5,a4
   1fdc8:	00200b93          	li	s7,2
   1fdcc:	96078463          	beqz	a5,1ef34 <__multf3+0xf0>
   1fdd0:	00300b93          	li	s7,3
   1fdd4:	960ff06f          	j	1ef34 <__multf3+0xf0>
   1fdd8:	00000493          	li	s1,0
   1fddc:	00100b93          	li	s7,1
   1fde0:	954ff06f          	j	1ef34 <__multf3+0xf0>
   1fde4:	016967b3          	or	a5,s2,s6
   1fde8:	0157e7b3          	or	a5,a5,s5
   1fdec:	00a7e7b3          	or	a5,a5,a0
   1fdf0:	14078e63          	beqz	a5,1ff4c <__multf3+0x1108>
   1fdf4:	04050c63          	beqz	a0,1fe4c <__multf3+0x1008>
   1fdf8:	721010ef          	jal	ra,21d18 <__clzsi2>
   1fdfc:	ff450693          	addi	a3,a0,-12
   1fe00:	02000593          	li	a1,32
   1fe04:	40d585b3          	sub	a1,a1,a3
   1fe08:	00000793          	li	a5,0
   1fe0c:	40f00633          	neg	a2,a5
   1fe10:	00261613          	slli	a2,a2,0x2
   1fe14:	00c60713          	addi	a4,a2,12
   1fe18:	02010313          	addi	t1,sp,32
   1fe1c:	00e30733          	add	a4,t1,a4
   1fe20:	40c00633          	neg	a2,a2
   1fe24:	0ee31263          	bne	t1,a4,1ff08 <__multf3+0x10c4>
   1fe28:	fff78713          	addi	a4,a5,-1
   1fe2c:	00279793          	slli	a5,a5,0x2
   1fe30:	01010613          	addi	a2,sp,16
   1fe34:	05078793          	addi	a5,a5,80
   1fe38:	00c787b3          	add	a5,a5,a2
   1fe3c:	02012603          	lw	a2,32(sp)
   1fe40:	00d616b3          	sll	a3,a2,a3
   1fe44:	fcd7a023          	sw	a3,-64(a5)
   1fe48:	0800006f          	j	1fec8 <__multf3+0x1084>
   1fe4c:	020a8663          	beqz	s5,1fe78 <__multf3+0x1034>
   1fe50:	000a8513          	mv	a0,s5
   1fe54:	6c5010ef          	jal	ra,21d18 <__clzsi2>
   1fe58:	02050513          	addi	a0,a0,32
   1fe5c:	ff450693          	addi	a3,a0,-12
   1fe60:	4056d793          	srai	a5,a3,0x5
   1fe64:	01f6f693          	andi	a3,a3,31
   1fe68:	02068a63          	beqz	a3,1fe9c <__multf3+0x1058>
   1fe6c:	02000593          	li	a1,32
   1fe70:	40d585b3          	sub	a1,a1,a3
   1fe74:	f99ff06f          	j	1fe0c <__multf3+0xfc8>
   1fe78:	000b0a63          	beqz	s6,1fe8c <__multf3+0x1048>
   1fe7c:	000b0513          	mv	a0,s6
   1fe80:	699010ef          	jal	ra,21d18 <__clzsi2>
   1fe84:	04050513          	addi	a0,a0,64
   1fe88:	fd5ff06f          	j	1fe5c <__multf3+0x1018>
   1fe8c:	00090513          	mv	a0,s2
   1fe90:	689010ef          	jal	ra,21d18 <__clzsi2>
   1fe94:	06050513          	addi	a0,a0,96
   1fe98:	fc5ff06f          	j	1fe5c <__multf3+0x1018>
   1fe9c:	40f00633          	neg	a2,a5
   1fea0:	02c10713          	addi	a4,sp,44
   1fea4:	00261613          	slli	a2,a2,0x2
   1fea8:	00300693          	li	a3,3
   1feac:	00c705b3          	add	a1,a4,a2
   1feb0:	0005a583          	lw	a1,0(a1)
   1feb4:	fff68693          	addi	a3,a3,-1
   1feb8:	ffc70713          	addi	a4,a4,-4
   1febc:	00b72223          	sw	a1,4(a4)
   1fec0:	fef6d6e3          	bge	a3,a5,1feac <__multf3+0x1068>
   1fec4:	fff78713          	addi	a4,a5,-1
   1fec8:	00170793          	addi	a5,a4,1
   1fecc:	00279793          	slli	a5,a5,0x2
   1fed0:	00800693          	li	a3,8
   1fed4:	02010713          	addi	a4,sp,32
   1fed8:	00d7ea63          	bltu	a5,a3,1feec <__multf3+0x10a8>
   1fedc:	02012023          	sw	zero,32(sp)
   1fee0:	00072223          	sw	zero,4(a4)
   1fee4:	ff878793          	addi	a5,a5,-8
   1fee8:	02810713          	addi	a4,sp,40
   1feec:	00400693          	li	a3,4
   1fef0:	00d7e463          	bltu	a5,a3,1fef8 <__multf3+0x10b4>
   1fef4:	00072023          	sw	zero,0(a4)
   1fef8:	ffffc837          	lui	a6,0xffffc
   1fefc:	01180813          	addi	a6,a6,17 # ffffc011 <__BSS_END__+0xfffd850d>
   1ff00:	40a80833          	sub	a6,a6,a0
   1ff04:	8c4ff06f          	j	1efc8 <__multf3+0x184>
   1ff08:	00072803          	lw	a6,0(a4)
   1ff0c:	ffc72883          	lw	a7,-4(a4)
   1ff10:	00c70e33          	add	t3,a4,a2
   1ff14:	00d81833          	sll	a6,a6,a3
   1ff18:	00b8d8b3          	srl	a7,a7,a1
   1ff1c:	01186833          	or	a6,a6,a7
   1ff20:	010e2023          	sw	a6,0(t3)
   1ff24:	ffc70713          	addi	a4,a4,-4
   1ff28:	efdff06f          	j	1fe24 <__multf3+0xfe0>
   1ff2c:	01696933          	or	s2,s2,s6
   1ff30:	01596933          	or	s2,s2,s5
   1ff34:	00a96933          	or	s2,s2,a0
   1ff38:	00200693          	li	a3,2
   1ff3c:	00091463          	bnez	s2,1ff44 <__multf3+0x1100>
   1ff40:	88cff06f          	j	1efcc <__multf3+0x188>
   1ff44:	00300693          	li	a3,3
   1ff48:	884ff06f          	j	1efcc <__multf3+0x188>
   1ff4c:	00000813          	li	a6,0
   1ff50:	00100693          	li	a3,1
   1ff54:	878ff06f          	j	1efcc <__multf3+0x188>
   1ff58:	00100713          	li	a4,1
   1ff5c:	00f717b3          	sll	a5,a4,a5
   1ff60:	5307f713          	andi	a4,a5,1328
   1ff64:	04071663          	bnez	a4,1ffb0 <__multf3+0x116c>
   1ff68:	0887f713          	andi	a4,a5,136
   1ff6c:	08071863          	bnez	a4,1fffc <__multf3+0x11b8>
   1ff70:	2407f793          	andi	a5,a5,576
   1ff74:	00079463          	bnez	a5,1ff7c <__multf3+0x1138>
   1ff78:	890ff06f          	j	1f008 <__multf3+0x1c4>
   1ff7c:	000087b7          	lui	a5,0x8
   1ff80:	02f12e23          	sw	a5,60(sp)
   1ff84:	02012c23          	sw	zero,56(sp)
   1ff88:	02012a23          	sw	zero,52(sp)
   1ff8c:	02012823          	sw	zero,48(sp)
   1ff90:	fff78793          	addi	a5,a5,-1 # 7fff <exit-0x8095>
   1ff94:	00000913          	li	s2,0
   1ff98:	c69ff06f          	j	1fc00 <__multf3+0xdbc>
   1ff9c:	00f00713          	li	a4,15
   1ffa0:	fce78ee3          	beq	a5,a4,1ff7c <__multf3+0x1138>
   1ffa4:	00b00713          	li	a4,11
   1ffa8:	04e78a63          	beq	a5,a4,1fffc <__multf3+0x11b8>
   1ffac:	00098913          	mv	s2,s3
   1ffb0:	01012783          	lw	a5,16(sp)
   1ffb4:	02f12823          	sw	a5,48(sp)
   1ffb8:	01412783          	lw	a5,20(sp)
   1ffbc:	02f12a23          	sw	a5,52(sp)
   1ffc0:	01812783          	lw	a5,24(sp)
   1ffc4:	02f12c23          	sw	a5,56(sp)
   1ffc8:	01c12783          	lw	a5,28(sp)
   1ffcc:	02f12e23          	sw	a5,60(sp)
   1ffd0:	00200793          	li	a5,2
   1ffd4:	28fb8063          	beq	s7,a5,20254 <__multf3+0x1410>
   1ffd8:	00300793          	li	a5,3
   1ffdc:	fafb80e3          	beq	s7,a5,1ff7c <__multf3+0x1138>
   1ffe0:	00100793          	li	a5,1
   1ffe4:	b4fb9ae3          	bne	s7,a5,1fb38 <__multf3+0xcf4>
   1ffe8:	02012e23          	sw	zero,60(sp)
   1ffec:	02012c23          	sw	zero,56(sp)
   1fff0:	02012a23          	sw	zero,52(sp)
   1fff4:	02012823          	sw	zero,48(sp)
   1fff8:	2300006f          	j	20228 <__multf3+0x13e4>
   1fffc:	000a0913          	mv	s2,s4
   20000:	02012783          	lw	a5,32(sp)
   20004:	00068b93          	mv	s7,a3
   20008:	02f12823          	sw	a5,48(sp)
   2000c:	02412783          	lw	a5,36(sp)
   20010:	02f12a23          	sw	a5,52(sp)
   20014:	02812783          	lw	a5,40(sp)
   20018:	02f12c23          	sw	a5,56(sp)
   2001c:	02c12783          	lw	a5,44(sp)
   20020:	fadff06f          	j	1ffcc <__multf3+0x1188>
   20024:	00080c93          	mv	s9,a6
   20028:	b11ff06f          	j	1fb38 <__multf3+0xcf4>
   2002c:	02012e23          	sw	zero,60(sp)
   20030:	02012c23          	sw	zero,56(sp)
   20034:	02012a23          	sw	zero,52(sp)
   20038:	02012823          	sw	zero,48(sp)
   2003c:	fff68793          	addi	a5,a3,-1
   20040:	bc1ff06f          	j	1fc00 <__multf3+0xdbc>
   20044:	00100693          	li	a3,1
   20048:	00078863          	beqz	a5,20058 <__multf3+0x1214>
   2004c:	40f686b3          	sub	a3,a3,a5
   20050:	07400793          	li	a5,116
   20054:	1cd7ce63          	blt	a5,a3,20230 <__multf3+0x13ec>
   20058:	03010513          	addi	a0,sp,48
   2005c:	4056d713          	srai	a4,a3,0x5
   20060:	00050593          	mv	a1,a0
   20064:	01f6f693          	andi	a3,a3,31
   20068:	00000793          	li	a5,0
   2006c:	00000613          	li	a2,0
   20070:	02e61e63          	bne	a2,a4,200ac <__multf3+0x1268>
   20074:	00300613          	li	a2,3
   20078:	40e60633          	sub	a2,a2,a4
   2007c:	00271593          	slli	a1,a4,0x2
   20080:	04069063          	bnez	a3,200c0 <__multf3+0x127c>
   20084:	00050813          	mv	a6,a0
   20088:	00b808b3          	add	a7,a6,a1
   2008c:	0008a883          	lw	a7,0(a7)
   20090:	00168693          	addi	a3,a3,1
   20094:	00480813          	addi	a6,a6,4
   20098:	ff182e23          	sw	a7,-4(a6)
   2009c:	fed656e3          	bge	a2,a3,20088 <__multf3+0x1244>
   200a0:	00400693          	li	a3,4
   200a4:	40e68733          	sub	a4,a3,a4
   200a8:	06c0006f          	j	20114 <__multf3+0x12d0>
   200ac:	0005a803          	lw	a6,0(a1)
   200b0:	00160613          	addi	a2,a2,1
   200b4:	00458593          	addi	a1,a1,4
   200b8:	0107e7b3          	or	a5,a5,a6
   200bc:	fb5ff06f          	j	20070 <__multf3+0x122c>
   200c0:	05058813          	addi	a6,a1,80
   200c4:	01010313          	addi	t1,sp,16
   200c8:	00680833          	add	a6,a6,t1
   200cc:	fd082803          	lw	a6,-48(a6)
   200d0:	02000893          	li	a7,32
   200d4:	40d888b3          	sub	a7,a7,a3
   200d8:	01181833          	sll	a6,a6,a7
   200dc:	0107e7b3          	or	a5,a5,a6
   200e0:	00b505b3          	add	a1,a0,a1
   200e4:	00050e13          	mv	t3,a0
   200e8:	00000313          	li	t1,0
   200ec:	0ec34263          	blt	t1,a2,201d0 <__multf3+0x138c>
   200f0:	00400593          	li	a1,4
   200f4:	00261613          	slli	a2,a2,0x2
   200f8:	40e58733          	sub	a4,a1,a4
   200fc:	05060613          	addi	a2,a2,80
   20100:	01010593          	addi	a1,sp,16
   20104:	00b60633          	add	a2,a2,a1
   20108:	03c12583          	lw	a1,60(sp)
   2010c:	00d5d6b3          	srl	a3,a1,a3
   20110:	fcd62823          	sw	a3,-48(a2)
   20114:	00400693          	li	a3,4
   20118:	40e686b3          	sub	a3,a3,a4
   2011c:	00269693          	slli	a3,a3,0x2
   20120:	00271713          	slli	a4,a4,0x2
   20124:	00800613          	li	a2,8
   20128:	00e50733          	add	a4,a0,a4
   2012c:	00c6ea63          	bltu	a3,a2,20140 <__multf3+0x12fc>
   20130:	00072023          	sw	zero,0(a4)
   20134:	00072223          	sw	zero,4(a4)
   20138:	ff868693          	addi	a3,a3,-8
   2013c:	00870713          	addi	a4,a4,8
   20140:	00400613          	li	a2,4
   20144:	00c6e463          	bltu	a3,a2,2014c <__multf3+0x1308>
   20148:	00072023          	sw	zero,0(a4)
   2014c:	03012703          	lw	a4,48(sp)
   20150:	00f037b3          	snez	a5,a5
   20154:	00e7e7b3          	or	a5,a5,a4
   20158:	02f12823          	sw	a5,48(sp)
   2015c:	0077f713          	andi	a4,a5,7
   20160:	04070463          	beqz	a4,201a8 <__multf3+0x1364>
   20164:	00f7f713          	andi	a4,a5,15
   20168:	00400693          	li	a3,4
   2016c:	02d70e63          	beq	a4,a3,201a8 <__multf3+0x1364>
   20170:	03412703          	lw	a4,52(sp)
   20174:	00478793          	addi	a5,a5,4
   20178:	02f12823          	sw	a5,48(sp)
   2017c:	0047b793          	sltiu	a5,a5,4
   20180:	00f707b3          	add	a5,a4,a5
   20184:	02f12a23          	sw	a5,52(sp)
   20188:	00e7b7b3          	sltu	a5,a5,a4
   2018c:	03812703          	lw	a4,56(sp)
   20190:	00f707b3          	add	a5,a4,a5
   20194:	02f12c23          	sw	a5,56(sp)
   20198:	00e7b7b3          	sltu	a5,a5,a4
   2019c:	03c12703          	lw	a4,60(sp)
   201a0:	00e787b3          	add	a5,a5,a4
   201a4:	02f12e23          	sw	a5,60(sp)
   201a8:	03c12703          	lw	a4,60(sp)
   201ac:	000807b7          	lui	a5,0x80
   201b0:	00e7f7b3          	and	a5,a5,a4
   201b4:	04078263          	beqz	a5,201f8 <__multf3+0x13b4>
   201b8:	02012e23          	sw	zero,60(sp)
   201bc:	02012c23          	sw	zero,56(sp)
   201c0:	02012a23          	sw	zero,52(sp)
   201c4:	02012823          	sw	zero,48(sp)
   201c8:	00100793          	li	a5,1
   201cc:	a35ff06f          	j	1fc00 <__multf3+0xdbc>
   201d0:	0005a803          	lw	a6,0(a1)
   201d4:	0045ae83          	lw	t4,4(a1)
   201d8:	00458593          	addi	a1,a1,4
   201dc:	00d85833          	srl	a6,a6,a3
   201e0:	011e9eb3          	sll	t4,t4,a7
   201e4:	01d86833          	or	a6,a6,t4
   201e8:	010e2023          	sw	a6,0(t3)
   201ec:	00130313          	addi	t1,t1,1
   201f0:	004e0e13          	addi	t3,t3,4
   201f4:	ef9ff06f          	j	200ec <__multf3+0x12a8>
   201f8:	00c50693          	addi	a3,a0,12
   201fc:	00052783          	lw	a5,0(a0)
   20200:	00452703          	lw	a4,4(a0)
   20204:	00450513          	addi	a0,a0,4
   20208:	0037d793          	srli	a5,a5,0x3
   2020c:	01d71713          	slli	a4,a4,0x1d
   20210:	00e7e7b3          	or	a5,a5,a4
   20214:	fef52e23          	sw	a5,-4(a0)
   20218:	fea692e3          	bne	a3,a0,201fc <__multf3+0x13b8>
   2021c:	03c12783          	lw	a5,60(sp)
   20220:	0037d793          	srli	a5,a5,0x3
   20224:	02f12e23          	sw	a5,60(sp)
   20228:	00000793          	li	a5,0
   2022c:	9d5ff06f          	j	1fc00 <__multf3+0xdbc>
   20230:	03412703          	lw	a4,52(sp)
   20234:	03012783          	lw	a5,48(sp)
   20238:	00e7e7b3          	or	a5,a5,a4
   2023c:	03812703          	lw	a4,56(sp)
   20240:	00e7e7b3          	or	a5,a5,a4
   20244:	03c12703          	lw	a4,60(sp)
   20248:	00e7e7b3          	or	a5,a5,a4
   2024c:	fc078ee3          	beqz	a5,20228 <__multf3+0x13e4>
   20250:	d99ff06f          	j	1ffe8 <__multf3+0x11a4>
   20254:	000087b7          	lui	a5,0x8
   20258:	02012e23          	sw	zero,60(sp)
   2025c:	02012c23          	sw	zero,56(sp)
   20260:	02012a23          	sw	zero,52(sp)
   20264:	02012823          	sw	zero,48(sp)
   20268:	fff78793          	addi	a5,a5,-1 # 7fff <exit-0x8095>
   2026c:	995ff06f          	j	1fc00 <__multf3+0xdbc>

00020270 <__subtf3>:
   20270:	f9010113          	addi	sp,sp,-112
   20274:	0085a783          	lw	a5,8(a1)
   20278:	05512a23          	sw	s5,84(sp)
   2027c:	00c5aa83          	lw	s5,12(a1)
   20280:	0045a703          	lw	a4,4(a1)
   20284:	05412c23          	sw	s4,88(sp)
   20288:	00050a13          	mv	s4,a0
   2028c:	0005a503          	lw	a0,0(a1)
   20290:	02f12c23          	sw	a5,56(sp)
   20294:	00f12c23          	sw	a5,24(sp)
   20298:	010a9793          	slli	a5,s5,0x10
   2029c:	06912223          	sw	s1,100(sp)
   202a0:	0107d793          	srli	a5,a5,0x10
   202a4:	001a9493          	slli	s1,s5,0x1
   202a8:	00062803          	lw	a6,0(a2)
   202ac:	00462583          	lw	a1,4(a2)
   202b0:	00862683          	lw	a3,8(a2)
   202b4:	05312e23          	sw	s3,92(sp)
   202b8:	02a12823          	sw	a0,48(sp)
   202bc:	00c62983          	lw	s3,12(a2)
   202c0:	03512e23          	sw	s5,60(sp)
   202c4:	00a12823          	sw	a0,16(sp)
   202c8:	06112623          	sw	ra,108(sp)
   202cc:	06812423          	sw	s0,104(sp)
   202d0:	07212023          	sw	s2,96(sp)
   202d4:	05612823          	sw	s6,80(sp)
   202d8:	05712623          	sw	s7,76(sp)
   202dc:	05812423          	sw	s8,72(sp)
   202e0:	02e12a23          	sw	a4,52(sp)
   202e4:	00e12a23          	sw	a4,20(sp)
   202e8:	00f12e23          	sw	a5,28(sp)
   202ec:	0114d493          	srli	s1,s1,0x11
   202f0:	01fada93          	srli	s5,s5,0x1f
   202f4:	01010513          	addi	a0,sp,16
   202f8:	01c10613          	addi	a2,sp,28
   202fc:	00062783          	lw	a5,0(a2)
   20300:	ffc62703          	lw	a4,-4(a2)
   20304:	ffc60613          	addi	a2,a2,-4
   20308:	00379793          	slli	a5,a5,0x3
   2030c:	01d75713          	srli	a4,a4,0x1d
   20310:	00e7e7b3          	or	a5,a5,a4
   20314:	00f62223          	sw	a5,4(a2)
   20318:	fec512e3          	bne	a0,a2,202fc <__subtf3+0x8c>
   2031c:	01012783          	lw	a5,16(sp)
   20320:	01099713          	slli	a4,s3,0x10
   20324:	00199b93          	slli	s7,s3,0x1
   20328:	00379793          	slli	a5,a5,0x3
   2032c:	01075713          	srli	a4,a4,0x10
   20330:	03012823          	sw	a6,48(sp)
   20334:	03312e23          	sw	s3,60(sp)
   20338:	03012023          	sw	a6,32(sp)
   2033c:	00f12823          	sw	a5,16(sp)
   20340:	02b12a23          	sw	a1,52(sp)
   20344:	02d12c23          	sw	a3,56(sp)
   20348:	02b12223          	sw	a1,36(sp)
   2034c:	02d12423          	sw	a3,40(sp)
   20350:	02e12623          	sw	a4,44(sp)
   20354:	011bdb93          	srli	s7,s7,0x11
   20358:	01f9d993          	srli	s3,s3,0x1f
   2035c:	02010813          	addi	a6,sp,32
   20360:	02c10893          	addi	a7,sp,44
   20364:	0008a703          	lw	a4,0(a7)
   20368:	ffc8a683          	lw	a3,-4(a7)
   2036c:	ffc88893          	addi	a7,a7,-4
   20370:	00371713          	slli	a4,a4,0x3
   20374:	01d6d693          	srli	a3,a3,0x1d
   20378:	00d76733          	or	a4,a4,a3
   2037c:	00e8a223          	sw	a4,4(a7)
   20380:	ff1812e3          	bne	a6,a7,20364 <__subtf3+0xf4>
   20384:	02012403          	lw	s0,32(sp)
   20388:	00008e37          	lui	t3,0x8
   2038c:	fffe0e13          	addi	t3,t3,-1 # 7fff <exit-0x8095>
   20390:	00341413          	slli	s0,s0,0x3
   20394:	02812023          	sw	s0,32(sp)
   20398:	417485b3          	sub	a1,s1,s7
   2039c:	07cb9e63          	bne	s7,t3,20418 <__subtf3+0x1a8>
   203a0:	02812683          	lw	a3,40(sp)
   203a4:	02412703          	lw	a4,36(sp)
   203a8:	00058313          	mv	t1,a1
   203ac:	00d76733          	or	a4,a4,a3
   203b0:	02c12683          	lw	a3,44(sp)
   203b4:	00d76733          	or	a4,a4,a3
   203b8:	00876733          	or	a4,a4,s0
   203bc:	04070a63          	beqz	a4,20410 <__subtf3+0x1a0>
   203c0:	333a9ce3          	bne	s5,s3,20ef8 <__subtf3+0xc88>
   203c4:	02412903          	lw	s2,36(sp)
   203c8:	02812983          	lw	s3,40(sp)
   203cc:	02c12b03          	lw	s6,44(sp)
   203d0:	6c058663          	beqz	a1,20a9c <__subtf3+0x82c>
   203d4:	409b85b3          	sub	a1,s7,s1
   203d8:	50049463          	bnez	s1,208e0 <__subtf3+0x670>
   203dc:	01412683          	lw	a3,20(sp)
   203e0:	01812703          	lw	a4,24(sp)
   203e4:	01c12883          	lw	a7,28(sp)
   203e8:	00e6e833          	or	a6,a3,a4
   203ec:	01186833          	or	a6,a6,a7
   203f0:	00f86833          	or	a6,a6,a5
   203f4:	46081a63          	bnez	a6,20868 <__subtf3+0x5f8>
   203f8:	02812823          	sw	s0,48(sp)
   203fc:	03212a23          	sw	s2,52(sp)
   20400:	03312c23          	sw	s3,56(sp)
   20404:	03612e23          	sw	s6,60(sp)
   20408:	00058493          	mv	s1,a1
   2040c:	0e00006f          	j	204ec <__subtf3+0x27c>
   20410:	0019c993          	xori	s3,s3,1
   20414:	fadff06f          	j	203c0 <__subtf3+0x150>
   20418:	0019c993          	xori	s3,s3,1
   2041c:	00058313          	mv	t1,a1
   20420:	073a96e3          	bne	s5,s3,20c8c <__subtf3+0xa1c>
   20424:	fab050e3          	blez	a1,203c4 <__subtf3+0x154>
   20428:	01412903          	lw	s2,20(sp)
   2042c:	01812983          	lw	s3,24(sp)
   20430:	01c12b03          	lw	s6,28(sp)
   20434:	0a0b9263          	bnez	s7,204d8 <__subtf3+0x268>
   20438:	02412683          	lw	a3,36(sp)
   2043c:	02812703          	lw	a4,40(sp)
   20440:	02c12503          	lw	a0,44(sp)
   20444:	00e6e633          	or	a2,a3,a4
   20448:	00a66633          	or	a2,a2,a0
   2044c:	00866633          	or	a2,a2,s0
   20450:	00061663          	bnez	a2,2045c <__subtf3+0x1ec>
   20454:	02f12823          	sw	a5,48(sp)
   20458:	fa5ff06f          	j	203fc <__subtf3+0x18c>
   2045c:	fff58613          	addi	a2,a1,-1
   20460:	04061863          	bnez	a2,204b0 <__subtf3+0x240>
   20464:	00878433          	add	s0,a5,s0
   20468:	01268933          	add	s2,a3,s2
   2046c:	02812823          	sw	s0,48(sp)
   20470:	00f43433          	sltu	s0,s0,a5
   20474:	00890433          	add	s0,s2,s0
   20478:	02812a23          	sw	s0,52(sp)
   2047c:	00d936b3          	sltu	a3,s2,a3
   20480:	01243433          	sltu	s0,s0,s2
   20484:	013709b3          	add	s3,a4,s3
   20488:	0086e6b3          	or	a3,a3,s0
   2048c:	00d986b3          	add	a3,s3,a3
   20490:	02d12c23          	sw	a3,56(sp)
   20494:	00e9b7b3          	sltu	a5,s3,a4
   20498:	0136b6b3          	sltu	a3,a3,s3
   2049c:	00d7e7b3          	or	a5,a5,a3
   204a0:	01650533          	add	a0,a0,s6
   204a4:	00a787b3          	add	a5,a5,a0
   204a8:	00100493          	li	s1,1
   204ac:	3040006f          	j	207b0 <__subtf3+0x540>
   204b0:	01c58463          	beq	a1,t3,204b8 <__subtf3+0x248>
   204b4:	2580106f          	j	2170c <__subtf3+0x149c>
   204b8:	02f12823          	sw	a5,48(sp)
   204bc:	40c0006f          	j	208c8 <__subtf3+0x658>
   204c0:	00040793          	mv	a5,s0
   204c4:	ff5ff06f          	j	204b8 <__subtf3+0x248>
   204c8:	00068913          	mv	s2,a3
   204cc:	00070993          	mv	s3,a4
   204d0:	00060b13          	mv	s6,a2
   204d4:	fe5ff06f          	j	204b8 <__subtf3+0x248>
   204d8:	17c49c63          	bne	s1,t3,20650 <__subtf3+0x3e0>
   204dc:	02f12823          	sw	a5,48(sp)
   204e0:	03212a23          	sw	s2,52(sp)
   204e4:	03312c23          	sw	s3,56(sp)
   204e8:	03612e23          	sw	s6,60(sp)
   204ec:	03012783          	lw	a5,48(sp)
   204f0:	0077f713          	andi	a4,a5,7
   204f4:	04070463          	beqz	a4,2053c <__subtf3+0x2cc>
   204f8:	00f7f713          	andi	a4,a5,15
   204fc:	00400693          	li	a3,4
   20500:	02d70e63          	beq	a4,a3,2053c <__subtf3+0x2cc>
   20504:	03412703          	lw	a4,52(sp)
   20508:	00478793          	addi	a5,a5,4
   2050c:	02f12823          	sw	a5,48(sp)
   20510:	0047b793          	sltiu	a5,a5,4
   20514:	00f707b3          	add	a5,a4,a5
   20518:	02f12a23          	sw	a5,52(sp)
   2051c:	00e7b7b3          	sltu	a5,a5,a4
   20520:	03812703          	lw	a4,56(sp)
   20524:	00f707b3          	add	a5,a4,a5
   20528:	02f12c23          	sw	a5,56(sp)
   2052c:	00e7b7b3          	sltu	a5,a5,a4
   20530:	03c12703          	lw	a4,60(sp)
   20534:	00e787b3          	add	a5,a5,a4
   20538:	02f12e23          	sw	a5,60(sp)
   2053c:	03c12783          	lw	a5,60(sp)
   20540:	00080737          	lui	a4,0x80
   20544:	00e7f733          	and	a4,a5,a4
   20548:	02070463          	beqz	a4,20570 <__subtf3+0x300>
   2054c:	00008737          	lui	a4,0x8
   20550:	00148493          	addi	s1,s1,1
   20554:	fff70713          	addi	a4,a4,-1 # 7fff <exit-0x8095>
   20558:	00e49463          	bne	s1,a4,20560 <__subtf3+0x2f0>
   2055c:	19c0106f          	j	216f8 <__subtf3+0x1488>
   20560:	fff80737          	lui	a4,0xfff80
   20564:	fff70713          	addi	a4,a4,-1 # fff7ffff <__BSS_END__+0xfff5c4fb>
   20568:	00e7f7b3          	and	a5,a5,a4
   2056c:	02f12e23          	sw	a5,60(sp)
   20570:	03010793          	addi	a5,sp,48
   20574:	03c10613          	addi	a2,sp,60
   20578:	0007a703          	lw	a4,0(a5)
   2057c:	0047a683          	lw	a3,4(a5)
   20580:	00478793          	addi	a5,a5,4
   20584:	00375713          	srli	a4,a4,0x3
   20588:	01d69693          	slli	a3,a3,0x1d
   2058c:	00d76733          	or	a4,a4,a3
   20590:	fee7ae23          	sw	a4,-4(a5)
   20594:	fef612e3          	bne	a2,a5,20578 <__subtf3+0x308>
   20598:	03c12703          	lw	a4,60(sp)
   2059c:	000086b7          	lui	a3,0x8
   205a0:	fff68793          	addi	a5,a3,-1 # 7fff <exit-0x8095>
   205a4:	00375713          	srli	a4,a4,0x3
   205a8:	02e12e23          	sw	a4,60(sp)
   205ac:	02f49a63          	bne	s1,a5,205e0 <__subtf3+0x370>
   205b0:	03412603          	lw	a2,52(sp)
   205b4:	03012783          	lw	a5,48(sp)
   205b8:	00c7e7b3          	or	a5,a5,a2
   205bc:	03812603          	lw	a2,56(sp)
   205c0:	00c7e7b3          	or	a5,a5,a2
   205c4:	00e7e7b3          	or	a5,a5,a4
   205c8:	00078c63          	beqz	a5,205e0 <__subtf3+0x370>
   205cc:	02d12e23          	sw	a3,60(sp)
   205d0:	02012c23          	sw	zero,56(sp)
   205d4:	02012a23          	sw	zero,52(sp)
   205d8:	02012823          	sw	zero,48(sp)
   205dc:	00000a93          	li	s5,0
   205e0:	03c12783          	lw	a5,60(sp)
   205e4:	01149493          	slli	s1,s1,0x11
   205e8:	0114d493          	srli	s1,s1,0x11
   205ec:	00f11623          	sh	a5,12(sp)
   205f0:	03012783          	lw	a5,48(sp)
   205f4:	00fa9a93          	slli	s5,s5,0xf
   205f8:	009aeab3          	or	s5,s5,s1
   205fc:	00fa2023          	sw	a5,0(s4)
   20600:	03412783          	lw	a5,52(sp)
   20604:	01511723          	sh	s5,14(sp)
   20608:	06c12083          	lw	ra,108(sp)
   2060c:	00fa2223          	sw	a5,4(s4)
   20610:	03812783          	lw	a5,56(sp)
   20614:	06812403          	lw	s0,104(sp)
   20618:	06412483          	lw	s1,100(sp)
   2061c:	00fa2423          	sw	a5,8(s4)
   20620:	00c12783          	lw	a5,12(sp)
   20624:	06012903          	lw	s2,96(sp)
   20628:	05c12983          	lw	s3,92(sp)
   2062c:	00fa2623          	sw	a5,12(s4)
   20630:	05412a83          	lw	s5,84(sp)
   20634:	05012b03          	lw	s6,80(sp)
   20638:	04c12b83          	lw	s7,76(sp)
   2063c:	04812c03          	lw	s8,72(sp)
   20640:	000a0513          	mv	a0,s4
   20644:	05812a03          	lw	s4,88(sp)
   20648:	07010113          	addi	sp,sp,112
   2064c:	00008067          	ret
   20650:	02c12703          	lw	a4,44(sp)
   20654:	000806b7          	lui	a3,0x80
   20658:	00d76733          	or	a4,a4,a3
   2065c:	02e12623          	sw	a4,44(sp)
   20660:	07400713          	li	a4,116
   20664:	00b75463          	bge	a4,a1,2066c <__subtf3+0x3fc>
   20668:	0b00106f          	j	21718 <__subtf3+0x14a8>
   2066c:	00058613          	mv	a2,a1
   20670:	40565693          	srai	a3,a2,0x5
   20674:	00088513          	mv	a0,a7
   20678:	01f67613          	andi	a2,a2,31
   2067c:	00000713          	li	a4,0
   20680:	00000593          	li	a1,0
   20684:	02d59c63          	bne	a1,a3,206bc <__subtf3+0x44c>
   20688:	00300593          	li	a1,3
   2068c:	40d585b3          	sub	a1,a1,a3
   20690:	00269513          	slli	a0,a3,0x2
   20694:	02061e63          	bnez	a2,206d0 <__subtf3+0x460>
   20698:	00a88333          	add	t1,a7,a0
   2069c:	00032303          	lw	t1,0(t1)
   206a0:	00160613          	addi	a2,a2,1
   206a4:	00488893          	addi	a7,a7,4
   206a8:	fe68ae23          	sw	t1,-4(a7)
   206ac:	fec5d6e3          	bge	a1,a2,20698 <__subtf3+0x428>
   206b0:	00400613          	li	a2,4
   206b4:	40d606b3          	sub	a3,a2,a3
   206b8:	0600006f          	j	20718 <__subtf3+0x4a8>
   206bc:	00052303          	lw	t1,0(a0)
   206c0:	00158593          	addi	a1,a1,1
   206c4:	00450513          	addi	a0,a0,4
   206c8:	00676733          	or	a4,a4,t1
   206cc:	fb9ff06f          	j	20684 <__subtf3+0x414>
   206d0:	04050313          	addi	t1,a0,64
   206d4:	00230333          	add	t1,t1,sp
   206d8:	fe032303          	lw	t1,-32(t1)
   206dc:	02000e13          	li	t3,32
   206e0:	40ce0e33          	sub	t3,t3,a2
   206e4:	01c31333          	sll	t1,t1,t3
   206e8:	00676733          	or	a4,a4,t1
   206ec:	00a80533          	add	a0,a6,a0
   206f0:	00000e93          	li	t4,0
   206f4:	14bec663          	blt	t4,a1,20840 <__subtf3+0x5d0>
   206f8:	00400513          	li	a0,4
   206fc:	40d506b3          	sub	a3,a0,a3
   20700:	02c12503          	lw	a0,44(sp)
   20704:	00259593          	slli	a1,a1,0x2
   20708:	04058593          	addi	a1,a1,64
   2070c:	002585b3          	add	a1,a1,sp
   20710:	00c55633          	srl	a2,a0,a2
   20714:	fec5a023          	sw	a2,-32(a1)
   20718:	00400613          	li	a2,4
   2071c:	40d60633          	sub	a2,a2,a3
   20720:	00261613          	slli	a2,a2,0x2
   20724:	00269693          	slli	a3,a3,0x2
   20728:	00800593          	li	a1,8
   2072c:	00d806b3          	add	a3,a6,a3
   20730:	00b66a63          	bltu	a2,a1,20744 <__subtf3+0x4d4>
   20734:	0006a023          	sw	zero,0(a3) # 80000 <__BSS_END__+0x5c4fc>
   20738:	0006a223          	sw	zero,4(a3)
   2073c:	ff860613          	addi	a2,a2,-8
   20740:	00868693          	addi	a3,a3,8
   20744:	00400593          	li	a1,4
   20748:	00b66463          	bltu	a2,a1,20750 <__subtf3+0x4e0>
   2074c:	0006a023          	sw	zero,0(a3)
   20750:	02012683          	lw	a3,32(sp)
   20754:	00e03733          	snez	a4,a4
   20758:	00d76733          	or	a4,a4,a3
   2075c:	02412683          	lw	a3,36(sp)
   20760:	02e12023          	sw	a4,32(sp)
   20764:	00e78733          	add	a4,a5,a4
   20768:	01268933          	add	s2,a3,s2
   2076c:	02e12823          	sw	a4,48(sp)
   20770:	00f73733          	sltu	a4,a4,a5
   20774:	02812783          	lw	a5,40(sp)
   20778:	00e90733          	add	a4,s2,a4
   2077c:	02e12a23          	sw	a4,52(sp)
   20780:	00d936b3          	sltu	a3,s2,a3
   20784:	01273733          	sltu	a4,a4,s2
   20788:	013789b3          	add	s3,a5,s3
   2078c:	00e6e733          	or	a4,a3,a4
   20790:	00e98733          	add	a4,s3,a4
   20794:	02e12c23          	sw	a4,56(sp)
   20798:	00f9b7b3          	sltu	a5,s3,a5
   2079c:	01373733          	sltu	a4,a4,s3
   207a0:	00e7e7b3          	or	a5,a5,a4
   207a4:	02c12703          	lw	a4,44(sp)
   207a8:	00eb0733          	add	a4,s6,a4
   207ac:	00e787b3          	add	a5,a5,a4
   207b0:	00080737          	lui	a4,0x80
   207b4:	02f12e23          	sw	a5,60(sp)
   207b8:	00e7f733          	and	a4,a5,a4
   207bc:	d20708e3          	beqz	a4,204ec <__subtf3+0x27c>
   207c0:	fff80737          	lui	a4,0xfff80
   207c4:	fff70713          	addi	a4,a4,-1 # fff7ffff <__BSS_END__+0xfff5c4fb>
   207c8:	00e7f7b3          	and	a5,a5,a4
   207cc:	02f12e23          	sw	a5,60(sp)
   207d0:	03012783          	lw	a5,48(sp)
   207d4:	00148493          	addi	s1,s1,1
   207d8:	03c10593          	addi	a1,sp,60
   207dc:	01f79713          	slli	a4,a5,0x1f
   207e0:	03010793          	addi	a5,sp,48
   207e4:	0007a683          	lw	a3,0(a5)
   207e8:	0047a603          	lw	a2,4(a5)
   207ec:	00478793          	addi	a5,a5,4
   207f0:	0016d693          	srli	a3,a3,0x1
   207f4:	01f61613          	slli	a2,a2,0x1f
   207f8:	00c6e6b3          	or	a3,a3,a2
   207fc:	fed7ae23          	sw	a3,-4(a5)
   20800:	fef592e3          	bne	a1,a5,207e4 <__subtf3+0x574>
   20804:	03c12783          	lw	a5,60(sp)
   20808:	0017d793          	srli	a5,a5,0x1
   2080c:	02f12e23          	sw	a5,60(sp)
   20810:	00e037b3          	snez	a5,a4
   20814:	03012703          	lw	a4,48(sp)
   20818:	00f767b3          	or	a5,a4,a5
   2081c:	02f12823          	sw	a5,48(sp)
   20820:	000087b7          	lui	a5,0x8
   20824:	fff78793          	addi	a5,a5,-1 # 7fff <exit-0x8095>
   20828:	ccf492e3          	bne	s1,a5,204ec <__subtf3+0x27c>
   2082c:	02012e23          	sw	zero,60(sp)
   20830:	02012c23          	sw	zero,56(sp)
   20834:	02012a23          	sw	zero,52(sp)
   20838:	02012823          	sw	zero,48(sp)
   2083c:	cb1ff06f          	j	204ec <__subtf3+0x27c>
   20840:	00052303          	lw	t1,0(a0)
   20844:	00452f03          	lw	t5,4(a0)
   20848:	00450513          	addi	a0,a0,4
   2084c:	00c35333          	srl	t1,t1,a2
   20850:	01cf1f33          	sll	t5,t5,t3
   20854:	01e36333          	or	t1,t1,t5
   20858:	0068a023          	sw	t1,0(a7)
   2085c:	001e8e93          	addi	t4,t4,1
   20860:	00488893          	addi	a7,a7,4
   20864:	e91ff06f          	j	206f4 <__subtf3+0x484>
   20868:	fff58813          	addi	a6,a1,-1
   2086c:	04081663          	bnez	a6,208b8 <__subtf3+0x648>
   20870:	00878433          	add	s0,a5,s0
   20874:	01268933          	add	s2,a3,s2
   20878:	02812823          	sw	s0,48(sp)
   2087c:	00f43433          	sltu	s0,s0,a5
   20880:	00890433          	add	s0,s2,s0
   20884:	02812a23          	sw	s0,52(sp)
   20888:	00d936b3          	sltu	a3,s2,a3
   2088c:	01243433          	sltu	s0,s0,s2
   20890:	013709b3          	add	s3,a4,s3
   20894:	0086e6b3          	or	a3,a3,s0
   20898:	00d986b3          	add	a3,s3,a3
   2089c:	00e9b7b3          	sltu	a5,s3,a4
   208a0:	02d12c23          	sw	a3,56(sp)
   208a4:	0136b6b3          	sltu	a3,a3,s3
   208a8:	00d7e7b3          	or	a5,a5,a3
   208ac:	01688733          	add	a4,a7,s6
   208b0:	00e787b3          	add	a5,a5,a4
   208b4:	bf5ff06f          	j	204a8 <__subtf3+0x238>
   208b8:	000087b7          	lui	a5,0x8
   208bc:	fff78793          	addi	a5,a5,-1 # 7fff <exit-0x8095>
   208c0:	66f596e3          	bne	a1,a5,2172c <__subtf3+0x14bc>
   208c4:	02812823          	sw	s0,48(sp)
   208c8:	03212a23          	sw	s2,52(sp)
   208cc:	03312c23          	sw	s3,56(sp)
   208d0:	03612e23          	sw	s6,60(sp)
   208d4:	3ac0006f          	j	20c80 <__subtf3+0xa10>
   208d8:	00078413          	mv	s0,a5
   208dc:	fe9ff06f          	j	208c4 <__subtf3+0x654>
   208e0:	000087b7          	lui	a5,0x8
   208e4:	fff78793          	addi	a5,a5,-1 # 7fff <exit-0x8095>
   208e8:	fcfb8ee3          	beq	s7,a5,208c4 <__subtf3+0x654>
   208ec:	01c12783          	lw	a5,28(sp)
   208f0:	00080737          	lui	a4,0x80
   208f4:	00e7e7b3          	or	a5,a5,a4
   208f8:	00f12e23          	sw	a5,28(sp)
   208fc:	07400793          	li	a5,116
   20900:	62b7cae3          	blt	a5,a1,21734 <__subtf3+0x14c4>
   20904:	00058813          	mv	a6,a1
   20908:	41f85713          	srai	a4,a6,0x1f
   2090c:	01f77713          	andi	a4,a4,31
   20910:	01070733          	add	a4,a4,a6
   20914:	40575713          	srai	a4,a4,0x5
   20918:	00060693          	mv	a3,a2
   2091c:	00000493          	li	s1,0
   20920:	00000793          	li	a5,0
   20924:	02e7ce63          	blt	a5,a4,20960 <__subtf3+0x6f0>
   20928:	00300793          	li	a5,3
   2092c:	01f87893          	andi	a7,a6,31
   20930:	40e78333          	sub	t1,a5,a4
   20934:	00271693          	slli	a3,a4,0x2
   20938:	02089e63          	bnez	a7,20974 <__subtf3+0x704>
   2093c:	00d607b3          	add	a5,a2,a3
   20940:	0007a783          	lw	a5,0(a5)
   20944:	00188893          	addi	a7,a7,1
   20948:	00460613          	addi	a2,a2,4
   2094c:	fef62e23          	sw	a5,-4(a2)
   20950:	ff1356e3          	bge	t1,a7,2093c <__subtf3+0x6cc>
   20954:	00400793          	li	a5,4
   20958:	40e78733          	sub	a4,a5,a4
   2095c:	0900006f          	j	209ec <__subtf3+0x77c>
   20960:	0006a583          	lw	a1,0(a3)
   20964:	00178793          	addi	a5,a5,1
   20968:	00468693          	addi	a3,a3,4
   2096c:	00b4e4b3          	or	s1,s1,a1
   20970:	fb5ff06f          	j	20924 <__subtf3+0x6b4>
   20974:	800007b7          	lui	a5,0x80000
   20978:	01f78793          	addi	a5,a5,31 # 8000001f <__BSS_END__+0x7ffdc51b>
   2097c:	00f877b3          	and	a5,a6,a5
   20980:	0007d863          	bgez	a5,20990 <__subtf3+0x720>
   20984:	fff78793          	addi	a5,a5,-1
   20988:	fe07e793          	ori	a5,a5,-32
   2098c:	00178793          	addi	a5,a5,1
   20990:	02000813          	li	a6,32
   20994:	40f80833          	sub	a6,a6,a5
   20998:	00070593          	mv	a1,a4
   2099c:	00075463          	bgez	a4,209a4 <__subtf3+0x734>
   209a0:	00000593          	li	a1,0
   209a4:	00259593          	slli	a1,a1,0x2
   209a8:	04058793          	addi	a5,a1,64
   209ac:	002785b3          	add	a1,a5,sp
   209b0:	fd05a783          	lw	a5,-48(a1)
   209b4:	00d506b3          	add	a3,a0,a3
   209b8:	010797b3          	sll	a5,a5,a6
   209bc:	00f4e4b3          	or	s1,s1,a5
   209c0:	00000793          	li	a5,0
   209c4:	00468693          	addi	a3,a3,4
   209c8:	0a67c863          	blt	a5,t1,20a78 <__subtf3+0x808>
   209cc:	01c12683          	lw	a3,28(sp)
   209d0:	00400793          	li	a5,4
   209d4:	40e78733          	sub	a4,a5,a4
   209d8:	00231793          	slli	a5,t1,0x2
   209dc:	04078793          	addi	a5,a5,64
   209e0:	002787b3          	add	a5,a5,sp
   209e4:	0116d6b3          	srl	a3,a3,a7
   209e8:	fcd7a823          	sw	a3,-48(a5)
   209ec:	00400793          	li	a5,4
   209f0:	00000613          	li	a2,0
   209f4:	00e7c663          	blt	a5,a4,20a00 <__subtf3+0x790>
   209f8:	40e787b3          	sub	a5,a5,a4
   209fc:	00279613          	slli	a2,a5,0x2
   20a00:	00271713          	slli	a4,a4,0x2
   20a04:	00e50533          	add	a0,a0,a4
   20a08:	00000593          	li	a1,0
   20a0c:	9fcf00ef          	jal	ra,10c08 <memset>
   20a10:	01012703          	lw	a4,16(sp)
   20a14:	009037b3          	snez	a5,s1
   20a18:	00e7e7b3          	or	a5,a5,a4
   20a1c:	01412683          	lw	a3,20(sp)
   20a20:	00f12823          	sw	a5,16(sp)
   20a24:	00f407b3          	add	a5,s0,a5
   20a28:	01268933          	add	s2,a3,s2
   20a2c:	02f12823          	sw	a5,48(sp)
   20a30:	0087b7b3          	sltu	a5,a5,s0
   20a34:	00f90733          	add	a4,s2,a5
   20a38:	01812783          	lw	a5,24(sp)
   20a3c:	02e12a23          	sw	a4,52(sp)
   20a40:	00d936b3          	sltu	a3,s2,a3
   20a44:	01273733          	sltu	a4,a4,s2
   20a48:	013789b3          	add	s3,a5,s3
   20a4c:	00e6e733          	or	a4,a3,a4
   20a50:	00e98733          	add	a4,s3,a4
   20a54:	02e12c23          	sw	a4,56(sp)
   20a58:	00f9b7b3          	sltu	a5,s3,a5
   20a5c:	01373733          	sltu	a4,a4,s3
   20a60:	00e7e7b3          	or	a5,a5,a4
   20a64:	01c12703          	lw	a4,28(sp)
   20a68:	000b8493          	mv	s1,s7
   20a6c:	00eb0733          	add	a4,s6,a4
   20a70:	00e787b3          	add	a5,a5,a4
   20a74:	d3dff06f          	j	207b0 <__subtf3+0x540>
   20a78:	ffc6a583          	lw	a1,-4(a3)
   20a7c:	0006ae03          	lw	t3,0(a3)
   20a80:	00178793          	addi	a5,a5,1
   20a84:	0115d5b3          	srl	a1,a1,a7
   20a88:	010e1e33          	sll	t3,t3,a6
   20a8c:	01c5e5b3          	or	a1,a1,t3
   20a90:	00b62023          	sw	a1,0(a2)
   20a94:	00460613          	addi	a2,a2,4
   20a98:	f2dff06f          	j	209c4 <__subtf3+0x754>
   20a9c:	00008337          	lui	t1,0x8
   20aa0:	00148813          	addi	a6,s1,1
   20aa4:	ffe30893          	addi	a7,t1,-2 # 7ffe <exit-0x8096>
   20aa8:	011878b3          	and	a7,a6,a7
   20aac:	01412683          	lw	a3,20(sp)
   20ab0:	01812703          	lw	a4,24(sp)
   20ab4:	01c12603          	lw	a2,28(sp)
   20ab8:	03010593          	addi	a1,sp,48
   20abc:	03c10513          	addi	a0,sp,60
   20ac0:	12089263          	bnez	a7,20be4 <__subtf3+0x974>
   20ac4:	00e6e833          	or	a6,a3,a4
   20ac8:	00c86833          	or	a6,a6,a2
   20acc:	00f86833          	or	a6,a6,a5
   20ad0:	0a049a63          	bnez	s1,20b84 <__subtf3+0x914>
   20ad4:	00081e63          	bnez	a6,20af0 <__subtf3+0x880>
   20ad8:	02812823          	sw	s0,48(sp)
   20adc:	03212a23          	sw	s2,52(sp)
   20ae0:	03312c23          	sw	s3,56(sp)
   20ae4:	03612e23          	sw	s6,60(sp)
   20ae8:	00000493          	li	s1,0
   20aec:	a01ff06f          	j	204ec <__subtf3+0x27c>
   20af0:	013965b3          	or	a1,s2,s3
   20af4:	0165e5b3          	or	a1,a1,s6
   20af8:	0085e5b3          	or	a1,a1,s0
   20afc:	00059c63          	bnez	a1,20b14 <__subtf3+0x8a4>
   20b00:	02f12823          	sw	a5,48(sp)
   20b04:	02d12a23          	sw	a3,52(sp)
   20b08:	02e12c23          	sw	a4,56(sp)
   20b0c:	02c12e23          	sw	a2,60(sp)
   20b10:	9ddff06f          	j	204ec <__subtf3+0x27c>
   20b14:	00878433          	add	s0,a5,s0
   20b18:	01268933          	add	s2,a3,s2
   20b1c:	02812823          	sw	s0,48(sp)
   20b20:	00f43433          	sltu	s0,s0,a5
   20b24:	00890433          	add	s0,s2,s0
   20b28:	02812a23          	sw	s0,52(sp)
   20b2c:	00d936b3          	sltu	a3,s2,a3
   20b30:	01243433          	sltu	s0,s0,s2
   20b34:	013709b3          	add	s3,a4,s3
   20b38:	0086e6b3          	or	a3,a3,s0
   20b3c:	00d986b3          	add	a3,s3,a3
   20b40:	00e9b7b3          	sltu	a5,s3,a4
   20b44:	02d12c23          	sw	a3,56(sp)
   20b48:	0136b6b3          	sltu	a3,a3,s3
   20b4c:	00d7e7b3          	or	a5,a5,a3
   20b50:	01660633          	add	a2,a2,s6
   20b54:	00c787b3          	add	a5,a5,a2
   20b58:	00080737          	lui	a4,0x80
   20b5c:	00e7f733          	and	a4,a5,a4
   20b60:	00071663          	bnez	a4,20b6c <__subtf3+0x8fc>
   20b64:	02f12e23          	sw	a5,60(sp)
   20b68:	f81ff06f          	j	20ae8 <__subtf3+0x878>
   20b6c:	fff80737          	lui	a4,0xfff80
   20b70:	fff70713          	addi	a4,a4,-1 # fff7ffff <__BSS_END__+0xfff5c4fb>
   20b74:	00e7f7b3          	and	a5,a5,a4
   20b78:	02f12e23          	sw	a5,60(sp)
   20b7c:	00100493          	li	s1,1
   20b80:	96dff06f          	j	204ec <__subtf3+0x27c>
   20b84:	92080ee3          	beqz	a6,204c0 <__subtf3+0x250>
   20b88:	01396933          	or	s2,s2,s3
   20b8c:	01696933          	or	s2,s2,s6
   20b90:	00896933          	or	s2,s2,s0
   20b94:	92090ae3          	beqz	s2,204c8 <__subtf3+0x258>
   20b98:	02612e23          	sw	t1,60(sp)
   20b9c:	02012c23          	sw	zero,56(sp)
   20ba0:	02012a23          	sw	zero,52(sp)
   20ba4:	02012823          	sw	zero,48(sp)
   20ba8:	00050793          	mv	a5,a0
   20bac:	0007a703          	lw	a4,0(a5)
   20bb0:	ffc7a683          	lw	a3,-4(a5)
   20bb4:	ffc78793          	addi	a5,a5,-4
   20bb8:	00371713          	slli	a4,a4,0x3
   20bbc:	01d6d693          	srli	a3,a3,0x1d
   20bc0:	00d76733          	or	a4,a4,a3
   20bc4:	00e7a223          	sw	a4,4(a5)
   20bc8:	fef592e3          	bne	a1,a5,20bac <__subtf3+0x93c>
   20bcc:	03012783          	lw	a5,48(sp)
   20bd0:	000084b7          	lui	s1,0x8
   20bd4:	fff48493          	addi	s1,s1,-1 # 7fff <exit-0x8095>
   20bd8:	00379793          	slli	a5,a5,0x3
   20bdc:	02f12823          	sw	a5,48(sp)
   20be0:	60c0006f          	j	211ec <__subtf3+0xf7c>
   20be4:	00878433          	add	s0,a5,s0
   20be8:	01268933          	add	s2,a3,s2
   20bec:	02812823          	sw	s0,48(sp)
   20bf0:	00f43433          	sltu	s0,s0,a5
   20bf4:	00890433          	add	s0,s2,s0
   20bf8:	02812a23          	sw	s0,52(sp)
   20bfc:	00d937b3          	sltu	a5,s2,a3
   20c00:	01243433          	sltu	s0,s0,s2
   20c04:	013709b3          	add	s3,a4,s3
   20c08:	0087e7b3          	or	a5,a5,s0
   20c0c:	00f987b3          	add	a5,s3,a5
   20c10:	02f12c23          	sw	a5,56(sp)
   20c14:	00e9b733          	sltu	a4,s3,a4
   20c18:	0137b7b3          	sltu	a5,a5,s3
   20c1c:	00f767b3          	or	a5,a4,a5
   20c20:	01660633          	add	a2,a2,s6
   20c24:	00c787b3          	add	a5,a5,a2
   20c28:	02f12e23          	sw	a5,60(sp)
   20c2c:	00058793          	mv	a5,a1
   20c30:	0007a703          	lw	a4,0(a5)
   20c34:	0047a683          	lw	a3,4(a5)
   20c38:	00478793          	addi	a5,a5,4
   20c3c:	00175713          	srli	a4,a4,0x1
   20c40:	01f69693          	slli	a3,a3,0x1f
   20c44:	00d76733          	or	a4,a4,a3
   20c48:	fee7ae23          	sw	a4,-4(a5)
   20c4c:	fef512e3          	bne	a0,a5,20c30 <__subtf3+0x9c0>
   20c50:	00008737          	lui	a4,0x8
   20c54:	fff70713          	addi	a4,a4,-1 # 7fff <exit-0x8095>
   20c58:	03c12783          	lw	a5,60(sp)
   20c5c:	00e80a63          	beq	a6,a4,20c70 <__subtf3+0xa00>
   20c60:	0017d793          	srli	a5,a5,0x1
   20c64:	02f12e23          	sw	a5,60(sp)
   20c68:	00080493          	mv	s1,a6
   20c6c:	881ff06f          	j	204ec <__subtf3+0x27c>
   20c70:	02012e23          	sw	zero,60(sp)
   20c74:	02012c23          	sw	zero,56(sp)
   20c78:	02012a23          	sw	zero,52(sp)
   20c7c:	02012823          	sw	zero,48(sp)
   20c80:	000084b7          	lui	s1,0x8
   20c84:	fff48493          	addi	s1,s1,-1 # 7fff <exit-0x8095>
   20c88:	865ff06f          	j	204ec <__subtf3+0x27c>
   20c8c:	26b05663          	blez	a1,20ef8 <__subtf3+0xc88>
   20c90:	01412903          	lw	s2,20(sp)
   20c94:	01812983          	lw	s3,24(sp)
   20c98:	01c12b03          	lw	s6,28(sp)
   20c9c:	080b9e63          	bnez	s7,20d38 <__subtf3+0xac8>
   20ca0:	02412e83          	lw	t4,36(sp)
   20ca4:	02812303          	lw	t1,40(sp)
   20ca8:	02c12683          	lw	a3,44(sp)
   20cac:	006ee733          	or	a4,t4,t1
   20cb0:	00d76733          	or	a4,a4,a3
   20cb4:	00876733          	or	a4,a4,s0
   20cb8:	f8070e63          	beqz	a4,20454 <__subtf3+0x1e4>
   20cbc:	fff58513          	addi	a0,a1,-1
   20cc0:	04051c63          	bnez	a0,20d18 <__subtf3+0xaa8>
   20cc4:	41d90633          	sub	a2,s2,t4
   20cc8:	40878733          	sub	a4,a5,s0
   20ccc:	00c938b3          	sltu	a7,s2,a2
   20cd0:	00e7b5b3          	sltu	a1,a5,a4
   20cd4:	40b60633          	sub	a2,a2,a1
   20cd8:	00088e13          	mv	t3,a7
   20cdc:	406985b3          	sub	a1,s3,t1
   20ce0:	0069b833          	sltu	a6,s3,t1
   20ce4:	00e7fc63          	bgeu	a5,a4,20cfc <__subtf3+0xa8c>
   20ce8:	012e9a63          	bne	t4,s2,20cfc <__subtf3+0xa8c>
   20cec:	fff58593          	addi	a1,a1,-1
   20cf0:	41330333          	sub	t1,t1,s3
   20cf4:	00133513          	seqz	a0,t1
   20cf8:	00c0006f          	j	20d04 <__subtf3+0xa94>
   20cfc:	41c585b3          	sub	a1,a1,t3
   20d00:	fe0898e3          	bnez	a7,20cf0 <__subtf3+0xa80>
   20d04:	40db07b3          	sub	a5,s6,a3
   20d08:	010566b3          	or	a3,a0,a6
   20d0c:	40d787b3          	sub	a5,a5,a3
   20d10:	00100493          	li	s1,1
   20d14:	1b80006f          	j	20ecc <__subtf3+0xc5c>
   20d18:	fbc58063          	beq	a1,t3,204b8 <__subtf3+0x248>
   20d1c:	07400713          	li	a4,116
   20d20:	02a75c63          	bge	a4,a0,20d58 <__subtf3+0xae8>
   20d24:	02012623          	sw	zero,44(sp)
   20d28:	02012423          	sw	zero,40(sp)
   20d2c:	02012223          	sw	zero,36(sp)
   20d30:	00100713          	li	a4,1
   20d34:	1100006f          	j	20e44 <__subtf3+0xbd4>
   20d38:	bbc480e3          	beq	s1,t3,208d8 <__subtf3+0x668>
   20d3c:	02c12703          	lw	a4,44(sp)
   20d40:	000806b7          	lui	a3,0x80
   20d44:	00d76733          	or	a4,a4,a3
   20d48:	02e12623          	sw	a4,44(sp)
   20d4c:	07400713          	li	a4,116
   20d50:	fcb74ae3          	blt	a4,a1,20d24 <__subtf3+0xab4>
   20d54:	00058513          	mv	a0,a1
   20d58:	40555693          	srai	a3,a0,0x5
   20d5c:	00088593          	mv	a1,a7
   20d60:	01f57513          	andi	a0,a0,31
   20d64:	00000713          	li	a4,0
   20d68:	00000613          	li	a2,0
   20d6c:	02d61c63          	bne	a2,a3,20da4 <__subtf3+0xb34>
   20d70:	00300613          	li	a2,3
   20d74:	40d60633          	sub	a2,a2,a3
   20d78:	00269593          	slli	a1,a3,0x2
   20d7c:	02051e63          	bnez	a0,20db8 <__subtf3+0xb48>
   20d80:	00b88333          	add	t1,a7,a1
   20d84:	00032303          	lw	t1,0(t1)
   20d88:	00150513          	addi	a0,a0,1
   20d8c:	00488893          	addi	a7,a7,4
   20d90:	fe68ae23          	sw	t1,-4(a7)
   20d94:	fea656e3          	bge	a2,a0,20d80 <__subtf3+0xb10>
   20d98:	00400613          	li	a2,4
   20d9c:	40d606b3          	sub	a3,a2,a3
   20da0:	0600006f          	j	20e00 <__subtf3+0xb90>
   20da4:	0005a303          	lw	t1,0(a1)
   20da8:	00160613          	addi	a2,a2,1
   20dac:	00458593          	addi	a1,a1,4
   20db0:	00676733          	or	a4,a4,t1
   20db4:	fb9ff06f          	j	20d6c <__subtf3+0xafc>
   20db8:	04058313          	addi	t1,a1,64
   20dbc:	00230333          	add	t1,t1,sp
   20dc0:	fe032303          	lw	t1,-32(t1)
   20dc4:	02000e13          	li	t3,32
   20dc8:	40ae0e33          	sub	t3,t3,a0
   20dcc:	01c31333          	sll	t1,t1,t3
   20dd0:	00676733          	or	a4,a4,t1
   20dd4:	00b805b3          	add	a1,a6,a1
   20dd8:	00000e93          	li	t4,0
   20ddc:	0acec663          	blt	t4,a2,20e88 <__subtf3+0xc18>
   20de0:	00400593          	li	a1,4
   20de4:	40d586b3          	sub	a3,a1,a3
   20de8:	02c12583          	lw	a1,44(sp)
   20dec:	00261613          	slli	a2,a2,0x2
   20df0:	04060613          	addi	a2,a2,64
   20df4:	00260633          	add	a2,a2,sp
   20df8:	00a5d5b3          	srl	a1,a1,a0
   20dfc:	feb62023          	sw	a1,-32(a2)
   20e00:	00400613          	li	a2,4
   20e04:	40d60633          	sub	a2,a2,a3
   20e08:	00261613          	slli	a2,a2,0x2
   20e0c:	00269693          	slli	a3,a3,0x2
   20e10:	00800593          	li	a1,8
   20e14:	00d806b3          	add	a3,a6,a3
   20e18:	00b66a63          	bltu	a2,a1,20e2c <__subtf3+0xbbc>
   20e1c:	0006a023          	sw	zero,0(a3) # 80000 <__BSS_END__+0x5c4fc>
   20e20:	0006a223          	sw	zero,4(a3)
   20e24:	ff860613          	addi	a2,a2,-8
   20e28:	00868693          	addi	a3,a3,8
   20e2c:	00400593          	li	a1,4
   20e30:	00b66463          	bltu	a2,a1,20e38 <__subtf3+0xbc8>
   20e34:	0006a023          	sw	zero,0(a3)
   20e38:	02012683          	lw	a3,32(sp)
   20e3c:	00e03733          	snez	a4,a4
   20e40:	00d76733          	or	a4,a4,a3
   20e44:	02412503          	lw	a0,36(sp)
   20e48:	02e12023          	sw	a4,32(sp)
   20e4c:	40e78733          	sub	a4,a5,a4
   20e50:	40a90633          	sub	a2,s2,a0
   20e54:	00e7b6b3          	sltu	a3,a5,a4
   20e58:	00c938b3          	sltu	a7,s2,a2
   20e5c:	40d60633          	sub	a2,a2,a3
   20e60:	02812683          	lw	a3,40(sp)
   20e64:	00088313          	mv	t1,a7
   20e68:	40d985b3          	sub	a1,s3,a3
   20e6c:	00d9b833          	sltu	a6,s3,a3
   20e70:	04e7f063          	bgeu	a5,a4,20eb0 <__subtf3+0xc40>
   20e74:	03251e63          	bne	a0,s2,20eb0 <__subtf3+0xc40>
   20e78:	fff58593          	addi	a1,a1,-1
   20e7c:	413686b3          	sub	a3,a3,s3
   20e80:	0016b513          	seqz	a0,a3
   20e84:	0380006f          	j	20ebc <__subtf3+0xc4c>
   20e88:	0005a303          	lw	t1,0(a1)
   20e8c:	0045af03          	lw	t5,4(a1)
   20e90:	00458593          	addi	a1,a1,4
   20e94:	00a35333          	srl	t1,t1,a0
   20e98:	01cf1f33          	sll	t5,t5,t3
   20e9c:	01e36333          	or	t1,t1,t5
   20ea0:	0068a023          	sw	t1,0(a7)
   20ea4:	001e8e93          	addi	t4,t4,1
   20ea8:	00488893          	addi	a7,a7,4
   20eac:	f31ff06f          	j	20ddc <__subtf3+0xb6c>
   20eb0:	406585b3          	sub	a1,a1,t1
   20eb4:	00000513          	li	a0,0
   20eb8:	fc0892e3          	bnez	a7,20e7c <__subtf3+0xc0c>
   20ebc:	02c12783          	lw	a5,44(sp)
   20ec0:	01056533          	or	a0,a0,a6
   20ec4:	40fb07b3          	sub	a5,s6,a5
   20ec8:	40a787b3          	sub	a5,a5,a0
   20ecc:	02e12823          	sw	a4,48(sp)
   20ed0:	00080737          	lui	a4,0x80
   20ed4:	02f12e23          	sw	a5,60(sp)
   20ed8:	02b12c23          	sw	a1,56(sp)
   20edc:	02c12a23          	sw	a2,52(sp)
   20ee0:	00e7f6b3          	and	a3,a5,a4
   20ee4:	e0068463          	beqz	a3,204ec <__subtf3+0x27c>
   20ee8:	fff70713          	addi	a4,a4,-1 # 7ffff <__BSS_END__+0x5c4fb>
   20eec:	00e7f7b3          	and	a5,a5,a4
   20ef0:	02f12e23          	sw	a5,60(sp)
   20ef4:	5680006f          	j	2145c <__subtf3+0x11ec>
   20ef8:	02412903          	lw	s2,36(sp)
   20efc:	02812c03          	lw	s8,40(sp)
   20f00:	02c12b03          	lw	s6,44(sp)
   20f04:	28058863          	beqz	a1,21194 <__subtf3+0xf24>
   20f08:	409b8733          	sub	a4,s7,s1
   20f0c:	0a049e63          	bnez	s1,20fc8 <__subtf3+0xd58>
   20f10:	01412303          	lw	t1,20(sp)
   20f14:	01812803          	lw	a6,24(sp)
   20f18:	01c12683          	lw	a3,28(sp)
   20f1c:	010365b3          	or	a1,t1,a6
   20f20:	00d5e5b3          	or	a1,a1,a3
   20f24:	00f5e5b3          	or	a1,a1,a5
   20f28:	02059063          	bnez	a1,20f48 <__subtf3+0xcd8>
   20f2c:	02812823          	sw	s0,48(sp)
   20f30:	03212a23          	sw	s2,52(sp)
   20f34:	03812c23          	sw	s8,56(sp)
   20f38:	03612e23          	sw	s6,60(sp)
   20f3c:	00070493          	mv	s1,a4
   20f40:	00098a93          	mv	s5,s3
   20f44:	da8ff06f          	j	204ec <__subtf3+0x27c>
   20f48:	fff70893          	addi	a7,a4,-1
   20f4c:	04089c63          	bnez	a7,20fa4 <__subtf3+0xd34>
   20f50:	40f40733          	sub	a4,s0,a5
   20f54:	40690633          	sub	a2,s2,t1
   20f58:	00c937b3          	sltu	a5,s2,a2
   20f5c:	00e435b3          	sltu	a1,s0,a4
   20f60:	40b60633          	sub	a2,a2,a1
   20f64:	00078e13          	mv	t3,a5
   20f68:	410c05b3          	sub	a1,s8,a6
   20f6c:	010c3533          	sltu	a0,s8,a6
   20f70:	00e47c63          	bgeu	s0,a4,20f88 <__subtf3+0xd18>
   20f74:	01231a63          	bne	t1,s2,20f88 <__subtf3+0xd18>
   20f78:	fff58593          	addi	a1,a1,-1
   20f7c:	41880833          	sub	a6,a6,s8
   20f80:	00183893          	seqz	a7,a6
   20f84:	00c0006f          	j	20f90 <__subtf3+0xd20>
   20f88:	41c585b3          	sub	a1,a1,t3
   20f8c:	fe0798e3          	bnez	a5,20f7c <__subtf3+0xd0c>
   20f90:	40db07b3          	sub	a5,s6,a3
   20f94:	00a8e6b3          	or	a3,a7,a0
   20f98:	40d787b3          	sub	a5,a5,a3
   20f9c:	00098a93          	mv	s5,s3
   20fa0:	d71ff06f          	j	20d10 <__subtf3+0xaa0>
   20fa4:	000087b7          	lui	a5,0x8
   20fa8:	fff78793          	addi	a5,a5,-1 # 7fff <exit-0x8095>
   20fac:	78f71e63          	bne	a4,a5,21748 <__subtf3+0x14d8>
   20fb0:	02812823          	sw	s0,48(sp)
   20fb4:	03212a23          	sw	s2,52(sp)
   20fb8:	03812c23          	sw	s8,56(sp)
   20fbc:	03612e23          	sw	s6,60(sp)
   20fc0:	00098a93          	mv	s5,s3
   20fc4:	cbdff06f          	j	20c80 <__subtf3+0xa10>
   20fc8:	000087b7          	lui	a5,0x8
   20fcc:	fff78793          	addi	a5,a5,-1 # 7fff <exit-0x8095>
   20fd0:	fefb80e3          	beq	s7,a5,20fb0 <__subtf3+0xd40>
   20fd4:	01c12783          	lw	a5,28(sp)
   20fd8:	000806b7          	lui	a3,0x80
   20fdc:	00d7e7b3          	or	a5,a5,a3
   20fe0:	00f12e23          	sw	a5,28(sp)
   20fe4:	07400793          	li	a5,116
   20fe8:	76e7c463          	blt	a5,a4,21750 <__subtf3+0x14e0>
   20fec:	00070893          	mv	a7,a4
   20ff0:	41f8d793          	srai	a5,a7,0x1f
   20ff4:	01f7f793          	andi	a5,a5,31
   20ff8:	011787b3          	add	a5,a5,a7
   20ffc:	4057d793          	srai	a5,a5,0x5
   21000:	00060693          	mv	a3,a2
   21004:	00000493          	li	s1,0
   21008:	00000713          	li	a4,0
   2100c:	02f74e63          	blt	a4,a5,21048 <__subtf3+0xdd8>
   21010:	00300693          	li	a3,3
   21014:	01f8f313          	andi	t1,a7,31
   21018:	40f68e33          	sub	t3,a3,a5
   2101c:	00279593          	slli	a1,a5,0x2
   21020:	02031e63          	bnez	t1,2105c <__subtf3+0xdec>
   21024:	00b60733          	add	a4,a2,a1
   21028:	00072703          	lw	a4,0(a4)
   2102c:	00130313          	addi	t1,t1,1
   21030:	00460613          	addi	a2,a2,4
   21034:	fee62e23          	sw	a4,-4(a2)
   21038:	fe6e56e3          	bge	t3,t1,21024 <__subtf3+0xdb4>
   2103c:	00400713          	li	a4,4
   21040:	40f707b3          	sub	a5,a4,a5
   21044:	0900006f          	j	210d4 <__subtf3+0xe64>
   21048:	0006a583          	lw	a1,0(a3) # 80000 <__BSS_END__+0x5c4fc>
   2104c:	00170713          	addi	a4,a4,1
   21050:	00468693          	addi	a3,a3,4
   21054:	00b4e4b3          	or	s1,s1,a1
   21058:	fb5ff06f          	j	2100c <__subtf3+0xd9c>
   2105c:	800006b7          	lui	a3,0x80000
   21060:	01f68693          	addi	a3,a3,31 # 8000001f <__BSS_END__+0x7ffdc51b>
   21064:	00d8f6b3          	and	a3,a7,a3
   21068:	0006d863          	bgez	a3,21078 <__subtf3+0xe08>
   2106c:	fff68693          	addi	a3,a3,-1
   21070:	fe06e693          	ori	a3,a3,-32
   21074:	00168693          	addi	a3,a3,1
   21078:	02000893          	li	a7,32
   2107c:	40d888b3          	sub	a7,a7,a3
   21080:	00078813          	mv	a6,a5
   21084:	0007d463          	bgez	a5,2108c <__subtf3+0xe1c>
   21088:	00000813          	li	a6,0
   2108c:	00281813          	slli	a6,a6,0x2
   21090:	04080713          	addi	a4,a6,64
   21094:	00270833          	add	a6,a4,sp
   21098:	fd082703          	lw	a4,-48(a6)
   2109c:	00b505b3          	add	a1,a0,a1
   210a0:	00000693          	li	a3,0
   210a4:	01171733          	sll	a4,a4,a7
   210a8:	00e4e4b3          	or	s1,s1,a4
   210ac:	00458593          	addi	a1,a1,4
   210b0:	09c6cc63          	blt	a3,t3,21148 <__subtf3+0xed8>
   210b4:	00400713          	li	a4,4
   210b8:	002e1693          	slli	a3,t3,0x2
   210bc:	40f707b3          	sub	a5,a4,a5
   210c0:	04068713          	addi	a4,a3,64
   210c4:	002706b3          	add	a3,a4,sp
   210c8:	01c12703          	lw	a4,28(sp)
   210cc:	00675733          	srl	a4,a4,t1
   210d0:	fce6a823          	sw	a4,-48(a3)
   210d4:	00400713          	li	a4,4
   210d8:	00000613          	li	a2,0
   210dc:	00f74663          	blt	a4,a5,210e8 <__subtf3+0xe78>
   210e0:	40f70733          	sub	a4,a4,a5
   210e4:	00271613          	slli	a2,a4,0x2
   210e8:	00279793          	slli	a5,a5,0x2
   210ec:	00f50533          	add	a0,a0,a5
   210f0:	00000593          	li	a1,0
   210f4:	b15ef0ef          	jal	ra,10c08 <memset>
   210f8:	01012783          	lw	a5,16(sp)
   210fc:	00903733          	snez	a4,s1
   21100:	00f76733          	or	a4,a4,a5
   21104:	01412683          	lw	a3,20(sp)
   21108:	00e12823          	sw	a4,16(sp)
   2110c:	40e40733          	sub	a4,s0,a4
   21110:	40d90633          	sub	a2,s2,a3
   21114:	00e437b3          	sltu	a5,s0,a4
   21118:	00c93833          	sltu	a6,s2,a2
   2111c:	40f60633          	sub	a2,a2,a5
   21120:	01812783          	lw	a5,24(sp)
   21124:	00080893          	mv	a7,a6
   21128:	40fc05b3          	sub	a1,s8,a5
   2112c:	00fc3533          	sltu	a0,s8,a5
   21130:	02e47e63          	bgeu	s0,a4,2116c <__subtf3+0xefc>
   21134:	03269c63          	bne	a3,s2,2116c <__subtf3+0xefc>
   21138:	fff58593          	addi	a1,a1,-1
   2113c:	418787b3          	sub	a5,a5,s8
   21140:	0017b693          	seqz	a3,a5
   21144:	0340006f          	j	21178 <__subtf3+0xf08>
   21148:	ffc5a703          	lw	a4,-4(a1)
   2114c:	0005a803          	lw	a6,0(a1)
   21150:	00168693          	addi	a3,a3,1
   21154:	00675733          	srl	a4,a4,t1
   21158:	01181833          	sll	a6,a6,a7
   2115c:	01076733          	or	a4,a4,a6
   21160:	00e62023          	sw	a4,0(a2)
   21164:	00460613          	addi	a2,a2,4
   21168:	f45ff06f          	j	210ac <__subtf3+0xe3c>
   2116c:	411585b3          	sub	a1,a1,a7
   21170:	00000693          	li	a3,0
   21174:	fc0814e3          	bnez	a6,2113c <__subtf3+0xecc>
   21178:	01c12783          	lw	a5,28(sp)
   2117c:	00a6e6b3          	or	a3,a3,a0
   21180:	000b8493          	mv	s1,s7
   21184:	40fb07b3          	sub	a5,s6,a5
   21188:	40d787b3          	sub	a5,a5,a3
   2118c:	00098a93          	mv	s5,s3
   21190:	d3dff06f          	j	20ecc <__subtf3+0xc5c>
   21194:	00008837          	lui	a6,0x8
   21198:	00148613          	addi	a2,s1,1
   2119c:	ffe80593          	addi	a1,a6,-2 # 7ffe <exit-0x8096>
   211a0:	00b67633          	and	a2,a2,a1
   211a4:	01412503          	lw	a0,20(sp)
   211a8:	01812703          	lw	a4,24(sp)
   211ac:	01c12683          	lw	a3,28(sp)
   211b0:	1e061463          	bnez	a2,21398 <__subtf3+0x1128>
   211b4:	01896633          	or	a2,s2,s8
   211b8:	00e565b3          	or	a1,a0,a4
   211bc:	01666633          	or	a2,a2,s6
   211c0:	00d5e5b3          	or	a1,a1,a3
   211c4:	00866633          	or	a2,a2,s0
   211c8:	00f5e5b3          	or	a1,a1,a5
   211cc:	10049e63          	bnez	s1,212e8 <__subtf3+0x1078>
   211d0:	02059263          	bnez	a1,211f4 <__subtf3+0xf84>
   211d4:	02812823          	sw	s0,48(sp)
   211d8:	03212a23          	sw	s2,52(sp)
   211dc:	03812c23          	sw	s8,56(sp)
   211e0:	03612e23          	sw	s6,60(sp)
   211e4:	d4061ee3          	bnez	a2,20f40 <__subtf3+0xcd0>
   211e8:	00000493          	li	s1,0
   211ec:	00000a93          	li	s5,0
   211f0:	afcff06f          	j	204ec <__subtf3+0x27c>
   211f4:	00061c63          	bnez	a2,2120c <__subtf3+0xf9c>
   211f8:	02f12823          	sw	a5,48(sp)
   211fc:	02a12a23          	sw	a0,52(sp)
   21200:	02e12c23          	sw	a4,56(sp)
   21204:	02d12e23          	sw	a3,60(sp)
   21208:	8e1ff06f          	j	20ae8 <__subtf3+0x878>
   2120c:	412505b3          	sub	a1,a0,s2
   21210:	40878633          	sub	a2,a5,s0
   21214:	00b53f33          	sltu	t5,a0,a1
   21218:	00c7b833          	sltu	a6,a5,a2
   2121c:	000f0893          	mv	a7,t5
   21220:	41058833          	sub	a6,a1,a6
   21224:	41870e33          	sub	t3,a4,s8
   21228:	01873eb3          	sltu	t4,a4,s8
   2122c:	00c7fa63          	bgeu	a5,a2,21240 <__subtf3+0xfd0>
   21230:	01251863          	bne	a0,s2,21240 <__subtf3+0xfd0>
   21234:	fffe0893          	addi	a7,t3,-1
   21238:	001e3313          	seqz	t1,t3
   2123c:	0100006f          	j	2124c <__subtf3+0xfdc>
   21240:	411e08b3          	sub	a7,t3,a7
   21244:	00000313          	li	t1,0
   21248:	fe0f18e3          	bnez	t5,21238 <__subtf3+0xfc8>
   2124c:	01d36333          	or	t1,t1,t4
   21250:	416685b3          	sub	a1,a3,s6
   21254:	406585b3          	sub	a1,a1,t1
   21258:	00080337          	lui	t1,0x80
   2125c:	02b12e23          	sw	a1,60(sp)
   21260:	03112c23          	sw	a7,56(sp)
   21264:	03012a23          	sw	a6,52(sp)
   21268:	02c12823          	sw	a2,48(sp)
   2126c:	0065f333          	and	t1,a1,t1
   21270:	06030263          	beqz	t1,212d4 <__subtf3+0x1064>
   21274:	40a90633          	sub	a2,s2,a0
   21278:	40f407b3          	sub	a5,s0,a5
   2127c:	00c93833          	sltu	a6,s2,a2
   21280:	00f435b3          	sltu	a1,s0,a5
   21284:	40b60633          	sub	a2,a2,a1
   21288:	00080893          	mv	a7,a6
   2128c:	40ec05b3          	sub	a1,s8,a4
   21290:	00ec3733          	sltu	a4,s8,a4
   21294:	00f47a63          	bgeu	s0,a5,212a8 <__subtf3+0x1038>
   21298:	01251863          	bne	a0,s2,212a8 <__subtf3+0x1038>
   2129c:	fff58593          	addi	a1,a1,-1
   212a0:	001e3513          	seqz	a0,t3
   212a4:	0100006f          	j	212b4 <__subtf3+0x1044>
   212a8:	411585b3          	sub	a1,a1,a7
   212ac:	00000513          	li	a0,0
   212b0:	fe0818e3          	bnez	a6,212a0 <__subtf3+0x1030>
   212b4:	40db06b3          	sub	a3,s6,a3
   212b8:	00e56533          	or	a0,a0,a4
   212bc:	40a686b3          	sub	a3,a3,a0
   212c0:	02d12e23          	sw	a3,60(sp)
   212c4:	02b12c23          	sw	a1,56(sp)
   212c8:	02c12a23          	sw	a2,52(sp)
   212cc:	02f12823          	sw	a5,48(sp)
   212d0:	c71ff06f          	j	20f40 <__subtf3+0xcd0>
   212d4:	01066633          	or	a2,a2,a6
   212d8:	01166633          	or	a2,a2,a7
   212dc:	00b66633          	or	a2,a2,a1
   212e0:	f00604e3          	beqz	a2,211e8 <__subtf3+0xf78>
   212e4:	805ff06f          	j	20ae8 <__subtf3+0x878>
   212e8:	03010893          	addi	a7,sp,48
   212ec:	04059e63          	bnez	a1,21348 <__subtf3+0x10d8>
   212f0:	02061e63          	bnez	a2,2132c <__subtf3+0x10bc>
   212f4:	03012e23          	sw	a6,60(sp)
   212f8:	02012c23          	sw	zero,56(sp)
   212fc:	02012a23          	sw	zero,52(sp)
   21300:	02012823          	sw	zero,48(sp)
   21304:	03c10793          	addi	a5,sp,60
   21308:	0007a703          	lw	a4,0(a5)
   2130c:	ffc7a683          	lw	a3,-4(a5)
   21310:	ffc78793          	addi	a5,a5,-4
   21314:	00371713          	slli	a4,a4,0x3
   21318:	01d6d693          	srli	a3,a3,0x1d
   2131c:	00d76733          	or	a4,a4,a3
   21320:	00e7a223          	sw	a4,4(a5)
   21324:	fef892e3          	bne	a7,a5,21308 <__subtf3+0x1098>
   21328:	8a5ff06f          	j	20bcc <__subtf3+0x95c>
   2132c:	02812823          	sw	s0,48(sp)
   21330:	03212a23          	sw	s2,52(sp)
   21334:	03812c23          	sw	s8,56(sp)
   21338:	03612e23          	sw	s6,60(sp)
   2133c:	00098a93          	mv	s5,s3
   21340:	fff80493          	addi	s1,a6,-1
   21344:	9a8ff06f          	j	204ec <__subtf3+0x27c>
   21348:	00061c63          	bnez	a2,21360 <__subtf3+0x10f0>
   2134c:	02f12823          	sw	a5,48(sp)
   21350:	02a12a23          	sw	a0,52(sp)
   21354:	02e12c23          	sw	a4,56(sp)
   21358:	02d12e23          	sw	a3,60(sp)
   2135c:	fe5ff06f          	j	21340 <__subtf3+0x10d0>
   21360:	03012e23          	sw	a6,60(sp)
   21364:	02012c23          	sw	zero,56(sp)
   21368:	02012a23          	sw	zero,52(sp)
   2136c:	02012823          	sw	zero,48(sp)
   21370:	03c10793          	addi	a5,sp,60
   21374:	0007a703          	lw	a4,0(a5)
   21378:	ffc7a683          	lw	a3,-4(a5)
   2137c:	ffc78793          	addi	a5,a5,-4
   21380:	00371713          	slli	a4,a4,0x3
   21384:	01d6d693          	srli	a3,a3,0x1d
   21388:	00d76733          	or	a4,a4,a3
   2138c:	00e7a223          	sw	a4,4(a5)
   21390:	fef892e3          	bne	a7,a5,21374 <__subtf3+0x1104>
   21394:	839ff06f          	j	20bcc <__subtf3+0x95c>
   21398:	412505b3          	sub	a1,a0,s2
   2139c:	40878633          	sub	a2,a5,s0
   213a0:	00b53fb3          	sltu	t6,a0,a1
   213a4:	00c7b833          	sltu	a6,a5,a2
   213a8:	000f8893          	mv	a7,t6
   213ac:	41058833          	sub	a6,a1,a6
   213b0:	41870e33          	sub	t3,a4,s8
   213b4:	01873f33          	sltu	t5,a4,s8
   213b8:	00c7fa63          	bgeu	a5,a2,213cc <__subtf3+0x115c>
   213bc:	01251863          	bne	a0,s2,213cc <__subtf3+0x115c>
   213c0:	fffe0893          	addi	a7,t3,-1
   213c4:	001e3e93          	seqz	t4,t3
   213c8:	0100006f          	j	213d8 <__subtf3+0x1168>
   213cc:	411e08b3          	sub	a7,t3,a7
   213d0:	00000e93          	li	t4,0
   213d4:	fe0f98e3          	bnez	t6,213c4 <__subtf3+0x1154>
   213d8:	01eeeeb3          	or	t4,t4,t5
   213dc:	416685b3          	sub	a1,a3,s6
   213e0:	41d585b3          	sub	a1,a1,t4
   213e4:	00080eb7          	lui	t4,0x80
   213e8:	02b12e23          	sw	a1,60(sp)
   213ec:	03112c23          	sw	a7,56(sp)
   213f0:	03012a23          	sw	a6,52(sp)
   213f4:	02c12823          	sw	a2,48(sp)
   213f8:	01d5feb3          	and	t4,a1,t4
   213fc:	160e8a63          	beqz	t4,21570 <__subtf3+0x1300>
   21400:	40a90633          	sub	a2,s2,a0
   21404:	40f407b3          	sub	a5,s0,a5
   21408:	00c93833          	sltu	a6,s2,a2
   2140c:	00f435b3          	sltu	a1,s0,a5
   21410:	40b60633          	sub	a2,a2,a1
   21414:	00080893          	mv	a7,a6
   21418:	40ec05b3          	sub	a1,s8,a4
   2141c:	00ec3733          	sltu	a4,s8,a4
   21420:	00f47a63          	bgeu	s0,a5,21434 <__subtf3+0x11c4>
   21424:	01251863          	bne	a0,s2,21434 <__subtf3+0x11c4>
   21428:	fff58593          	addi	a1,a1,-1
   2142c:	001e3313          	seqz	t1,t3
   21430:	00c0006f          	j	2143c <__subtf3+0x11cc>
   21434:	411585b3          	sub	a1,a1,a7
   21438:	fe081ae3          	bnez	a6,2142c <__subtf3+0x11bc>
   2143c:	40db06b3          	sub	a3,s6,a3
   21440:	00e36333          	or	t1,t1,a4
   21444:	40668733          	sub	a4,a3,t1
   21448:	02e12e23          	sw	a4,60(sp)
   2144c:	02b12c23          	sw	a1,56(sp)
   21450:	02c12a23          	sw	a2,52(sp)
   21454:	02f12823          	sw	a5,48(sp)
   21458:	00098a93          	mv	s5,s3
   2145c:	03c12503          	lw	a0,60(sp)
   21460:	12050263          	beqz	a0,21584 <__subtf3+0x1314>
   21464:	0b5000ef          	jal	ra,21d18 <__clzsi2>
   21468:	ff450513          	addi	a0,a0,-12
   2146c:	41f55793          	srai	a5,a0,0x1f
   21470:	01f7f793          	andi	a5,a5,31
   21474:	00a787b3          	add	a5,a5,a0
   21478:	4057d793          	srai	a5,a5,0x5
   2147c:	01f57593          	andi	a1,a0,31
   21480:	40f006b3          	neg	a3,a5
   21484:	12058c63          	beqz	a1,215bc <__subtf3+0x134c>
   21488:	80000737          	lui	a4,0x80000
   2148c:	01f70713          	addi	a4,a4,31 # 8000001f <__BSS_END__+0x7ffdc51b>
   21490:	00e57733          	and	a4,a0,a4
   21494:	00075863          	bgez	a4,214a4 <__subtf3+0x1234>
   21498:	fff70713          	addi	a4,a4,-1
   2149c:	fe076713          	ori	a4,a4,-32
   214a0:	00170713          	addi	a4,a4,1
   214a4:	00269693          	slli	a3,a3,0x2
   214a8:	02000813          	li	a6,32
   214ac:	40e80833          	sub	a6,a6,a4
   214b0:	03010313          	addi	t1,sp,48
   214b4:	00c68713          	addi	a4,a3,12
   214b8:	00e30733          	add	a4,t1,a4
   214bc:	40d006b3          	neg	a3,a3
   214c0:	12e31463          	bne	t1,a4,215e8 <__subtf3+0x1378>
   214c4:	03012683          	lw	a3,48(sp)
   214c8:	fff78713          	addi	a4,a5,-1
   214cc:	00279793          	slli	a5,a5,0x2
   214d0:	04078793          	addi	a5,a5,64
   214d4:	002787b3          	add	a5,a5,sp
   214d8:	00b696b3          	sll	a3,a3,a1
   214dc:	fed7a823          	sw	a3,-16(a5)
   214e0:	00170713          	addi	a4,a4,1
   214e4:	03010793          	addi	a5,sp,48
   214e8:	00271713          	slli	a4,a4,0x2
   214ec:	00800693          	li	a3,8
   214f0:	00078893          	mv	a7,a5
   214f4:	00d76a63          	bltu	a4,a3,21508 <__subtf3+0x1298>
   214f8:	02012823          	sw	zero,48(sp)
   214fc:	0007a223          	sw	zero,4(a5)
   21500:	ff870713          	addi	a4,a4,-8
   21504:	03810793          	addi	a5,sp,56
   21508:	00400693          	li	a3,4
   2150c:	00d76463          	bltu	a4,a3,21514 <__subtf3+0x12a4>
   21510:	0007a023          	sw	zero,0(a5)
   21514:	1c954463          	blt	a0,s1,216dc <__subtf3+0x146c>
   21518:	40950533          	sub	a0,a0,s1
   2151c:	00150513          	addi	a0,a0,1
   21520:	40555793          	srai	a5,a0,0x5
   21524:	00088613          	mv	a2,a7
   21528:	01f57513          	andi	a0,a0,31
   2152c:	00088693          	mv	a3,a7
   21530:	00000313          	li	t1,0
   21534:	00000713          	li	a4,0
   21538:	0cf71a63          	bne	a4,a5,2160c <__subtf3+0x139c>
   2153c:	00300713          	li	a4,3
   21540:	40f70733          	sub	a4,a4,a5
   21544:	00279693          	slli	a3,a5,0x2
   21548:	0c051c63          	bnez	a0,21620 <__subtf3+0x13b0>
   2154c:	00d605b3          	add	a1,a2,a3
   21550:	0005a583          	lw	a1,0(a1)
   21554:	00150513          	addi	a0,a0,1
   21558:	00460613          	addi	a2,a2,4
   2155c:	feb62e23          	sw	a1,-4(a2)
   21560:	fea756e3          	bge	a4,a0,2154c <__subtf3+0x12dc>
   21564:	00400713          	li	a4,4
   21568:	40f707b3          	sub	a5,a4,a5
   2156c:	1000006f          	j	2166c <__subtf3+0x13fc>
   21570:	01066633          	or	a2,a2,a6
   21574:	01166633          	or	a2,a2,a7
   21578:	00b66633          	or	a2,a2,a1
   2157c:	c60606e3          	beqz	a2,211e8 <__subtf3+0xf78>
   21580:	eddff06f          	j	2145c <__subtf3+0x11ec>
   21584:	03812503          	lw	a0,56(sp)
   21588:	00050863          	beqz	a0,21598 <__subtf3+0x1328>
   2158c:	78c000ef          	jal	ra,21d18 <__clzsi2>
   21590:	02050513          	addi	a0,a0,32
   21594:	ed5ff06f          	j	21468 <__subtf3+0x11f8>
   21598:	03412503          	lw	a0,52(sp)
   2159c:	00050863          	beqz	a0,215ac <__subtf3+0x133c>
   215a0:	778000ef          	jal	ra,21d18 <__clzsi2>
   215a4:	04050513          	addi	a0,a0,64
   215a8:	ec1ff06f          	j	21468 <__subtf3+0x11f8>
   215ac:	03012503          	lw	a0,48(sp)
   215b0:	768000ef          	jal	ra,21d18 <__clzsi2>
   215b4:	06050513          	addi	a0,a0,96
   215b8:	eb1ff06f          	j	21468 <__subtf3+0x11f8>
   215bc:	03c10713          	addi	a4,sp,60
   215c0:	00269693          	slli	a3,a3,0x2
   215c4:	00300613          	li	a2,3
   215c8:	00d705b3          	add	a1,a4,a3
   215cc:	0005a583          	lw	a1,0(a1)
   215d0:	fff60613          	addi	a2,a2,-1
   215d4:	ffc70713          	addi	a4,a4,-4
   215d8:	00b72223          	sw	a1,4(a4)
   215dc:	fef656e3          	bge	a2,a5,215c8 <__subtf3+0x1358>
   215e0:	fff78713          	addi	a4,a5,-1
   215e4:	efdff06f          	j	214e0 <__subtf3+0x1270>
   215e8:	00072603          	lw	a2,0(a4)
   215ec:	ffc72883          	lw	a7,-4(a4)
   215f0:	00d70e33          	add	t3,a4,a3
   215f4:	00b61633          	sll	a2,a2,a1
   215f8:	0108d8b3          	srl	a7,a7,a6
   215fc:	01166633          	or	a2,a2,a7
   21600:	00ce2023          	sw	a2,0(t3)
   21604:	ffc70713          	addi	a4,a4,-4
   21608:	eb9ff06f          	j	214c0 <__subtf3+0x1250>
   2160c:	0006a583          	lw	a1,0(a3)
   21610:	00170713          	addi	a4,a4,1
   21614:	00468693          	addi	a3,a3,4
   21618:	00b36333          	or	t1,t1,a1
   2161c:	f1dff06f          	j	21538 <__subtf3+0x12c8>
   21620:	04068593          	addi	a1,a3,64
   21624:	002585b3          	add	a1,a1,sp
   21628:	ff05a583          	lw	a1,-16(a1)
   2162c:	02000813          	li	a6,32
   21630:	40a80833          	sub	a6,a6,a0
   21634:	010595b3          	sll	a1,a1,a6
   21638:	00b36333          	or	t1,t1,a1
   2163c:	00d886b3          	add	a3,a7,a3
   21640:	00000e13          	li	t3,0
   21644:	00468693          	addi	a3,a3,4
   21648:	06ee4863          	blt	t3,a4,216b8 <__subtf3+0x1448>
   2164c:	00400693          	li	a3,4
   21650:	40f687b3          	sub	a5,a3,a5
   21654:	03c12683          	lw	a3,60(sp)
   21658:	00271713          	slli	a4,a4,0x2
   2165c:	04070713          	addi	a4,a4,64
   21660:	00270733          	add	a4,a4,sp
   21664:	00a6d533          	srl	a0,a3,a0
   21668:	fea72823          	sw	a0,-16(a4)
   2166c:	00400713          	li	a4,4
   21670:	40f70733          	sub	a4,a4,a5
   21674:	00271713          	slli	a4,a4,0x2
   21678:	00279793          	slli	a5,a5,0x2
   2167c:	00800693          	li	a3,8
   21680:	00f887b3          	add	a5,a7,a5
   21684:	00d76a63          	bltu	a4,a3,21698 <__subtf3+0x1428>
   21688:	0007a023          	sw	zero,0(a5)
   2168c:	0007a223          	sw	zero,4(a5)
   21690:	ff870713          	addi	a4,a4,-8
   21694:	00878793          	addi	a5,a5,8
   21698:	00400693          	li	a3,4
   2169c:	00d76463          	bltu	a4,a3,216a4 <__subtf3+0x1434>
   216a0:	0007a023          	sw	zero,0(a5)
   216a4:	03012703          	lw	a4,48(sp)
   216a8:	006037b3          	snez	a5,t1
   216ac:	00f767b3          	or	a5,a4,a5
   216b0:	02f12823          	sw	a5,48(sp)
   216b4:	c34ff06f          	j	20ae8 <__subtf3+0x878>
   216b8:	ffc6a583          	lw	a1,-4(a3)
   216bc:	0006ae83          	lw	t4,0(a3)
   216c0:	001e0e13          	addi	t3,t3,1
   216c4:	00a5d5b3          	srl	a1,a1,a0
   216c8:	010e9eb3          	sll	t4,t4,a6
   216cc:	01d5e5b3          	or	a1,a1,t4
   216d0:	00b62023          	sw	a1,0(a2)
   216d4:	00460613          	addi	a2,a2,4
   216d8:	f6dff06f          	j	21644 <__subtf3+0x13d4>
   216dc:	03c12783          	lw	a5,60(sp)
   216e0:	fff80737          	lui	a4,0xfff80
   216e4:	fff70713          	addi	a4,a4,-1 # fff7ffff <__BSS_END__+0xfff5c4fb>
   216e8:	00e7f7b3          	and	a5,a5,a4
   216ec:	40a484b3          	sub	s1,s1,a0
   216f0:	02f12e23          	sw	a5,60(sp)
   216f4:	df9fe06f          	j	204ec <__subtf3+0x27c>
   216f8:	02012e23          	sw	zero,60(sp)
   216fc:	02012c23          	sw	zero,56(sp)
   21700:	02012a23          	sw	zero,52(sp)
   21704:	02012823          	sw	zero,48(sp)
   21708:	e69fe06f          	j	20570 <__subtf3+0x300>
   2170c:	07400713          	li	a4,116
   21710:	00c74463          	blt	a4,a2,21718 <__subtf3+0x14a8>
   21714:	f5dfe06f          	j	20670 <__subtf3+0x400>
   21718:	02012623          	sw	zero,44(sp)
   2171c:	02012423          	sw	zero,40(sp)
   21720:	02012223          	sw	zero,36(sp)
   21724:	00100713          	li	a4,1
   21728:	834ff06f          	j	2075c <__subtf3+0x4ec>
   2172c:	07400793          	li	a5,116
   21730:	9d07dc63          	bge	a5,a6,20908 <__subtf3+0x698>
   21734:	00012e23          	sw	zero,28(sp)
   21738:	00012c23          	sw	zero,24(sp)
   2173c:	00012a23          	sw	zero,20(sp)
   21740:	00100793          	li	a5,1
   21744:	ad8ff06f          	j	20a1c <__subtf3+0x7ac>
   21748:	07400793          	li	a5,116
   2174c:	8b17d2e3          	bge	a5,a7,20ff0 <__subtf3+0xd80>
   21750:	00012e23          	sw	zero,28(sp)
   21754:	00012c23          	sw	zero,24(sp)
   21758:	00012a23          	sw	zero,20(sp)
   2175c:	00100713          	li	a4,1
   21760:	9a5ff06f          	j	21104 <__subtf3+0xe94>

00021764 <__unordtf2>:
   21764:	00052703          	lw	a4,0(a0)
   21768:	00452e83          	lw	t4,4(a0)
   2176c:	00852e03          	lw	t3,8(a0)
   21770:	00c52503          	lw	a0,12(a0)
   21774:	00c5a603          	lw	a2,12(a1)
   21778:	000086b7          	lui	a3,0x8
   2177c:	fff68693          	addi	a3,a3,-1 # 7fff <exit-0x8095>
   21780:	01055813          	srli	a6,a0,0x10
   21784:	0005a783          	lw	a5,0(a1)
   21788:	0045a303          	lw	t1,4(a1)
   2178c:	0085a883          	lw	a7,8(a1)
   21790:	00d87833          	and	a6,a6,a3
   21794:	01065593          	srli	a1,a2,0x10
   21798:	ff010113          	addi	sp,sp,-16
   2179c:	00d5f5b3          	and	a1,a1,a3
   217a0:	02d81063          	bne	a6,a3,217c0 <__unordtf2+0x5c>
   217a4:	01d76733          	or	a4,a4,t4
   217a8:	01051513          	slli	a0,a0,0x10
   217ac:	01055513          	srli	a0,a0,0x10
   217b0:	01c76733          	or	a4,a4,t3
   217b4:	00a76733          	or	a4,a4,a0
   217b8:	00100513          	li	a0,1
   217bc:	02071663          	bnez	a4,217e8 <__unordtf2+0x84>
   217c0:	00008737          	lui	a4,0x8
   217c4:	fff70713          	addi	a4,a4,-1 # 7fff <exit-0x8095>
   217c8:	00000513          	li	a0,0
   217cc:	00e59e63          	bne	a1,a4,217e8 <__unordtf2+0x84>
   217d0:	0067e533          	or	a0,a5,t1
   217d4:	01061613          	slli	a2,a2,0x10
   217d8:	01156533          	or	a0,a0,a7
   217dc:	01065613          	srli	a2,a2,0x10
   217e0:	00c56533          	or	a0,a0,a2
   217e4:	00a03533          	snez	a0,a0
   217e8:	01010113          	addi	sp,sp,16
   217ec:	00008067          	ret

000217f0 <__fixtfsi>:
   217f0:	00052783          	lw	a5,0(a0)
   217f4:	00452603          	lw	a2,4(a0)
   217f8:	00c52703          	lw	a4,12(a0)
   217fc:	00852683          	lw	a3,8(a0)
   21800:	fe010113          	addi	sp,sp,-32
   21804:	00f12023          	sw	a5,0(sp)
   21808:	00c12223          	sw	a2,4(sp)
   2180c:	00f12823          	sw	a5,16(sp)
   21810:	00171613          	slli	a2,a4,0x1
   21814:	000047b7          	lui	a5,0x4
   21818:	00d12423          	sw	a3,8(sp)
   2181c:	00e12623          	sw	a4,12(sp)
   21820:	00d12c23          	sw	a3,24(sp)
   21824:	01165613          	srli	a2,a2,0x11
   21828:	ffe78593          	addi	a1,a5,-2 # 3ffe <exit-0xc096>
   2182c:	00000513          	li	a0,0
   21830:	00c5de63          	bge	a1,a2,2184c <__fixtfsi+0x5c>
   21834:	01d78593          	addi	a1,a5,29
   21838:	01f75813          	srli	a6,a4,0x1f
   2183c:	00c5dc63          	bge	a1,a2,21854 <__fixtfsi+0x64>
   21840:	80000537          	lui	a0,0x80000
   21844:	fff54513          	not	a0,a0
   21848:	00a80533          	add	a0,a6,a0
   2184c:	02010113          	addi	sp,sp,32
   21850:	00008067          	ret
   21854:	01071713          	slli	a4,a4,0x10
   21858:	000105b7          	lui	a1,0x10
   2185c:	01075713          	srli	a4,a4,0x10
   21860:	06f78793          	addi	a5,a5,111
   21864:	00b76733          	or	a4,a4,a1
   21868:	40c787b3          	sub	a5,a5,a2
   2186c:	4057d613          	srai	a2,a5,0x5
   21870:	02000593          	li	a1,32
   21874:	01f7f793          	andi	a5,a5,31
   21878:	00e12e23          	sw	a4,28(sp)
   2187c:	40f585b3          	sub	a1,a1,a5
   21880:	04079a63          	bnez	a5,218d4 <__fixtfsi+0xe4>
   21884:	00261613          	slli	a2,a2,0x2
   21888:	02060793          	addi	a5,a2,32
   2188c:	00278633          	add	a2,a5,sp
   21890:	ff062783          	lw	a5,-16(a2)
   21894:	00f12823          	sw	a5,16(sp)
   21898:	01012503          	lw	a0,16(sp)
   2189c:	fa0808e3          	beqz	a6,2184c <__fixtfsi+0x5c>
   218a0:	40a00533          	neg	a0,a0
   218a4:	fa9ff06f          	j	2184c <__fixtfsi+0x5c>
   218a8:	00f6d6b3          	srl	a3,a3,a5
   218ac:	00b715b3          	sll	a1,a4,a1
   218b0:	00b6e6b3          	or	a3,a3,a1
   218b4:	00d12823          	sw	a3,16(sp)
   218b8:	00100693          	li	a3,1
   218bc:	00269693          	slli	a3,a3,0x2
   218c0:	02068693          	addi	a3,a3,32
   218c4:	002686b3          	add	a3,a3,sp
   218c8:	00f75733          	srl	a4,a4,a5
   218cc:	fee6a823          	sw	a4,-16(a3)
   218d0:	fc9ff06f          	j	21898 <__fixtfsi+0xa8>
   218d4:	00200513          	li	a0,2
   218d8:	fca608e3          	beq	a2,a0,218a8 <__fixtfsi+0xb8>
   218dc:	00000693          	li	a3,0
   218e0:	fddff06f          	j	218bc <__fixtfsi+0xcc>

000218e4 <__floatsitf>:
   218e4:	fd010113          	addi	sp,sp,-48
   218e8:	02912223          	sw	s1,36(sp)
   218ec:	02112623          	sw	ra,44(sp)
   218f0:	02812423          	sw	s0,40(sp)
   218f4:	03212023          	sw	s2,32(sp)
   218f8:	00050493          	mv	s1,a0
   218fc:	12058263          	beqz	a1,21a20 <__floatsitf+0x13c>
   21900:	41f5d793          	srai	a5,a1,0x1f
   21904:	00b7c433          	xor	s0,a5,a1
   21908:	40f40433          	sub	s0,s0,a5
   2190c:	00040513          	mv	a0,s0
   21910:	01f5d913          	srli	s2,a1,0x1f
   21914:	404000ef          	jal	ra,21d18 <__clzsi2>
   21918:	05150793          	addi	a5,a0,81 # 80000051 <__BSS_END__+0x7ffdc54d>
   2191c:	00004637          	lui	a2,0x4
   21920:	01e60613          	addi	a2,a2,30 # 401e <exit-0xc076>
   21924:	4057d713          	srai	a4,a5,0x5
   21928:	00812823          	sw	s0,16(sp)
   2192c:	00012a23          	sw	zero,20(sp)
   21930:	00012c23          	sw	zero,24(sp)
   21934:	00012e23          	sw	zero,28(sp)
   21938:	01f7f793          	andi	a5,a5,31
   2193c:	40a60633          	sub	a2,a2,a0
   21940:	02078c63          	beqz	a5,21978 <__floatsitf+0x94>
   21944:	00200693          	li	a3,2
   21948:	0cd71863          	bne	a4,a3,21a18 <__floatsitf+0x134>
   2194c:	02000693          	li	a3,32
   21950:	40f686b3          	sub	a3,a3,a5
   21954:	00d456b3          	srl	a3,s0,a3
   21958:	00d12e23          	sw	a3,28(sp)
   2195c:	fff70693          	addi	a3,a4,-1
   21960:	00271713          	slli	a4,a4,0x2
   21964:	02070713          	addi	a4,a4,32
   21968:	00270733          	add	a4,a4,sp
   2196c:	00f41433          	sll	s0,s0,a5
   21970:	fe872823          	sw	s0,-16(a4)
   21974:	0340006f          	j	219a8 <__floatsitf+0xc4>
   21978:	00300793          	li	a5,3
   2197c:	40e787b3          	sub	a5,a5,a4
   21980:	00279793          	slli	a5,a5,0x2
   21984:	02078793          	addi	a5,a5,32
   21988:	002787b3          	add	a5,a5,sp
   2198c:	ff07a783          	lw	a5,-16(a5)
   21990:	00200693          	li	a3,2
   21994:	00f12e23          	sw	a5,28(sp)
   21998:	00200793          	li	a5,2
   2199c:	00f71663          	bne	a4,a5,219a8 <__floatsitf+0xc4>
   219a0:	00812c23          	sw	s0,24(sp)
   219a4:	00100693          	li	a3,1
   219a8:	00269693          	slli	a3,a3,0x2
   219ac:	00012823          	sw	zero,16(sp)
   219b0:	00012a23          	sw	zero,20(sp)
   219b4:	ffc68693          	addi	a3,a3,-4
   219b8:	00400793          	li	a5,4
   219bc:	00f6e463          	bltu	a3,a5,219c4 <__floatsitf+0xe0>
   219c0:	00012c23          	sw	zero,24(sp)
   219c4:	00090593          	mv	a1,s2
   219c8:	01c12783          	lw	a5,28(sp)
   219cc:	00f59413          	slli	s0,a1,0xf
   219d0:	00c46433          	or	s0,s0,a2
   219d4:	00f11623          	sh	a5,12(sp)
   219d8:	01012783          	lw	a5,16(sp)
   219dc:	00811723          	sh	s0,14(sp)
   219e0:	02c12083          	lw	ra,44(sp)
   219e4:	00f4a023          	sw	a5,0(s1)
   219e8:	01412783          	lw	a5,20(sp)
   219ec:	02812403          	lw	s0,40(sp)
   219f0:	02012903          	lw	s2,32(sp)
   219f4:	00f4a223          	sw	a5,4(s1)
   219f8:	01812783          	lw	a5,24(sp)
   219fc:	00048513          	mv	a0,s1
   21a00:	00f4a423          	sw	a5,8(s1)
   21a04:	00c12783          	lw	a5,12(sp)
   21a08:	00f4a623          	sw	a5,12(s1)
   21a0c:	02412483          	lw	s1,36(sp)
   21a10:	03010113          	addi	sp,sp,48
   21a14:	00008067          	ret
   21a18:	00300713          	li	a4,3
   21a1c:	f41ff06f          	j	2195c <__floatsitf+0x78>
   21a20:	00012e23          	sw	zero,28(sp)
   21a24:	00012c23          	sw	zero,24(sp)
   21a28:	00012a23          	sw	zero,20(sp)
   21a2c:	00012823          	sw	zero,16(sp)
   21a30:	00000613          	li	a2,0
   21a34:	f95ff06f          	j	219c8 <__floatsitf+0xe4>

00021a38 <__extenddftf2>:
   21a38:	01465713          	srli	a4,a2,0x14
   21a3c:	00c61793          	slli	a5,a2,0xc
   21a40:	7ff77713          	andi	a4,a4,2047
   21a44:	fd010113          	addi	sp,sp,-48
   21a48:	00c7d793          	srli	a5,a5,0xc
   21a4c:	00170693          	addi	a3,a4,1
   21a50:	02812423          	sw	s0,40(sp)
   21a54:	02912223          	sw	s1,36(sp)
   21a58:	03212023          	sw	s2,32(sp)
   21a5c:	02112623          	sw	ra,44(sp)
   21a60:	00b12823          	sw	a1,16(sp)
   21a64:	00f12a23          	sw	a5,20(sp)
   21a68:	00012e23          	sw	zero,28(sp)
   21a6c:	00012c23          	sw	zero,24(sp)
   21a70:	7fe6f693          	andi	a3,a3,2046
   21a74:	00050913          	mv	s2,a0
   21a78:	00058413          	mv	s0,a1
   21a7c:	01f65493          	srli	s1,a2,0x1f
   21a80:	08068263          	beqz	a3,21b04 <__extenddftf2+0xcc>
   21a84:	000046b7          	lui	a3,0x4
   21a88:	c0068693          	addi	a3,a3,-1024 # 3c00 <exit-0xc494>
   21a8c:	00d70733          	add	a4,a4,a3
   21a90:	0047d693          	srli	a3,a5,0x4
   21a94:	00d12e23          	sw	a3,28(sp)
   21a98:	01c79793          	slli	a5,a5,0x1c
   21a9c:	0045d693          	srli	a3,a1,0x4
   21aa0:	00d7e7b3          	or	a5,a5,a3
   21aa4:	01c59413          	slli	s0,a1,0x1c
   21aa8:	00f12c23          	sw	a5,24(sp)
   21aac:	00812a23          	sw	s0,20(sp)
   21ab0:	00012823          	sw	zero,16(sp)
   21ab4:	01c12783          	lw	a5,28(sp)
   21ab8:	00f49493          	slli	s1,s1,0xf
   21abc:	00e4e4b3          	or	s1,s1,a4
   21ac0:	00f11623          	sh	a5,12(sp)
   21ac4:	01012783          	lw	a5,16(sp)
   21ac8:	00911723          	sh	s1,14(sp)
   21acc:	02c12083          	lw	ra,44(sp)
   21ad0:	00f92023          	sw	a5,0(s2)
   21ad4:	01412783          	lw	a5,20(sp)
   21ad8:	02812403          	lw	s0,40(sp)
   21adc:	02412483          	lw	s1,36(sp)
   21ae0:	00f92223          	sw	a5,4(s2)
   21ae4:	01812783          	lw	a5,24(sp)
   21ae8:	00090513          	mv	a0,s2
   21aec:	00f92423          	sw	a5,8(s2)
   21af0:	00c12783          	lw	a5,12(sp)
   21af4:	00f92623          	sw	a5,12(s2)
   21af8:	02012903          	lw	s2,32(sp)
   21afc:	03010113          	addi	sp,sp,48
   21b00:	00008067          	ret
   21b04:	00b7e533          	or	a0,a5,a1
   21b08:	0e071e63          	bnez	a4,21c04 <__extenddftf2+0x1cc>
   21b0c:	fa0504e3          	beqz	a0,21ab4 <__extenddftf2+0x7c>
   21b10:	04078e63          	beqz	a5,21b6c <__extenddftf2+0x134>
   21b14:	00078513          	mv	a0,a5
   21b18:	200000ef          	jal	ra,21d18 <__clzsi2>
   21b1c:	03150693          	addi	a3,a0,49
   21b20:	4056d713          	srai	a4,a3,0x5
   21b24:	01f6f693          	andi	a3,a3,31
   21b28:	40e007b3          	neg	a5,a4
   21b2c:	04068663          	beqz	a3,21b78 <__extenddftf2+0x140>
   21b30:	00279793          	slli	a5,a5,0x2
   21b34:	00c78613          	addi	a2,a5,12
   21b38:	02000813          	li	a6,32
   21b3c:	01010313          	addi	t1,sp,16
   21b40:	40d80833          	sub	a6,a6,a3
   21b44:	00c30633          	add	a2,t1,a2
   21b48:	40f007b3          	neg	a5,a5
   21b4c:	08c31a63          	bne	t1,a2,21be0 <__extenddftf2+0x1a8>
   21b50:	fff70793          	addi	a5,a4,-1
   21b54:	00271713          	slli	a4,a4,0x2
   21b58:	02070713          	addi	a4,a4,32
   21b5c:	00270733          	add	a4,a4,sp
   21b60:	00d416b3          	sll	a3,s0,a3
   21b64:	fed72823          	sw	a3,-16(a4)
   21b68:	0380006f          	j	21ba0 <__extenddftf2+0x168>
   21b6c:	1ac000ef          	jal	ra,21d18 <__clzsi2>
   21b70:	02050513          	addi	a0,a0,32
   21b74:	fa9ff06f          	j	21b1c <__extenddftf2+0xe4>
   21b78:	01c10693          	addi	a3,sp,28
   21b7c:	00279793          	slli	a5,a5,0x2
   21b80:	00300613          	li	a2,3
   21b84:	00f685b3          	add	a1,a3,a5
   21b88:	0005a583          	lw	a1,0(a1) # 10000 <exit-0x94>
   21b8c:	fff60613          	addi	a2,a2,-1
   21b90:	ffc68693          	addi	a3,a3,-4
   21b94:	00b6a223          	sw	a1,4(a3)
   21b98:	fee656e3          	bge	a2,a4,21b84 <__extenddftf2+0x14c>
   21b9c:	fff70793          	addi	a5,a4,-1
   21ba0:	00178793          	addi	a5,a5,1
   21ba4:	00279793          	slli	a5,a5,0x2
   21ba8:	00800693          	li	a3,8
   21bac:	01010713          	addi	a4,sp,16
   21bb0:	00d7ea63          	bltu	a5,a3,21bc4 <__extenddftf2+0x18c>
   21bb4:	00012823          	sw	zero,16(sp)
   21bb8:	00072223          	sw	zero,4(a4)
   21bbc:	ff878793          	addi	a5,a5,-8
   21bc0:	01810713          	addi	a4,sp,24
   21bc4:	00400693          	li	a3,4
   21bc8:	00d7e463          	bltu	a5,a3,21bd0 <__extenddftf2+0x198>
   21bcc:	00072023          	sw	zero,0(a4)
   21bd0:	00004737          	lui	a4,0x4
   21bd4:	c0c70713          	addi	a4,a4,-1012 # 3c0c <exit-0xc488>
   21bd8:	40a70733          	sub	a4,a4,a0
   21bdc:	ed9ff06f          	j	21ab4 <__extenddftf2+0x7c>
   21be0:	00062583          	lw	a1,0(a2)
   21be4:	ffc62883          	lw	a7,-4(a2)
   21be8:	00f60e33          	add	t3,a2,a5
   21bec:	00d595b3          	sll	a1,a1,a3
   21bf0:	0108d8b3          	srl	a7,a7,a6
   21bf4:	0115e5b3          	or	a1,a1,a7
   21bf8:	00be2023          	sw	a1,0(t3)
   21bfc:	ffc60613          	addi	a2,a2,-4
   21c00:	f4dff06f          	j	21b4c <__extenddftf2+0x114>
   21c04:	02050863          	beqz	a0,21c34 <__extenddftf2+0x1fc>
   21c08:	01c79713          	slli	a4,a5,0x1c
   21c0c:	0045d693          	srli	a3,a1,0x4
   21c10:	00d76733          	or	a4,a4,a3
   21c14:	00e12c23          	sw	a4,24(sp)
   21c18:	0047d793          	srli	a5,a5,0x4
   21c1c:	00008737          	lui	a4,0x8
   21c20:	01c59413          	slli	s0,a1,0x1c
   21c24:	00e7e7b3          	or	a5,a5,a4
   21c28:	00812a23          	sw	s0,20(sp)
   21c2c:	00012823          	sw	zero,16(sp)
   21c30:	00f12e23          	sw	a5,28(sp)
   21c34:	00008737          	lui	a4,0x8
   21c38:	fff70713          	addi	a4,a4,-1 # 7fff <exit-0x8095>
   21c3c:	e79ff06f          	j	21ab4 <__extenddftf2+0x7c>

00021c40 <__mulsi3>:
   21c40:	00050613          	mv	a2,a0
   21c44:	00000513          	li	a0,0
   21c48:	0015f693          	andi	a3,a1,1
   21c4c:	00068463          	beqz	a3,21c54 <__mulsi3+0x14>
   21c50:	00c50533          	add	a0,a0,a2
   21c54:	0015d593          	srli	a1,a1,0x1
   21c58:	00161613          	slli	a2,a2,0x1
   21c5c:	fe0596e3          	bnez	a1,21c48 <__mulsi3+0x8>
   21c60:	00008067          	ret

00021c64 <__divsi3>:
   21c64:	06054063          	bltz	a0,21cc4 <__umodsi3+0x10>
   21c68:	0605c663          	bltz	a1,21cd4 <__umodsi3+0x20>

00021c6c <__hidden___udivsi3>:
   21c6c:	00058613          	mv	a2,a1
   21c70:	00050593          	mv	a1,a0
   21c74:	fff00513          	li	a0,-1
   21c78:	02060c63          	beqz	a2,21cb0 <__hidden___udivsi3+0x44>
   21c7c:	00100693          	li	a3,1
   21c80:	00b67a63          	bgeu	a2,a1,21c94 <__hidden___udivsi3+0x28>
   21c84:	00c05863          	blez	a2,21c94 <__hidden___udivsi3+0x28>
   21c88:	00161613          	slli	a2,a2,0x1
   21c8c:	00169693          	slli	a3,a3,0x1
   21c90:	feb66ae3          	bltu	a2,a1,21c84 <__hidden___udivsi3+0x18>
   21c94:	00000513          	li	a0,0
   21c98:	00c5e663          	bltu	a1,a2,21ca4 <__hidden___udivsi3+0x38>
   21c9c:	40c585b3          	sub	a1,a1,a2
   21ca0:	00d56533          	or	a0,a0,a3
   21ca4:	0016d693          	srli	a3,a3,0x1
   21ca8:	00165613          	srli	a2,a2,0x1
   21cac:	fe0696e3          	bnez	a3,21c98 <__hidden___udivsi3+0x2c>
   21cb0:	00008067          	ret

00021cb4 <__umodsi3>:
   21cb4:	00008293          	mv	t0,ra
   21cb8:	fb5ff0ef          	jal	ra,21c6c <__hidden___udivsi3>
   21cbc:	00058513          	mv	a0,a1
   21cc0:	00028067          	jr	t0
   21cc4:	40a00533          	neg	a0,a0
   21cc8:	00b04863          	bgtz	a1,21cd8 <__umodsi3+0x24>
   21ccc:	40b005b3          	neg	a1,a1
   21cd0:	f9dff06f          	j	21c6c <__hidden___udivsi3>
   21cd4:	40b005b3          	neg	a1,a1
   21cd8:	00008293          	mv	t0,ra
   21cdc:	f91ff0ef          	jal	ra,21c6c <__hidden___udivsi3>
   21ce0:	40a00533          	neg	a0,a0
   21ce4:	00028067          	jr	t0

00021ce8 <__modsi3>:
   21ce8:	00008293          	mv	t0,ra
   21cec:	0005ca63          	bltz	a1,21d00 <__modsi3+0x18>
   21cf0:	00054c63          	bltz	a0,21d08 <__modsi3+0x20>
   21cf4:	f79ff0ef          	jal	ra,21c6c <__hidden___udivsi3>
   21cf8:	00058513          	mv	a0,a1
   21cfc:	00028067          	jr	t0
   21d00:	40b005b3          	neg	a1,a1
   21d04:	fe0558e3          	bgez	a0,21cf4 <__modsi3+0xc>
   21d08:	40a00533          	neg	a0,a0
   21d0c:	f61ff0ef          	jal	ra,21c6c <__hidden___udivsi3>
   21d10:	40b00533          	neg	a0,a1
   21d14:	00028067          	jr	t0

00021d18 <__clzsi2>:
   21d18:	000107b7          	lui	a5,0x10
   21d1c:	02f57a63          	bgeu	a0,a5,21d50 <__clzsi2+0x38>
   21d20:	10053793          	sltiu	a5,a0,256
   21d24:	0017c793          	xori	a5,a5,1
   21d28:	00379793          	slli	a5,a5,0x3
   21d2c:	02000713          	li	a4,32
   21d30:	40f70733          	sub	a4,a4,a5
   21d34:	00f55533          	srl	a0,a0,a5
   21d38:	00001797          	auipc	a5,0x1
   21d3c:	8e078793          	addi	a5,a5,-1824 # 22618 <__clz_tab>
   21d40:	00a787b3          	add	a5,a5,a0
   21d44:	0007c503          	lbu	a0,0(a5)
   21d48:	40a70533          	sub	a0,a4,a0
   21d4c:	00008067          	ret
   21d50:	01000737          	lui	a4,0x1000
   21d54:	01000793          	li	a5,16
   21d58:	fce56ae3          	bltu	a0,a4,21d2c <__clzsi2+0x14>
   21d5c:	01800793          	li	a5,24
   21d60:	fcdff06f          	j	21d2c <__clzsi2+0x14>

Disassembly of section .rodata:

00021d70 <zeroes.0-0x340>:
   21d70:	a7d0                	.2byte	0xa7d0
   21d72:	b8d0                	.2byte	0xb8d0
   21d74:	81d1                	.2byte	0x81d1
   21d76:	bbd0                	.2byte	0xbbd0
   21d78:	bed0                	.2byte	0xbed0
   21d7a:	d020                	.2byte	0xd020
   21d7c:	d0bed0bf d0bed0bb 	.8byte	0xd0bed0bbd0bed0bf
   21d84:	d0b6                	.2byte	0xd0b6
   21d86:	d1b8                	.2byte	0xd1b8
   21d88:	d082                	.2byte	0xd082
   21d8a:	d0b5                	.2byte	0xd0b5
   21d8c:	d08cd1bb          	.4byte	0xd08cd1bb
   21d90:	d1bd                	.2byte	0xd1bd
   21d92:	2085d18b          	.4byte	0x2085d18b
   21d96:	8dd1                	.2byte	0x8dd1
   21d98:	bbd0                	.2byte	0xbbd0
   21d9a:	b5d0                	.2byte	0xb5d0
   21d9c:	bcd0                	.2byte	0xbcd0
   21d9e:	b5d0                	.2byte	0xb5d0
   21da0:	bdd0                	.2byte	0xbdd0
   21da2:	82d1                	.2byte	0x82d1
   21da4:	bed0                	.2byte	0xbed0
   21da6:	b2d0                	.2byte	0xb2d0
   21da8:	203a                	.2byte	0x203a
   21daa:	6425                	.2byte	0x6425
   21dac:	000a                	.2byte	0xa
   21dae:	0000                	.2byte	0x0
   21db0:	a7d0                	.2byte	0xa7d0
   21db2:	b8d0                	.2byte	0xb8d0
   21db4:	81d1                	.2byte	0x81d1
   21db6:	bbd0                	.2byte	0xbbd0
   21db8:	bed0                	.2byte	0xbed0
   21dba:	d020                	.2byte	0xd020
   21dbc:	d1be                	.2byte	0xd1be
   21dbe:	d182                	.2byte	0xd182
   21dc0:	d080                	.2byte	0xd080
   21dc2:	d1b8                	.2byte	0xd1b8
   21dc4:	d086                	.2byte	0xd086
   21dc6:	d1b0                	.2byte	0xd1b0
   21dc8:	d082                	.2byte	0xd082
   21dca:	d0b5                	.2byte	0xd0b5
   21dcc:	d08cd1bb          	.4byte	0xd08cd1bb
   21dd0:	d1bd                	.2byte	0xd1bd
   21dd2:	2085d18b          	.4byte	0x2085d18b
   21dd6:	8dd1                	.2byte	0x8dd1
   21dd8:	bbd0                	.2byte	0xbbd0
   21dda:	b5d0                	.2byte	0xb5d0
   21ddc:	bcd0                	.2byte	0xbcd0
   21dde:	b5d0                	.2byte	0xb5d0
   21de0:	bdd0                	.2byte	0xbdd0
   21de2:	82d1                	.2byte	0x82d1
   21de4:	bed0                	.2byte	0xbed0
   21de6:	b2d0                	.2byte	0xb2d0
   21de8:	203a                	.2byte	0x203a
   21dea:	6425                	.2byte	0x6425
   21dec:	000a                	.2byte	0xa
   21dee:	0000                	.2byte	0x0
   21df0:	0008                	.2byte	0x8
   21df2:	0000                	.2byte	0x0
   21df4:	00000003          	lb	zero,0(zero) # 0 <exit-0x10094>
   21df8:	000e                	.2byte	0xe
   21dfa:	0000                	.2byte	0x0
   21dfc:	00000013          	nop
   21e00:	0008                	.2byte	0x8
   21e02:	0000                	.2byte	0x0
   21e04:	0006                	.2byte	0x6
   21e06:	0000                	.2byte	0x0
   21e08:	fff9                	.2byte	0xfff9
   21e0a:	ffff                	.2byte	0xffff
   21e0c:	0029                	.2byte	0x29
   21e0e:	0000                	.2byte	0x0
   21e10:	000a                	.2byte	0xa
   21e12:	0000                	.2byte	0x0
   21e14:	fffffff7          	.4byte	0xfffffff7
   21e18:	0004                	.2byte	0x4
   21e1a:	0000                	.2byte	0x0
   21e1c:	0000000f          	fence	unknown,unknown
   21e20:	0040                	.2byte	0x40
   21e22:	0000                	.2byte	0x0
   21e24:	fffd                	.2byte	0xfffd
   21e26:	ffff                	.2byte	0xffff
   21e28:	0011                	.2byte	0x11
   21e2a:	0000                	.2byte	0x0
   21e2c:	0021                	.2byte	0x21
   21e2e:	0000                	.2byte	0x0
   21e30:	fffffffb          	.4byte	0xfffffffb
   21e34:	0058                	.2byte	0x58
   21e36:	0000                	.2byte	0x0
   21e38:	000c                	.2byte	0xc
   21e3a:	0000                	.2byte	0x0
   21e3c:	0024                	.2byte	0x24
   21e3e:	0000                	.2byte	0x0
   21e40:	0030                	.2byte	0x30
   21e42:	0000                	.2byte	0x0
   21e44:	fffffff7          	.4byte	0xfffffff7
   21e48:	fffc                	.2byte	0xfffc
   21e4a:	ffff                	.2byte	0xffff
   21e4c:	fff6                	.2byte	0xfff6
   21e4e:	ffff                	.2byte	0xffff
   21e50:	0036                	.2byte	0x36
   21e52:	0000                	.2byte	0x0
   21e54:	0061                	.2byte	0x61
   21e56:	0000                	.2byte	0x0
   21e58:	ffb6                	.2byte	0xffb6
   21e5a:	ffff                	.2byte	0xffff
   21e5c:	0006                	.2byte	0x6
   21e5e:	0000                	.2byte	0x0
   21e60:	00000007          	.4byte	0x7
   21e64:	ffff                	.2byte	0xffff
   21e66:	ffff                	.2byte	0xffff
   21e68:	4e49                	.2byte	0x4e49
   21e6a:	0046                	.2byte	0x46
   21e6c:	6e69                	.2byte	0x6e69
   21e6e:	0066                	.2byte	0x66
   21e70:	414e                	.2byte	0x414e
   21e72:	004e                	.2byte	0x4e
   21e74:	616e                	.2byte	0x616e
   21e76:	006e                	.2byte	0x6e
   21e78:	3130                	.2byte	0x3130
   21e7a:	3332                	.2byte	0x3332
   21e7c:	3534                	.2byte	0x3534
   21e7e:	3736                	.2byte	0x3736
   21e80:	3938                	.2byte	0x3938
   21e82:	6261                	.2byte	0x6261
   21e84:	66656463          	bltu	a0,t1,224ec <_ctype_+0x54>
   21e88:	0000                	.2byte	0x0
   21e8a:	0000                	.2byte	0x0
   21e8c:	3130                	.2byte	0x3130
   21e8e:	3332                	.2byte	0x3332
   21e90:	3534                	.2byte	0x3534
   21e92:	3736                	.2byte	0x3736
   21e94:	3938                	.2byte	0x3938
   21e96:	4241                	.2byte	0x4241
   21e98:	46454443          	.4byte	0x46454443
   21e9c:	0000                	.2byte	0x0
   21e9e:	0000                	.2byte	0x0
   21ea0:	6e28                	.2byte	0x6e28
   21ea2:	6c75                	.2byte	0x6c75
   21ea4:	296c                	.2byte	0x296c
   21ea6:	0000                	.2byte	0x0
   21ea8:	0030                	.2byte	0x30
   21eaa:	0000                	.2byte	0x0
   21eac:	0754                	.2byte	0x754
   21eae:	ffff                	.2byte	0xffff
   21eb0:	fed4                	.2byte	0xfed4
   21eb2:	fffe                	.2byte	0xfffe
   21eb4:	fed4                	.2byte	0xfed4
   21eb6:	fffe                	.2byte	0xfffe
   21eb8:	0748                	.2byte	0x748
   21eba:	ffff                	.2byte	0xffff
   21ebc:	fed4                	.2byte	0xfed4
   21ebe:	fffe                	.2byte	0xfffe
   21ec0:	fed4                	.2byte	0xfed4
   21ec2:	fffe                	.2byte	0xfffe
   21ec4:	fed4                	.2byte	0xfed4
   21ec6:	fffe                	.2byte	0xfffe
   21ec8:	00d0                	.2byte	0xd0
   21eca:	ffff                	.2byte	0xffff
   21ecc:	fed4                	.2byte	0xfed4
   21ece:	fffe                	.2byte	0xfffe
   21ed0:	fed4                	.2byte	0xfed4
   21ed2:	fffe                	.2byte	0xfffe
   21ed4:	0640                	.2byte	0x640
   21ed6:	ffff                	.2byte	0xffff
   21ed8:	0694                	.2byte	0x694
   21eda:	ffff                	.2byte	0xffff
   21edc:	fed4                	.2byte	0xfed4
   21ede:	fffe                	.2byte	0xfffe
   21ee0:	0658                	.2byte	0x658
   21ee2:	ffff                	.2byte	0xffff
   21ee4:	0778                	.2byte	0x778
   21ee6:	ffff                	.2byte	0xffff
   21ee8:	fed4                	.2byte	0xfed4
   21eea:	fffe                	.2byte	0xfffe
   21eec:	076c                	.2byte	0x76c
   21eee:	ffff                	.2byte	0xffff
   21ef0:	fea0                	.2byte	0xfea0
   21ef2:	fffe                	.2byte	0xfffe
   21ef4:	fea0                	.2byte	0xfea0
   21ef6:	fffe                	.2byte	0xfffe
   21ef8:	fea0                	.2byte	0xfea0
   21efa:	fffe                	.2byte	0xfffe
   21efc:	fea0                	.2byte	0xfea0
   21efe:	fffe                	.2byte	0xfffe
   21f00:	fea0                	.2byte	0xfea0
   21f02:	fffe                	.2byte	0xfffe
   21f04:	fea0                	.2byte	0xfea0
   21f06:	fffe                	.2byte	0xfffe
   21f08:	fea0                	.2byte	0xfea0
   21f0a:	fffe                	.2byte	0xfffe
   21f0c:	fea0                	.2byte	0xfea0
   21f0e:	fffe                	.2byte	0xfffe
   21f10:	fea0                	.2byte	0xfea0
   21f12:	fffe                	.2byte	0xfffe
   21f14:	fed4                	.2byte	0xfed4
   21f16:	fffe                	.2byte	0xfffe
   21f18:	fed4                	.2byte	0xfed4
   21f1a:	fffe                	.2byte	0xfffe
   21f1c:	fed4                	.2byte	0xfed4
   21f1e:	fffe                	.2byte	0xfffe
   21f20:	fed4                	.2byte	0xfed4
   21f22:	fffe                	.2byte	0xfffe
   21f24:	fed4                	.2byte	0xfed4
   21f26:	fffe                	.2byte	0xfffe
   21f28:	fed4                	.2byte	0xfed4
   21f2a:	fffe                	.2byte	0xfffe
   21f2c:	fed4                	.2byte	0xfed4
   21f2e:	fffe                	.2byte	0xfffe
   21f30:	0240                	.2byte	0x240
   21f32:	ffff                	.2byte	0xffff
   21f34:	fed4                	.2byte	0xfed4
   21f36:	fffe                	.2byte	0xfffe
   21f38:	0578                	.2byte	0x578
   21f3a:	ffff                	.2byte	0xffff
   21f3c:	011c                	.2byte	0x11c
   21f3e:	ffff                	.2byte	0xffff
   21f40:	0240                	.2byte	0x240
   21f42:	ffff                	.2byte	0xffff
   21f44:	0240                	.2byte	0x240
   21f46:	ffff                	.2byte	0xffff
   21f48:	0240                	.2byte	0x240
   21f4a:	ffff                	.2byte	0xffff
   21f4c:	fed4                	.2byte	0xfed4
   21f4e:	fffe                	.2byte	0xfffe
   21f50:	fed4                	.2byte	0xfed4
   21f52:	fffe                	.2byte	0xfffe
   21f54:	fed4                	.2byte	0xfed4
   21f56:	fffe                	.2byte	0xfffe
   21f58:	fed4                	.2byte	0xfed4
   21f5a:	fffe                	.2byte	0xfffe
   21f5c:	073c                	.2byte	0x73c
   21f5e:	ffff                	.2byte	0xffff
   21f60:	fed4                	.2byte	0xfed4
   21f62:	fffe                	.2byte	0xfffe
   21f64:	fed4                	.2byte	0xfed4
   21f66:	fffe                	.2byte	0xfffe
   21f68:	01a0                	.2byte	0x1a0
   21f6a:	ffff                	.2byte	0xffff
   21f6c:	fed4                	.2byte	0xfed4
   21f6e:	fffe                	.2byte	0xfffe
   21f70:	fed4                	.2byte	0xfed4
   21f72:	fffe                	.2byte	0xfffe
   21f74:	fed4                	.2byte	0xfed4
   21f76:	fffe                	.2byte	0xfffe
   21f78:	05a0                	.2byte	0x5a0
   21f7a:	ffff                	.2byte	0xffff
   21f7c:	fed4                	.2byte	0xfed4
   21f7e:	fffe                	.2byte	0xfffe
   21f80:	0664                	.2byte	0x664
   21f82:	ffff                	.2byte	0xffff
   21f84:	fed4                	.2byte	0xfed4
   21f86:	fffe                	.2byte	0xfffe
   21f88:	fed4                	.2byte	0xfed4
   21f8a:	fffe                	.2byte	0xfffe
   21f8c:	10b8                	.2byte	0x10b8
   21f8e:	ffff                	.2byte	0xffff
   21f90:	fed4                	.2byte	0xfed4
   21f92:	fffe                	.2byte	0xfffe
   21f94:	fed4                	.2byte	0xfed4
   21f96:	fffe                	.2byte	0xfffe
   21f98:	fed4                	.2byte	0xfed4
   21f9a:	fffe                	.2byte	0xfffe
   21f9c:	fed4                	.2byte	0xfed4
   21f9e:	fffe                	.2byte	0xfffe
   21fa0:	fed4                	.2byte	0xfed4
   21fa2:	fffe                	.2byte	0xfffe
   21fa4:	fed4                	.2byte	0xfed4
   21fa6:	fffe                	.2byte	0xfffe
   21fa8:	fed4                	.2byte	0xfed4
   21faa:	fffe                	.2byte	0xfffe
   21fac:	fed4                	.2byte	0xfed4
   21fae:	fffe                	.2byte	0xfffe
   21fb0:	0240                	.2byte	0x240
   21fb2:	ffff                	.2byte	0xffff
   21fb4:	fed4                	.2byte	0xfed4
   21fb6:	fffe                	.2byte	0xfffe
   21fb8:	0578                	.2byte	0x578
   21fba:	ffff                	.2byte	0xffff
   21fbc:	0120                	.2byte	0x120
   21fbe:	ffff                	.2byte	0xffff
   21fc0:	0240                	.2byte	0x240
   21fc2:	ffff                	.2byte	0xffff
   21fc4:	0240                	.2byte	0x240
   21fc6:	ffff                	.2byte	0xffff
   21fc8:	0240                	.2byte	0x240
   21fca:	ffff                	.2byte	0xffff
   21fcc:	0728                	.2byte	0x728
   21fce:	ffff                	.2byte	0xffff
   21fd0:	0120                	.2byte	0x120
   21fd2:	ffff                	.2byte	0xffff
   21fd4:	0110                	.2byte	0x110
   21fd6:	ffff                	.2byte	0xffff
   21fd8:	fed4                	.2byte	0xfed4
   21fda:	fffe                	.2byte	0xfffe
   21fdc:	0714                	.2byte	0x714
   21fde:	ffff                	.2byte	0xffff
   21fe0:	fed4                	.2byte	0xfed4
   21fe2:	fffe                	.2byte	0xfffe
   21fe4:	06e0                	.2byte	0x6e0
   21fe6:	ffff                	.2byte	0xffff
   21fe8:	01a4                	.2byte	0x1a4
   21fea:	ffff                	.2byte	0xffff
   21fec:	06a4                	.2byte	0x6a4
   21fee:	ffff                	.2byte	0xffff
   21ff0:	0110                	.2byte	0x110
   21ff2:	ffff                	.2byte	0xffff
   21ff4:	fed4                	.2byte	0xfed4
   21ff6:	fffe                	.2byte	0xfffe
   21ff8:	05a0                	.2byte	0x5a0
   21ffa:	ffff                	.2byte	0xffff
   21ffc:	0108                	.2byte	0x108
   21ffe:	ffff                	.2byte	0xffff
   22000:	10b0                	.2byte	0x10b0
   22002:	ffff                	.2byte	0xffff
   22004:	fed4                	.2byte	0xfed4
   22006:	fffe                	.2byte	0xfffe
   22008:	fed4                	.2byte	0xfed4
   2200a:	fffe                	.2byte	0xfffe
   2200c:	1154                	.2byte	0x1154
   2200e:	ffff                	.2byte	0xffff
   22010:	fed4                	.2byte	0xfed4
   22012:	fffe                	.2byte	0xfffe
   22014:	0108                	.2byte	0x108
   22016:	ffff                	.2byte	0xffff
   22018:	1be0                	.2byte	0x1be0
   2201a:	ffff                	.2byte	0xffff
   2201c:	1108                	.2byte	0x1108
   2201e:	ffff                	.2byte	0xffff
   22020:	1108                	.2byte	0x1108
   22022:	ffff                	.2byte	0xffff
   22024:	1108                	.2byte	0x1108
   22026:	ffff                	.2byte	0xffff
   22028:	1bc8                	.2byte	0x1bc8
   2202a:	ffff                	.2byte	0xffff
   2202c:	1bd4                	.2byte	0x1bd4
   2202e:	ffff                	.2byte	0xffff
   22030:	1108                	.2byte	0x1108
   22032:	ffff                	.2byte	0xffff
   22034:	1108                	.2byte	0x1108
   22036:	ffff                	.2byte	0xffff
   22038:	1108                	.2byte	0x1108
   2203a:	ffff                	.2byte	0xffff
   2203c:	1108                	.2byte	0x1108
   2203e:	ffff                	.2byte	0xffff
   22040:	1108                	.2byte	0x1108
   22042:	ffff                	.2byte	0xffff
   22044:	1108                	.2byte	0x1108
   22046:	ffff                	.2byte	0xffff
   22048:	1108                	.2byte	0x1108
   2204a:	ffff                	.2byte	0xffff
   2204c:	1108                	.2byte	0x1108
   2204e:	ffff                	.2byte	0xffff
   22050:	1108                	.2byte	0x1108
   22052:	ffff                	.2byte	0xffff
   22054:	1108                	.2byte	0x1108
   22056:	ffff                	.2byte	0xffff
   22058:	1108                	.2byte	0x1108
   2205a:	ffff                	.2byte	0xffff
   2205c:	1108                	.2byte	0x1108
   2205e:	ffff                	.2byte	0xffff
   22060:	1108                	.2byte	0x1108
   22062:	ffff                	.2byte	0xffff
   22064:	1108                	.2byte	0x1108
   22066:	ffff                	.2byte	0xffff
   22068:	1108                	.2byte	0x1108
   2206a:	ffff                	.2byte	0xffff
   2206c:	1108                	.2byte	0x1108
   2206e:	ffff                	.2byte	0xffff
   22070:	1108                	.2byte	0x1108
   22072:	ffff                	.2byte	0xffff
   22074:	1108                	.2byte	0x1108
   22076:	ffff                	.2byte	0xffff
   22078:	1108                	.2byte	0x1108
   2207a:	ffff                	.2byte	0xffff
   2207c:	1108                	.2byte	0x1108
   2207e:	ffff                	.2byte	0xffff
   22080:	1108                	.2byte	0x1108
   22082:	ffff                	.2byte	0xffff
   22084:	1108                	.2byte	0x1108
   22086:	ffff                	.2byte	0xffff
   22088:	1108                	.2byte	0x1108
   2208a:	ffff                	.2byte	0xffff
   2208c:	1108                	.2byte	0x1108
   2208e:	ffff                	.2byte	0xffff
   22090:	1108                	.2byte	0x1108
   22092:	ffff                	.2byte	0xffff
   22094:	1108                	.2byte	0x1108
   22096:	ffff                	.2byte	0xffff
   22098:	1108                	.2byte	0x1108
   2209a:	ffff                	.2byte	0xffff
   2209c:	1108                	.2byte	0x1108
   2209e:	ffff                	.2byte	0xffff
   220a0:	1108                	.2byte	0x1108
   220a2:	ffff                	.2byte	0xffff
   220a4:	1108                	.2byte	0x1108
   220a6:	ffff                	.2byte	0xffff
   220a8:	1bc8                	.2byte	0x1bc8
   220aa:	ffff                	.2byte	0xffff
   220ac:	1bd4                	.2byte	0x1bd4
   220ae:	ffff                	.2byte	0xffff

000220b0 <zeroes.0>:
   220b0:	3030                	.2byte	0x3030
   220b2:	3030                	.2byte	0x3030
   220b4:	3030                	.2byte	0x3030
   220b6:	3030                	.2byte	0x3030
   220b8:	3030                	.2byte	0x3030
   220ba:	3030                	.2byte	0x3030
   220bc:	3030                	.2byte	0x3030
   220be:	3030                	.2byte	0x3030

000220c0 <blanks.1>:
   220c0:	2020                	.2byte	0x2020
   220c2:	2020                	.2byte	0x2020
   220c4:	2020                	.2byte	0x2020
   220c6:	2020                	.2byte	0x2020
   220c8:	2020                	.2byte	0x2020
   220ca:	2020                	.2byte	0x2020
   220cc:	2020                	.2byte	0x2020
   220ce:	2020                	.2byte	0x2020
	...
   220dc:	0000                	.2byte	0x0
   220de:	3ffc                	.2byte	0x3ffc
	...
   220ec:	0000                	.2byte	0x0
   220ee:	00004003          	lbu	zero,0(zero) # 0 <exit-0x10094>
	...
   220fe:	3ffe                	.2byte	0x3ffe
   22100:	3024                	.2byte	0x3024
   22102:	ffff                	.2byte	0xffff
   22104:	28e8                	.2byte	0x28e8
   22106:	ffff                	.2byte	0xffff
   22108:	28e8                	.2byte	0x28e8
   2210a:	ffff                	.2byte	0xffff
   2210c:	3018                	.2byte	0x3018
   2210e:	ffff                	.2byte	0xffff
   22110:	28e8                	.2byte	0x28e8
   22112:	ffff                	.2byte	0xffff
   22114:	28e8                	.2byte	0x28e8
   22116:	ffff                	.2byte	0xffff
   22118:	28e8                	.2byte	0x28e8
   2211a:	ffff                	.2byte	0xffff
   2211c:	2f5c                	.2byte	0x2f5c
   2211e:	ffff                	.2byte	0xffff
   22120:	28e8                	.2byte	0x28e8
   22122:	ffff                	.2byte	0xffff
   22124:	28e8                	.2byte	0x28e8
   22126:	ffff                	.2byte	0xffff
   22128:	2a9c                	.2byte	0x2a9c
   2212a:	ffff                	.2byte	0xffff
   2212c:	2cd4                	.2byte	0x2cd4
   2212e:	ffff                	.2byte	0xffff
   22130:	28e8                	.2byte	0x28e8
   22132:	ffff                	.2byte	0xffff
   22134:	2cc8                	.2byte	0x2cc8
   22136:	ffff                	.2byte	0xffff
   22138:	2fcc                	.2byte	0x2fcc
   2213a:	ffff                	.2byte	0xffff
   2213c:	28e8                	.2byte	0x28e8
   2213e:	ffff                	.2byte	0xffff
   22140:	2fc0                	.2byte	0x2fc0
   22142:	ffff                	.2byte	0xffff
   22144:	28b4                	.2byte	0x28b4
   22146:	ffff                	.2byte	0xffff
   22148:	28b4                	.2byte	0x28b4
   2214a:	ffff                	.2byte	0xffff
   2214c:	28b4                	.2byte	0x28b4
   2214e:	ffff                	.2byte	0xffff
   22150:	28b4                	.2byte	0x28b4
   22152:	ffff                	.2byte	0xffff
   22154:	28b4                	.2byte	0x28b4
   22156:	ffff                	.2byte	0xffff
   22158:	28b4                	.2byte	0x28b4
   2215a:	ffff                	.2byte	0xffff
   2215c:	28b4                	.2byte	0x28b4
   2215e:	ffff                	.2byte	0xffff
   22160:	28b4                	.2byte	0x28b4
   22162:	ffff                	.2byte	0xffff
   22164:	28b4                	.2byte	0x28b4
   22166:	ffff                	.2byte	0xffff
   22168:	28e8                	.2byte	0x28e8
   2216a:	ffff                	.2byte	0xffff
   2216c:	28e8                	.2byte	0x28e8
   2216e:	ffff                	.2byte	0xffff
   22170:	28e8                	.2byte	0x28e8
   22172:	ffff                	.2byte	0xffff
   22174:	28e8                	.2byte	0x28e8
   22176:	ffff                	.2byte	0xffff
   22178:	28e8                	.2byte	0x28e8
   2217a:	ffff                	.2byte	0xffff
   2217c:	28e8                	.2byte	0x28e8
   2217e:	ffff                	.2byte	0xffff
   22180:	28e8                	.2byte	0x28e8
   22182:	ffff                	.2byte	0xffff
   22184:	28e8                	.2byte	0x28e8
   22186:	ffff                	.2byte	0xffff
   22188:	28e8                	.2byte	0x28e8
   2218a:	ffff                	.2byte	0xffff
   2218c:	2c48                	.2byte	0x2c48
   2218e:	ffff                	.2byte	0xffff
   22190:	2ed0                	.2byte	0x2ed0
   22192:	ffff                	.2byte	0xffff
   22194:	28e8                	.2byte	0x28e8
   22196:	ffff                	.2byte	0xffff
   22198:	28e8                	.2byte	0x28e8
   2219a:	ffff                	.2byte	0xffff
   2219c:	28e8                	.2byte	0x28e8
   2219e:	ffff                	.2byte	0xffff
   221a0:	28e8                	.2byte	0x28e8
   221a2:	ffff                	.2byte	0xffff
   221a4:	28e8                	.2byte	0x28e8
   221a6:	ffff                	.2byte	0xffff
   221a8:	28e8                	.2byte	0x28e8
   221aa:	ffff                	.2byte	0xffff
   221ac:	28e8                	.2byte	0x28e8
   221ae:	ffff                	.2byte	0xffff
   221b0:	28e8                	.2byte	0x28e8
   221b2:	ffff                	.2byte	0xffff
   221b4:	28e8                	.2byte	0x28e8
   221b6:	ffff                	.2byte	0xffff
   221b8:	28e8                	.2byte	0x28e8
   221ba:	ffff                	.2byte	0xffff
   221bc:	2f0c                	.2byte	0x2f0c
   221be:	ffff                	.2byte	0xffff
   221c0:	28e8                	.2byte	0x28e8
   221c2:	ffff                	.2byte	0xffff
   221c4:	28e8                	.2byte	0x28e8
   221c6:	ffff                	.2byte	0xffff
   221c8:	28e8                	.2byte	0x28e8
   221ca:	ffff                	.2byte	0xffff
   221cc:	2be0                	.2byte	0x2be0
   221ce:	ffff                	.2byte	0xffff
   221d0:	28e8                	.2byte	0x28e8
   221d2:	ffff                	.2byte	0xffff
   221d4:	2cf8                	.2byte	0x2cf8
   221d6:	ffff                	.2byte	0xffff
   221d8:	28e8                	.2byte	0x28e8
   221da:	ffff                	.2byte	0xffff
   221dc:	28e8                	.2byte	0x28e8
   221de:	ffff                	.2byte	0xffff
   221e0:	3734                	.2byte	0x3734
   221e2:	ffff                	.2byte	0xffff
   221e4:	28e8                	.2byte	0x28e8
   221e6:	ffff                	.2byte	0xffff
   221e8:	28e8                	.2byte	0x28e8
   221ea:	ffff                	.2byte	0xffff
   221ec:	28e8                	.2byte	0x28e8
   221ee:	ffff                	.2byte	0xffff
   221f0:	28e8                	.2byte	0x28e8
   221f2:	ffff                	.2byte	0xffff
   221f4:	28e8                	.2byte	0x28e8
   221f6:	ffff                	.2byte	0xffff
   221f8:	28e8                	.2byte	0x28e8
   221fa:	ffff                	.2byte	0xffff
   221fc:	28e8                	.2byte	0x28e8
   221fe:	ffff                	.2byte	0xffff
   22200:	28e8                	.2byte	0x28e8
   22202:	ffff                	.2byte	0xffff
   22204:	28e8                	.2byte	0x28e8
   22206:	ffff                	.2byte	0xffff
   22208:	28e8                	.2byte	0x28e8
   2220a:	ffff                	.2byte	0xffff
   2220c:	2c48                	.2byte	0x2c48
   2220e:	ffff                	.2byte	0xffff
   22210:	2c70                	.2byte	0x2c70
   22212:	ffff                	.2byte	0xffff
   22214:	28e8                	.2byte	0x28e8
   22216:	ffff                	.2byte	0xffff
   22218:	28e8                	.2byte	0x28e8
   2221a:	ffff                	.2byte	0xffff
   2221c:	28e8                	.2byte	0x28e8
   2221e:	ffff                	.2byte	0xffff
   22220:	2ce4                	.2byte	0x2ce4
   22222:	ffff                	.2byte	0xffff
   22224:	2c70                	.2byte	0x2c70
   22226:	ffff                	.2byte	0xffff
   22228:	2ab0                	.2byte	0x2ab0
   2222a:	ffff                	.2byte	0xffff
   2222c:	28e8                	.2byte	0x28e8
   2222e:	ffff                	.2byte	0xffff
   22230:	2ebc                	.2byte	0x2ebc
   22232:	ffff                	.2byte	0xffff
   22234:	28e8                	.2byte	0x28e8
   22236:	ffff                	.2byte	0xffff
   22238:	2e8c                	.2byte	0x2e8c
   2223a:	ffff                	.2byte	0xffff
   2223c:	378c                	.2byte	0x378c
   2223e:	ffff                	.2byte	0xffff
   22240:	2dc0                	.2byte	0x2dc0
   22242:	ffff                	.2byte	0xffff
   22244:	2ab0                	.2byte	0x2ab0
   22246:	ffff                	.2byte	0xffff
   22248:	28e8                	.2byte	0x28e8
   2224a:	ffff                	.2byte	0xffff
   2224c:	2be0                	.2byte	0x2be0
   2224e:	ffff                	.2byte	0xffff
   22250:	2aa8                	.2byte	0x2aa8
   22252:	ffff                	.2byte	0xffff
   22254:	3728                	.2byte	0x3728
   22256:	ffff                	.2byte	0xffff
   22258:	28e8                	.2byte	0x28e8
   2225a:	ffff                	.2byte	0xffff
   2225c:	28e8                	.2byte	0x28e8
   2225e:	ffff                	.2byte	0xffff
   22260:	3798                	.2byte	0x3798
   22262:	ffff                	.2byte	0xffff
   22264:	28e8                	.2byte	0x28e8
   22266:	ffff                	.2byte	0xffff
   22268:	2aa8                	.2byte	0x2aa8
   2226a:	ffff                	.2byte	0xffff

0002226c <zeroes.0>:
   2226c:	3030                	.2byte	0x3030
   2226e:	3030                	.2byte	0x3030
   22270:	3030                	.2byte	0x3030
   22272:	3030                	.2byte	0x3030
   22274:	3030                	.2byte	0x3030
   22276:	3030                	.2byte	0x3030
   22278:	3030                	.2byte	0x3030
   2227a:	3030                	.2byte	0x3030

0002227c <blanks.1>:
   2227c:	2020                	.2byte	0x2020
   2227e:	2020                	.2byte	0x2020
   22280:	2020                	.2byte	0x2020
   22282:	2020                	.2byte	0x2020
   22284:	2020                	.2byte	0x2020
   22286:	2020                	.2byte	0x2020
   22288:	2020                	.2byte	0x2020
   2228a:	2020                	.2byte	0x2020
   2228c:	00000043          	.4byte	0x43
   22290:	4f50                	.2byte	0x4f50
   22292:	00584953          	.4byte	0x584953
   22296:	0000                	.2byte	0x0
   22298:	002e                	.2byte	0x2e
	...
   222ae:	4071                	.2byte	0x4071
   222b0:	ffff                	.2byte	0xffff
   222b2:	ffff                	.2byte	0xffff
   222b4:	ffff                	.2byte	0xffff
   222b6:	ffff                	.2byte	0xffff
   222b8:	ffff                	.2byte	0xffff
   222ba:	ffff                	.2byte	0xffff
   222bc:	ffff                	.2byte	0xffff
   222be:	7ffe                	.2byte	0x7ffe
	...
   222cc:	0000                	.2byte	0x0
   222ce:	0001                	.2byte	0x1
   222d0:	0071                	.2byte	0x71
   222d2:	0000                	.2byte	0x0
   222d4:	bf92                	.2byte	0xbf92
   222d6:	ffff                	.2byte	0xffff
   222d8:	00003f8f          	.4byte	0x3f8f
   222dc:	0001                	.2byte	0x1
   222de:	0000                	.2byte	0x0
   222e0:	0000                	.2byte	0x0
   222e2:	0000                	.2byte	0x0
   222e4:	6e49                	.2byte	0x6e49
   222e6:	6966                	.2byte	0x6966
   222e8:	696e                	.2byte	0x696e
   222ea:	7974                	.2byte	0x7974
   222ec:	0000                	.2byte	0x0
   222ee:	0000                	.2byte	0x0
   222f0:	614e                	.2byte	0x614e
   222f2:	004e                	.2byte	0x4e
   222f4:	6142                	.2byte	0x6142
   222f6:	6c6c                	.2byte	0x6c6c
   222f8:	7320636f          	jal	t1,28a2a <__BSS_END__+0x4f26>
   222fc:	6375                	.2byte	0x6375
   222fe:	64656563          	bltu	a0,t1,22948 <__clz_tab+0x330>
   22302:	6465                	.2byte	0x6465
   22304:	0000                	.2byte	0x0
   22306:	0000                	.2byte	0x0
   22308:	6d6f682f          	.4byte	0x6d6f682f
   2230c:	2f65                	.2byte	0x2f65
   2230e:	6c746967          	.4byte	0x6c746967
   22312:	6261                	.2byte	0x6261
   22314:	722d                	.2byte	0x722d
   22316:	6e75                	.2byte	0x6e75
   22318:	656e                	.2byte	0x656e
   2231a:	2f72                	.2byte	0x2f72
   2231c:	632e                	.2byte	0x632e
   2231e:	6e616e6f          	jal	t3,38a04 <__BSS_END__+0x14f00>
   22322:	2f32                	.2byte	0x2f32
   22324:	2f70                	.2byte	0x2f70
   22326:	2f62                	.2byte	0x2f62
   22328:	6972                	.2byte	0x6972
   2232a:	64766373          	.4byte	0x64766373
   2232e:	3265                	.2byte	0x3265
   22330:	3861                	.2byte	0x3861
   22332:	3866                	.2byte	0x3866
   22334:	6134                	.2byte	0x6134
   22336:	6636                	.2byte	0x6636
   22338:	622f3033          	.4byte	0x622f3033
   2233c:	7478652f          	.4byte	0x7478652f
   22340:	7265                	.2byte	0x7265
   22342:	616e                	.2byte	0x616e
   22344:	5f6c                	.2byte	0x5f6c
   22346:	72756f73          	.4byte	0x72756f73
   2234a:	2f736563          	bltu	t1,s7,22634 <__clz_tab+0x1c>
   2234e:	656e                	.2byte	0x656e
   22350:	62696c77          	.4byte	0x62696c77
   22354:	77656e2f          	.4byte	0x77656e2f
   22358:	696c                	.2byte	0x696c
   2235a:	2f62                	.2byte	0x2f62
   2235c:	696c                	.2byte	0x696c
   2235e:	6362                	.2byte	0x6362
   22360:	6474732f          	.4byte	0x6474732f
   22364:	696c                	.2byte	0x696c
   22366:	2f62                	.2byte	0x2f62
   22368:	706d                	.2byte	0x706d
   2236a:	6572                	.2byte	0x6572
   2236c:	00632e63          	.4byte	0x632e63

00022370 <p05.0>:
   22370:	0005                	.2byte	0x5
   22372:	0000                	.2byte	0x0
   22374:	0019                	.2byte	0x19
   22376:	0000                	.2byte	0x0
   22378:	007d                	.2byte	0x7d
   2237a:	0000                	.2byte	0x0
   2237c:	0000                	.2byte	0x0
	...

00022380 <__mprec_tinytens>:
   22380:	89bc                	.2byte	0x89bc
   22382:	97d8                	.2byte	0x97d8
   22384:	d2b2                	.2byte	0xd2b2
   22386:	3c9c                	.2byte	0x3c9c
   22388:	d5a8a733          	.4byte	0xd5a8a733
   2238c:	3949f623          	.4byte	0x3949f623
   22390:	a73d                	.2byte	0xa73d
   22392:	44f4                	.2byte	0x44f4
   22394:	0ffd                	.2byte	0xffd
   22396:	32a5                	.2byte	0x32a5
   22398:	979d                	.2byte	0x979d
   2239a:	cf8c                	.2byte	0xcf8c
   2239c:	ba08                	.2byte	0xba08
   2239e:	6f43255b          	.4byte	0x6f43255b
   223a2:	64ac                	.2byte	0x64ac
   223a4:	0628                	.2byte	0x628
   223a6:	0ac8                	.2byte	0xac8

000223a8 <__mprec_bigtens>:
   223a8:	8000                	.2byte	0x8000
   223aa:	37e0                	.2byte	0x37e0
   223ac:	c379                	.2byte	0xc379
   223ae:	4341                	.2byte	0x4341
   223b0:	b5056e17          	auipc	t3,0xb5056
   223b4:	b8b5                	.2byte	0xb8b5
   223b6:	f9f54693          	xori	a3,a0,-97
   223ba:	4f03e93f 1d324d38 	.8byte	0x1d324d384f03e93f
   223c2:	f930                	.2byte	0xf930
   223c4:	7748                	.2byte	0x7748
   223c6:	5a82                	.2byte	0x5a82
   223c8:	bf3c                	.2byte	0xbf3c
   223ca:	4fdd7f73          	.4byte	0x4fdd7f73
   223ce:	7515                	.2byte	0x7515

000223d0 <__mprec_tens>:
   223d0:	0000                	.2byte	0x0
   223d2:	0000                	.2byte	0x0
   223d4:	0000                	.2byte	0x0
   223d6:	3ff0                	.2byte	0x3ff0
   223d8:	0000                	.2byte	0x0
   223da:	0000                	.2byte	0x0
   223dc:	0000                	.2byte	0x0
   223de:	4024                	.2byte	0x4024
   223e0:	0000                	.2byte	0x0
   223e2:	0000                	.2byte	0x0
   223e4:	0000                	.2byte	0x0
   223e6:	4059                	.2byte	0x4059
   223e8:	0000                	.2byte	0x0
   223ea:	0000                	.2byte	0x0
   223ec:	4000                	.2byte	0x4000
   223ee:	0000408f          	.4byte	0x408f
   223f2:	0000                	.2byte	0x0
   223f4:	8800                	.2byte	0x8800
   223f6:	000040c3          	.4byte	0x40c3
   223fa:	0000                	.2byte	0x0
   223fc:	6a00                	.2byte	0x6a00
   223fe:	40f8                	.2byte	0x40f8
   22400:	0000                	.2byte	0x0
   22402:	0000                	.2byte	0x0
   22404:	8480                	.2byte	0x8480
   22406:	412e                	.2byte	0x412e
   22408:	0000                	.2byte	0x0
   2240a:	0000                	.2byte	0x0
   2240c:	12d0                	.2byte	0x12d0
   2240e:	00004163          	bltz	zero,22410 <__mprec_tens+0x40>
   22412:	0000                	.2byte	0x0
   22414:	d784                	.2byte	0xd784
   22416:	00004197          	auipc	gp,0x4
   2241a:	0000                	.2byte	0x0
   2241c:	cd65                	.2byte	0xcd65
   2241e:	41cd                	.2byte	0x41cd
   22420:	0000                	.2byte	0x0
   22422:	2000                	.2byte	0x2000
   22424:	a05f 4202 0000      	.byte	0x5f, 0xa0, 0x02, 0x42, 0x00, 0x00
   2242a:	e800                	.2byte	0xe800
   2242c:	4876                	.2byte	0x4876
   2242e:	00004237          	lui	tp,0x4
   22432:	a200                	.2byte	0xa200
   22434:	1a94                	.2byte	0x1a94
   22436:	426d                	.2byte	0x426d
   22438:	0000                	.2byte	0x0
   2243a:	e540                	.2byte	0xe540
   2243c:	309c                	.2byte	0x309c
   2243e:	42a2                	.2byte	0x42a2
   22440:	0000                	.2byte	0x0
   22442:	1e90                	.2byte	0x1e90
   22444:	bcc4                	.2byte	0xbcc4
   22446:	42d6                	.2byte	0x42d6
   22448:	0000                	.2byte	0x0
   2244a:	2634                	.2byte	0x2634
   2244c:	6bf5                	.2byte	0x6bf5
   2244e:	430c                	.2byte	0x430c
   22450:	8000                	.2byte	0x8000
   22452:	37e0                	.2byte	0x37e0
   22454:	c379                	.2byte	0xc379
   22456:	4341                	.2byte	0x4341
   22458:	a000                	.2byte	0xa000
   2245a:	85d8                	.2byte	0x85d8
   2245c:	43763457          	.4byte	0x43763457
   22460:	c800                	.2byte	0xc800
   22462:	674e                	.2byte	0x674e
   22464:	c16d                	.2byte	0xc16d
   22466:	3d0043ab          	.4byte	0x3d0043ab
   2246a:	6091                	.2byte	0x6091
   2246c:	58e4                	.2byte	0x58e4
   2246e:	43e1                	.2byte	0x43e1
   22470:	8c40                	.2byte	0x8c40
   22472:	78b5                	.2byte	0x78b5
   22474:	af1d                	.2byte	0xaf1d
   22476:	4415                	.2byte	0x4415
   22478:	ef50                	.2byte	0xef50
   2247a:	d6e2                	.2byte	0xd6e2
   2247c:	1ae4                	.2byte	0x1ae4
   2247e:	d592444b          	.4byte	0xd592444b
   22482:	064d                	.2byte	0x64d
   22484:	4480f0cf          	.4byte	0x4480f0cf
   22488:	4af6                	.2byte	0x4af6
   2248a:	c7e1                	.2byte	0xc7e1
   2248c:	2d02                	.2byte	0x2d02
   2248e:	44b5                	.2byte	0x44b5
   22490:	9db4                	.2byte	0x9db4
   22492:	79d9                	.2byte	0x79d9
   22494:	44ea7843          	.4byte	0x44ea7843

00022498 <_ctype_>:
   22498:	2000                	.2byte	0x2000
   2249a:	2020                	.2byte	0x2020
   2249c:	2020                	.2byte	0x2020
   2249e:	2020                	.2byte	0x2020
   224a0:	2020                	.2byte	0x2020
   224a2:	2828                	.2byte	0x2828
   224a4:	2828                	.2byte	0x2828
   224a6:	2028                	.2byte	0x2028
   224a8:	2020                	.2byte	0x2020
   224aa:	2020                	.2byte	0x2020
   224ac:	2020                	.2byte	0x2020
   224ae:	2020                	.2byte	0x2020
   224b0:	2020                	.2byte	0x2020
   224b2:	2020                	.2byte	0x2020
   224b4:	2020                	.2byte	0x2020
   224b6:	2020                	.2byte	0x2020
   224b8:	8820                	.2byte	0x8820
   224ba:	1010                	.2byte	0x1010
   224bc:	1010                	.2byte	0x1010
   224be:	1010                	.2byte	0x1010
   224c0:	1010                	.2byte	0x1010
   224c2:	1010                	.2byte	0x1010
   224c4:	1010                	.2byte	0x1010
   224c6:	1010                	.2byte	0x1010
   224c8:	0410                	.2byte	0x410
   224ca:	0404                	.2byte	0x404
   224cc:	0404                	.2byte	0x404
   224ce:	0404                	.2byte	0x404
   224d0:	0404                	.2byte	0x404
   224d2:	1004                	.2byte	0x1004
   224d4:	1010                	.2byte	0x1010
   224d6:	1010                	.2byte	0x1010
   224d8:	1010                	.2byte	0x1010
   224da:	4141                	.2byte	0x4141
   224dc:	4141                	.2byte	0x4141
   224de:	4141                	.2byte	0x4141
   224e0:	0101                	.2byte	0x101
   224e2:	0101                	.2byte	0x101
   224e4:	0101                	.2byte	0x101
   224e6:	0101                	.2byte	0x101
   224e8:	0101                	.2byte	0x101
   224ea:	0101                	.2byte	0x101
   224ec:	0101                	.2byte	0x101
   224ee:	0101                	.2byte	0x101
   224f0:	0101                	.2byte	0x101
   224f2:	0101                	.2byte	0x101
   224f4:	1010                	.2byte	0x1010
   224f6:	1010                	.2byte	0x1010
   224f8:	1010                	.2byte	0x1010
   224fa:	4242                	.2byte	0x4242
   224fc:	4242                	.2byte	0x4242
   224fe:	4242                	.2byte	0x4242
   22500:	0202                	.2byte	0x202
   22502:	0202                	.2byte	0x202
   22504:	0202                	.2byte	0x202
   22506:	0202                	.2byte	0x202
   22508:	0202                	.2byte	0x202
   2250a:	0202                	.2byte	0x202
   2250c:	0202                	.2byte	0x202
   2250e:	0202                	.2byte	0x202
   22510:	0202                	.2byte	0x202
   22512:	0202                	.2byte	0x202
   22514:	1010                	.2byte	0x1010
   22516:	1010                	.2byte	0x1010
   22518:	0020                	.2byte	0x20
	...
   2259a:	0000                	.2byte	0x0
   2259c:	202c                	.2byte	0x202c
   2259e:	7566                	.2byte	0x7566
   225a0:	636e                	.2byte	0x636e
   225a2:	6974                	.2byte	0x6974
   225a4:	203a6e6f          	jal	t3,c8fa6 <__BSS_END__+0xa54a2>
   225a8:	0000                	.2byte	0x0
   225aa:	0000                	.2byte	0x0
   225ac:	7361                	.2byte	0x7361
   225ae:	74726573          	.4byte	0x74726573
   225b2:	6f69                	.2byte	0x6f69
   225b4:	206e                	.2byte	0x206e
   225b6:	2522                	.2byte	0x2522
   225b8:	66202273          	.4byte	0x66202273
   225bc:	6961                	.2byte	0x6961
   225be:	656c                	.2byte	0x656c
   225c0:	3a64                	.2byte	0x3a64
   225c2:	6620                	.2byte	0x6620
   225c4:	6c69                	.2byte	0x6c69
   225c6:	2065                	.2byte	0x2065
   225c8:	2522                	.2byte	0x2522
   225ca:	202c2273          	.4byte	0x202c2273
   225ce:	696c                	.2byte	0x696c
   225d0:	656e                	.2byte	0x656e
   225d2:	2520                	.2byte	0x2520
   225d4:	2564                	.2byte	0x2564
   225d6:	0a732573          	.4byte	0xa732573
   225da:	0000                	.2byte	0x0
   225dc:	b1c8                	.2byte	0xb1c8
   225de:	ffff                	.2byte	0xffff
   225e0:	ac84                	.2byte	0xac84
   225e2:	ffff                	.2byte	0xffff
   225e4:	b0f0                	.2byte	0xb0f0
   225e6:	ffff                	.2byte	0xffff
   225e8:	ac84                	.2byte	0xac84
   225ea:	ffff                	.2byte	0xffff
   225ec:	b1b4                	.2byte	0xb1b4
   225ee:	ffff                	.2byte	0xffff
   225f0:	ac84                	.2byte	0xac84
   225f2:	ffff                	.2byte	0xffff
   225f4:	b0f0                	.2byte	0xb0f0
   225f6:	ffff                	.2byte	0xffff
   225f8:	b1c8                	.2byte	0xb1c8
   225fa:	ffff                	.2byte	0xffff
   225fc:	b1c8                	.2byte	0xb1c8
   225fe:	ffff                	.2byte	0xffff
   22600:	b1b4                	.2byte	0xb1b4
   22602:	ffff                	.2byte	0xffff
   22604:	b0f0                	.2byte	0xb0f0
   22606:	ffff                	.2byte	0xffff
   22608:	ac60                	.2byte	0xac60
   2260a:	ffff                	.2byte	0xffff
   2260c:	ac60                	.2byte	0xac60
   2260e:	ffff                	.2byte	0xffff
   22610:	ac60                	.2byte	0xac60
   22612:	ffff                	.2byte	0xffff
   22614:	b1b4                	.2byte	0xb1b4
   22616:	ffff                	.2byte	0xffff

00022618 <__clz_tab>:
   22618:	0100                	.2byte	0x100
   2261a:	0202                	.2byte	0x202
   2261c:	03030303          	lb	t1,48(t1) # 80030 <__BSS_END__+0x5c52c>
   22620:	0404                	.2byte	0x404
   22622:	0404                	.2byte	0x404
   22624:	0404                	.2byte	0x404
   22626:	0404                	.2byte	0x404
   22628:	0505                	.2byte	0x505
   2262a:	0505                	.2byte	0x505
   2262c:	0505                	.2byte	0x505
   2262e:	0505                	.2byte	0x505
   22630:	0505                	.2byte	0x505
   22632:	0505                	.2byte	0x505
   22634:	0505                	.2byte	0x505
   22636:	0505                	.2byte	0x505
   22638:	0606                	.2byte	0x606
   2263a:	0606                	.2byte	0x606
   2263c:	0606                	.2byte	0x606
   2263e:	0606                	.2byte	0x606
   22640:	0606                	.2byte	0x606
   22642:	0606                	.2byte	0x606
   22644:	0606                	.2byte	0x606
   22646:	0606                	.2byte	0x606
   22648:	0606                	.2byte	0x606
   2264a:	0606                	.2byte	0x606
   2264c:	0606                	.2byte	0x606
   2264e:	0606                	.2byte	0x606
   22650:	0606                	.2byte	0x606
   22652:	0606                	.2byte	0x606
   22654:	0606                	.2byte	0x606
   22656:	0606                	.2byte	0x606
   22658:	07070707          	.4byte	0x7070707
   2265c:	07070707          	.4byte	0x7070707
   22660:	07070707          	.4byte	0x7070707
   22664:	07070707          	.4byte	0x7070707
   22668:	07070707          	.4byte	0x7070707
   2266c:	07070707          	.4byte	0x7070707
   22670:	07070707          	.4byte	0x7070707
   22674:	07070707          	.4byte	0x7070707
   22678:	07070707          	.4byte	0x7070707
   2267c:	07070707          	.4byte	0x7070707
   22680:	07070707          	.4byte	0x7070707
   22684:	07070707          	.4byte	0x7070707
   22688:	07070707          	.4byte	0x7070707
   2268c:	07070707          	.4byte	0x7070707
   22690:	07070707          	.4byte	0x7070707
   22694:	07070707          	.4byte	0x7070707
   22698:	0808                	.2byte	0x808
   2269a:	0808                	.2byte	0x808
   2269c:	0808                	.2byte	0x808
   2269e:	0808                	.2byte	0x808
   226a0:	0808                	.2byte	0x808
   226a2:	0808                	.2byte	0x808
   226a4:	0808                	.2byte	0x808
   226a6:	0808                	.2byte	0x808
   226a8:	0808                	.2byte	0x808
   226aa:	0808                	.2byte	0x808
   226ac:	0808                	.2byte	0x808
   226ae:	0808                	.2byte	0x808
   226b0:	0808                	.2byte	0x808
   226b2:	0808                	.2byte	0x808
   226b4:	0808                	.2byte	0x808
   226b6:	0808                	.2byte	0x808
   226b8:	0808                	.2byte	0x808
   226ba:	0808                	.2byte	0x808
   226bc:	0808                	.2byte	0x808
   226be:	0808                	.2byte	0x808
   226c0:	0808                	.2byte	0x808
   226c2:	0808                	.2byte	0x808
   226c4:	0808                	.2byte	0x808
   226c6:	0808                	.2byte	0x808
   226c8:	0808                	.2byte	0x808
   226ca:	0808                	.2byte	0x808
   226cc:	0808                	.2byte	0x808
   226ce:	0808                	.2byte	0x808
   226d0:	0808                	.2byte	0x808
   226d2:	0808                	.2byte	0x808
   226d4:	0808                	.2byte	0x808
   226d6:	0808                	.2byte	0x808
   226d8:	0808                	.2byte	0x808
   226da:	0808                	.2byte	0x808
   226dc:	0808                	.2byte	0x808
   226de:	0808                	.2byte	0x808
   226e0:	0808                	.2byte	0x808
   226e2:	0808                	.2byte	0x808
   226e4:	0808                	.2byte	0x808
   226e6:	0808                	.2byte	0x808
   226e8:	0808                	.2byte	0x808
   226ea:	0808                	.2byte	0x808
   226ec:	0808                	.2byte	0x808
   226ee:	0808                	.2byte	0x808
   226f0:	0808                	.2byte	0x808
   226f2:	0808                	.2byte	0x808
   226f4:	0808                	.2byte	0x808
   226f6:	0808                	.2byte	0x808
   226f8:	0808                	.2byte	0x808
   226fa:	0808                	.2byte	0x808
   226fc:	0808                	.2byte	0x808
   226fe:	0808                	.2byte	0x808
   22700:	0808                	.2byte	0x808
   22702:	0808                	.2byte	0x808
   22704:	0808                	.2byte	0x808
   22706:	0808                	.2byte	0x808
   22708:	0808                	.2byte	0x808
   2270a:	0808                	.2byte	0x808
   2270c:	0808                	.2byte	0x808
   2270e:	0808                	.2byte	0x808
   22710:	0808                	.2byte	0x808
   22712:	0808                	.2byte	0x808
   22714:	0808                	.2byte	0x808
   22716:	0808                	.2byte	0x808

Disassembly of section .eh_frame:

00023000 <__EH_FRAME_BEGIN__>:
   23000:	0010                	.2byte	0x10
   23002:	0000                	.2byte	0x0
   23004:	0000                	.2byte	0x0
   23006:	0000                	.2byte	0x0
   23008:	00527a03          	.4byte	0x527a03
   2300c:	7c01                	.2byte	0x7c01
   2300e:	0101                	.2byte	0x101
   23010:	00020d1b          	.4byte	0x20d1b
   23014:	0048                	.2byte	0x48
   23016:	0000                	.2byte	0x0
   23018:	0018                	.2byte	0x18
   2301a:	0000                	.2byte	0x0
   2301c:	8d58                	.2byte	0x8d58
   2301e:	ffff                	.2byte	0xffff
   23020:	05c4                	.2byte	0x5c4
   23022:	0000                	.2byte	0x0
   23024:	4400                	.2byte	0x4400
   23026:	300e                	.2byte	0x300e
   23028:	946c                	.2byte	0x946c
   2302a:	8106                	.2byte	0x8106
   2302c:	8801                	.2byte	0x8801
   2302e:	8902                	.2byte	0x8902
   23030:	93049203          	lh	tp,-1744(s1)
   23034:	9505                	.2byte	0x9505
   23036:	97089607          	.4byte	0x97089607
   2303a:	9809                	.2byte	0x9809
   2303c:	990a                	.2byte	0x990a
   2303e:	0254030b          	.4byte	0x254030b
   23042:	c10a                	.2byte	0xc10a
   23044:	c844                	.2byte	0xc844
   23046:	c944                	.2byte	0xc944
   23048:	d344                	.2byte	0xd344
   2304a:	d444                	.2byte	0xd444
   2304c:	d544                	.2byte	0xd544
   2304e:	d644                	.2byte	0xd644
   23050:	d744                	.2byte	0xd744
   23052:	d844                	.2byte	0xd844
   23054:	d944                	.2byte	0xd944
   23056:	d24c                	.2byte	0xd24c
   23058:	0e44                	.2byte	0xe44
   2305a:	4400                	.2byte	0x4400
   2305c:	0000000b          	.4byte	0xb
   23060:	004c                	.2byte	0x4c
   23062:	0000                	.2byte	0x0
   23064:	0064                	.2byte	0x64
   23066:	0000                	.2byte	0x0
   23068:	92d0                	.2byte	0x92d0
   2306a:	ffff                	.2byte	0xffff
   2306c:	04d0                	.2byte	0x4d0
   2306e:	0000                	.2byte	0x0
   23070:	4400                	.2byte	0x4400
   23072:	300e                	.2byte	0x300e
   23074:	8870                	.2byte	0x8870
   23076:	8902                	.2byte	0x8902
   23078:	92018103          	lb	sp,-1760(gp) # 25d36 <__BSS_END__+0x2232>
   2307c:	9304                	.2byte	0x9304
   2307e:	9405                	.2byte	0x9405
   23080:	9506                	.2byte	0x9506
   23082:	97089607          	.4byte	0x97089607
   23086:	9809                	.2byte	0x9809
   23088:	990a                	.2byte	0x990a
   2308a:	030c9a0b          	.4byte	0x30c9a0b
   2308e:	010c                	.2byte	0x10c
   23090:	c10a                	.2byte	0xc10a
   23092:	c844                	.2byte	0xc844
   23094:	c944                	.2byte	0xc944
   23096:	d244                	.2byte	0xd244
   23098:	d344                	.2byte	0xd344
   2309a:	d444                	.2byte	0xd444
   2309c:	d544                	.2byte	0xd544
   2309e:	d644                	.2byte	0xd644
   230a0:	d744                	.2byte	0xd744
   230a2:	d844                	.2byte	0xd844
   230a4:	d944                	.2byte	0xd944
   230a6:	da44                	.2byte	0xda44
   230a8:	0e44                	.2byte	0xe44
   230aa:	4400                	.2byte	0x4400
   230ac:	0000000b          	.4byte	0xb

000230b0 <__FRAME_END__>:
   230b0:	0000                	.2byte	0x0
	...

Disassembly of section .init_array:

000230b4 <__init_array_start>:
   230b4:	00c0                	.2byte	0xc0
   230b6:	0001                	.2byte	0x1

000230b8 <__frame_dummy_init_array_entry>:
   230b8:	016c                	.2byte	0x16c
   230ba:	0001                	.2byte	0x1

Disassembly of section .fini_array:

000230bc <__do_global_dtors_aux_fini_array_entry>:
   230bc:	0124                	.2byte	0x124
   230be:	0001                	.2byte	0x1

Disassembly of section .data:

000230c0 <__sglue>:
   230c0:	0000                	.2byte	0x0
   230c2:	0000                	.2byte	0x0
   230c4:	00000003          	lb	zero,0(zero) # 0 <exit-0x10094>
   230c8:	3814                	.2byte	0x3814
   230ca:	0002                	.2byte	0x2
   230cc:	0000                	.2byte	0x0
	...

000230d0 <_impure_data>:
   230d0:	0000                	.2byte	0x0
   230d2:	0000                	.2byte	0x0
   230d4:	3814                	.2byte	0x3814
   230d6:	0002                	.2byte	0x2
   230d8:	387c                	.2byte	0x387c
   230da:	0002                	.2byte	0x2
   230dc:	38e4                	.2byte	0x38e4
   230de:	0002                	.2byte	0x2
	...
   23168:	0001                	.2byte	0x1
   2316a:	0000                	.2byte	0x0
   2316c:	0000                	.2byte	0x0
   2316e:	0000                	.2byte	0x0
   23170:	330e                	.2byte	0x330e
   23172:	abcd                	.2byte	0xabcd
   23174:	1234                	.2byte	0x1234
   23176:	e66d                	.2byte	0xe66d
   23178:	deec                	.2byte	0xdeec
   2317a:	0005                	.2byte	0x5
   2317c:	0000000b          	.4byte	0xb
	...

000231f0 <__malloc_av_>:
	...
   231f8:	31f0                	.2byte	0x31f0
   231fa:	0002                	.2byte	0x2
   231fc:	31f0                	.2byte	0x31f0
   231fe:	0002                	.2byte	0x2
   23200:	31f8                	.2byte	0x31f8
   23202:	0002                	.2byte	0x2
   23204:	31f8                	.2byte	0x31f8
   23206:	0002                	.2byte	0x2
   23208:	3200                	.2byte	0x3200
   2320a:	0002                	.2byte	0x2
   2320c:	3200                	.2byte	0x3200
   2320e:	0002                	.2byte	0x2
   23210:	3208                	.2byte	0x3208
   23212:	0002                	.2byte	0x2
   23214:	3208                	.2byte	0x3208
   23216:	0002                	.2byte	0x2
   23218:	3210                	.2byte	0x3210
   2321a:	0002                	.2byte	0x2
   2321c:	3210                	.2byte	0x3210
   2321e:	0002                	.2byte	0x2
   23220:	3218                	.2byte	0x3218
   23222:	0002                	.2byte	0x2
   23224:	3218                	.2byte	0x3218
   23226:	0002                	.2byte	0x2
   23228:	3220                	.2byte	0x3220
   2322a:	0002                	.2byte	0x2
   2322c:	3220                	.2byte	0x3220
   2322e:	0002                	.2byte	0x2
   23230:	3228                	.2byte	0x3228
   23232:	0002                	.2byte	0x2
   23234:	3228                	.2byte	0x3228
   23236:	0002                	.2byte	0x2
   23238:	3230                	.2byte	0x3230
   2323a:	0002                	.2byte	0x2
   2323c:	3230                	.2byte	0x3230
   2323e:	0002                	.2byte	0x2
   23240:	3238                	.2byte	0x3238
   23242:	0002                	.2byte	0x2
   23244:	3238                	.2byte	0x3238
   23246:	0002                	.2byte	0x2
   23248:	3240                	.2byte	0x3240
   2324a:	0002                	.2byte	0x2
   2324c:	3240                	.2byte	0x3240
   2324e:	0002                	.2byte	0x2
   23250:	3248                	.2byte	0x3248
   23252:	0002                	.2byte	0x2
   23254:	3248                	.2byte	0x3248
   23256:	0002                	.2byte	0x2
   23258:	3250                	.2byte	0x3250
   2325a:	0002                	.2byte	0x2
   2325c:	3250                	.2byte	0x3250
   2325e:	0002                	.2byte	0x2
   23260:	3258                	.2byte	0x3258
   23262:	0002                	.2byte	0x2
   23264:	3258                	.2byte	0x3258
   23266:	0002                	.2byte	0x2
   23268:	3260                	.2byte	0x3260
   2326a:	0002                	.2byte	0x2
   2326c:	3260                	.2byte	0x3260
   2326e:	0002                	.2byte	0x2
   23270:	3268                	.2byte	0x3268
   23272:	0002                	.2byte	0x2
   23274:	3268                	.2byte	0x3268
   23276:	0002                	.2byte	0x2
   23278:	3270                	.2byte	0x3270
   2327a:	0002                	.2byte	0x2
   2327c:	3270                	.2byte	0x3270
   2327e:	0002                	.2byte	0x2
   23280:	3278                	.2byte	0x3278
   23282:	0002                	.2byte	0x2
   23284:	3278                	.2byte	0x3278
   23286:	0002                	.2byte	0x2
   23288:	3280                	.2byte	0x3280
   2328a:	0002                	.2byte	0x2
   2328c:	3280                	.2byte	0x3280
   2328e:	0002                	.2byte	0x2
   23290:	3288                	.2byte	0x3288
   23292:	0002                	.2byte	0x2
   23294:	3288                	.2byte	0x3288
   23296:	0002                	.2byte	0x2
   23298:	3290                	.2byte	0x3290
   2329a:	0002                	.2byte	0x2
   2329c:	3290                	.2byte	0x3290
   2329e:	0002                	.2byte	0x2
   232a0:	3298                	.2byte	0x3298
   232a2:	0002                	.2byte	0x2
   232a4:	3298                	.2byte	0x3298
   232a6:	0002                	.2byte	0x2
   232a8:	32a0                	.2byte	0x32a0
   232aa:	0002                	.2byte	0x2
   232ac:	32a0                	.2byte	0x32a0
   232ae:	0002                	.2byte	0x2
   232b0:	32a8                	.2byte	0x32a8
   232b2:	0002                	.2byte	0x2
   232b4:	32a8                	.2byte	0x32a8
   232b6:	0002                	.2byte	0x2
   232b8:	32b0                	.2byte	0x32b0
   232ba:	0002                	.2byte	0x2
   232bc:	32b0                	.2byte	0x32b0
   232be:	0002                	.2byte	0x2
   232c0:	32b8                	.2byte	0x32b8
   232c2:	0002                	.2byte	0x2
   232c4:	32b8                	.2byte	0x32b8
   232c6:	0002                	.2byte	0x2
   232c8:	32c0                	.2byte	0x32c0
   232ca:	0002                	.2byte	0x2
   232cc:	32c0                	.2byte	0x32c0
   232ce:	0002                	.2byte	0x2
   232d0:	32c8                	.2byte	0x32c8
   232d2:	0002                	.2byte	0x2
   232d4:	32c8                	.2byte	0x32c8
   232d6:	0002                	.2byte	0x2
   232d8:	32d0                	.2byte	0x32d0
   232da:	0002                	.2byte	0x2
   232dc:	32d0                	.2byte	0x32d0
   232de:	0002                	.2byte	0x2
   232e0:	32d8                	.2byte	0x32d8
   232e2:	0002                	.2byte	0x2
   232e4:	32d8                	.2byte	0x32d8
   232e6:	0002                	.2byte	0x2
   232e8:	32e0                	.2byte	0x32e0
   232ea:	0002                	.2byte	0x2
   232ec:	32e0                	.2byte	0x32e0
   232ee:	0002                	.2byte	0x2
   232f0:	32e8                	.2byte	0x32e8
   232f2:	0002                	.2byte	0x2
   232f4:	32e8                	.2byte	0x32e8
   232f6:	0002                	.2byte	0x2
   232f8:	32f0                	.2byte	0x32f0
   232fa:	0002                	.2byte	0x2
   232fc:	32f0                	.2byte	0x32f0
   232fe:	0002                	.2byte	0x2
   23300:	32f8                	.2byte	0x32f8
   23302:	0002                	.2byte	0x2
   23304:	32f8                	.2byte	0x32f8
   23306:	0002                	.2byte	0x2
   23308:	3300                	.2byte	0x3300
   2330a:	0002                	.2byte	0x2
   2330c:	3300                	.2byte	0x3300
   2330e:	0002                	.2byte	0x2
   23310:	3308                	.2byte	0x3308
   23312:	0002                	.2byte	0x2
   23314:	3308                	.2byte	0x3308
   23316:	0002                	.2byte	0x2
   23318:	3310                	.2byte	0x3310
   2331a:	0002                	.2byte	0x2
   2331c:	3310                	.2byte	0x3310
   2331e:	0002                	.2byte	0x2
   23320:	3318                	.2byte	0x3318
   23322:	0002                	.2byte	0x2
   23324:	3318                	.2byte	0x3318
   23326:	0002                	.2byte	0x2
   23328:	3320                	.2byte	0x3320
   2332a:	0002                	.2byte	0x2
   2332c:	3320                	.2byte	0x3320
   2332e:	0002                	.2byte	0x2
   23330:	3328                	.2byte	0x3328
   23332:	0002                	.2byte	0x2
   23334:	3328                	.2byte	0x3328
   23336:	0002                	.2byte	0x2
   23338:	3330                	.2byte	0x3330
   2333a:	0002                	.2byte	0x2
   2333c:	3330                	.2byte	0x3330
   2333e:	0002                	.2byte	0x2
   23340:	3338                	.2byte	0x3338
   23342:	0002                	.2byte	0x2
   23344:	3338                	.2byte	0x3338
   23346:	0002                	.2byte	0x2
   23348:	3340                	.2byte	0x3340
   2334a:	0002                	.2byte	0x2
   2334c:	3340                	.2byte	0x3340
   2334e:	0002                	.2byte	0x2
   23350:	3348                	.2byte	0x3348
   23352:	0002                	.2byte	0x2
   23354:	3348                	.2byte	0x3348
   23356:	0002                	.2byte	0x2
   23358:	3350                	.2byte	0x3350
   2335a:	0002                	.2byte	0x2
   2335c:	3350                	.2byte	0x3350
   2335e:	0002                	.2byte	0x2
   23360:	3358                	.2byte	0x3358
   23362:	0002                	.2byte	0x2
   23364:	3358                	.2byte	0x3358
   23366:	0002                	.2byte	0x2
   23368:	3360                	.2byte	0x3360
   2336a:	0002                	.2byte	0x2
   2336c:	3360                	.2byte	0x3360
   2336e:	0002                	.2byte	0x2
   23370:	3368                	.2byte	0x3368
   23372:	0002                	.2byte	0x2
   23374:	3368                	.2byte	0x3368
   23376:	0002                	.2byte	0x2
   23378:	3370                	.2byte	0x3370
   2337a:	0002                	.2byte	0x2
   2337c:	3370                	.2byte	0x3370
   2337e:	0002                	.2byte	0x2
   23380:	3378                	.2byte	0x3378
   23382:	0002                	.2byte	0x2
   23384:	3378                	.2byte	0x3378
   23386:	0002                	.2byte	0x2
   23388:	3380                	.2byte	0x3380
   2338a:	0002                	.2byte	0x2
   2338c:	3380                	.2byte	0x3380
   2338e:	0002                	.2byte	0x2
   23390:	3388                	.2byte	0x3388
   23392:	0002                	.2byte	0x2
   23394:	3388                	.2byte	0x3388
   23396:	0002                	.2byte	0x2
   23398:	3390                	.2byte	0x3390
   2339a:	0002                	.2byte	0x2
   2339c:	3390                	.2byte	0x3390
   2339e:	0002                	.2byte	0x2
   233a0:	3398                	.2byte	0x3398
   233a2:	0002                	.2byte	0x2
   233a4:	3398                	.2byte	0x3398
   233a6:	0002                	.2byte	0x2
   233a8:	33a0                	.2byte	0x33a0
   233aa:	0002                	.2byte	0x2
   233ac:	33a0                	.2byte	0x33a0
   233ae:	0002                	.2byte	0x2
   233b0:	33a8                	.2byte	0x33a8
   233b2:	0002                	.2byte	0x2
   233b4:	33a8                	.2byte	0x33a8
   233b6:	0002                	.2byte	0x2
   233b8:	33b0                	.2byte	0x33b0
   233ba:	0002                	.2byte	0x2
   233bc:	33b0                	.2byte	0x33b0
   233be:	0002                	.2byte	0x2
   233c0:	33b8                	.2byte	0x33b8
   233c2:	0002                	.2byte	0x2
   233c4:	33b8                	.2byte	0x33b8
   233c6:	0002                	.2byte	0x2
   233c8:	33c0                	.2byte	0x33c0
   233ca:	0002                	.2byte	0x2
   233cc:	33c0                	.2byte	0x33c0
   233ce:	0002                	.2byte	0x2
   233d0:	33c8                	.2byte	0x33c8
   233d2:	0002                	.2byte	0x2
   233d4:	33c8                	.2byte	0x33c8
   233d6:	0002                	.2byte	0x2
   233d8:	33d0                	.2byte	0x33d0
   233da:	0002                	.2byte	0x2
   233dc:	33d0                	.2byte	0x33d0
   233de:	0002                	.2byte	0x2
   233e0:	33d8                	.2byte	0x33d8
   233e2:	0002                	.2byte	0x2
   233e4:	33d8                	.2byte	0x33d8
   233e6:	0002                	.2byte	0x2
   233e8:	33e0                	.2byte	0x33e0
   233ea:	0002                	.2byte	0x2
   233ec:	33e0                	.2byte	0x33e0
   233ee:	0002                	.2byte	0x2
   233f0:	33e8                	.2byte	0x33e8
   233f2:	0002                	.2byte	0x2
   233f4:	33e8                	.2byte	0x33e8
   233f6:	0002                	.2byte	0x2
   233f8:	33f0                	.2byte	0x33f0
   233fa:	0002                	.2byte	0x2
   233fc:	33f0                	.2byte	0x33f0
   233fe:	0002                	.2byte	0x2
   23400:	33f8                	.2byte	0x33f8
   23402:	0002                	.2byte	0x2
   23404:	33f8                	.2byte	0x33f8
   23406:	0002                	.2byte	0x2
   23408:	3400                	.2byte	0x3400
   2340a:	0002                	.2byte	0x2
   2340c:	3400                	.2byte	0x3400
   2340e:	0002                	.2byte	0x2
   23410:	3408                	.2byte	0x3408
   23412:	0002                	.2byte	0x2
   23414:	3408                	.2byte	0x3408
   23416:	0002                	.2byte	0x2
   23418:	3410                	.2byte	0x3410
   2341a:	0002                	.2byte	0x2
   2341c:	3410                	.2byte	0x3410
   2341e:	0002                	.2byte	0x2
   23420:	3418                	.2byte	0x3418
   23422:	0002                	.2byte	0x2
   23424:	3418                	.2byte	0x3418
   23426:	0002                	.2byte	0x2
   23428:	3420                	.2byte	0x3420
   2342a:	0002                	.2byte	0x2
   2342c:	3420                	.2byte	0x3420
   2342e:	0002                	.2byte	0x2
   23430:	3428                	.2byte	0x3428
   23432:	0002                	.2byte	0x2
   23434:	3428                	.2byte	0x3428
   23436:	0002                	.2byte	0x2
   23438:	3430                	.2byte	0x3430
   2343a:	0002                	.2byte	0x2
   2343c:	3430                	.2byte	0x3430
   2343e:	0002                	.2byte	0x2
   23440:	3438                	.2byte	0x3438
   23442:	0002                	.2byte	0x2
   23444:	3438                	.2byte	0x3438
   23446:	0002                	.2byte	0x2
   23448:	3440                	.2byte	0x3440
   2344a:	0002                	.2byte	0x2
   2344c:	3440                	.2byte	0x3440
   2344e:	0002                	.2byte	0x2
   23450:	3448                	.2byte	0x3448
   23452:	0002                	.2byte	0x2
   23454:	3448                	.2byte	0x3448
   23456:	0002                	.2byte	0x2
   23458:	3450                	.2byte	0x3450
   2345a:	0002                	.2byte	0x2
   2345c:	3450                	.2byte	0x3450
   2345e:	0002                	.2byte	0x2
   23460:	3458                	.2byte	0x3458
   23462:	0002                	.2byte	0x2
   23464:	3458                	.2byte	0x3458
   23466:	0002                	.2byte	0x2
   23468:	3460                	.2byte	0x3460
   2346a:	0002                	.2byte	0x2
   2346c:	3460                	.2byte	0x3460
   2346e:	0002                	.2byte	0x2
   23470:	3468                	.2byte	0x3468
   23472:	0002                	.2byte	0x2
   23474:	3468                	.2byte	0x3468
   23476:	0002                	.2byte	0x2
   23478:	3470                	.2byte	0x3470
   2347a:	0002                	.2byte	0x2
   2347c:	3470                	.2byte	0x3470
   2347e:	0002                	.2byte	0x2
   23480:	3478                	.2byte	0x3478
   23482:	0002                	.2byte	0x2
   23484:	3478                	.2byte	0x3478
   23486:	0002                	.2byte	0x2
   23488:	3480                	.2byte	0x3480
   2348a:	0002                	.2byte	0x2
   2348c:	3480                	.2byte	0x3480
   2348e:	0002                	.2byte	0x2
   23490:	3488                	.2byte	0x3488
   23492:	0002                	.2byte	0x2
   23494:	3488                	.2byte	0x3488
   23496:	0002                	.2byte	0x2
   23498:	3490                	.2byte	0x3490
   2349a:	0002                	.2byte	0x2
   2349c:	3490                	.2byte	0x3490
   2349e:	0002                	.2byte	0x2
   234a0:	3498                	.2byte	0x3498
   234a2:	0002                	.2byte	0x2
   234a4:	3498                	.2byte	0x3498
   234a6:	0002                	.2byte	0x2
   234a8:	34a0                	.2byte	0x34a0
   234aa:	0002                	.2byte	0x2
   234ac:	34a0                	.2byte	0x34a0
   234ae:	0002                	.2byte	0x2
   234b0:	34a8                	.2byte	0x34a8
   234b2:	0002                	.2byte	0x2
   234b4:	34a8                	.2byte	0x34a8
   234b6:	0002                	.2byte	0x2
   234b8:	34b0                	.2byte	0x34b0
   234ba:	0002                	.2byte	0x2
   234bc:	34b0                	.2byte	0x34b0
   234be:	0002                	.2byte	0x2
   234c0:	34b8                	.2byte	0x34b8
   234c2:	0002                	.2byte	0x2
   234c4:	34b8                	.2byte	0x34b8
   234c6:	0002                	.2byte	0x2
   234c8:	34c0                	.2byte	0x34c0
   234ca:	0002                	.2byte	0x2
   234cc:	34c0                	.2byte	0x34c0
   234ce:	0002                	.2byte	0x2
   234d0:	34c8                	.2byte	0x34c8
   234d2:	0002                	.2byte	0x2
   234d4:	34c8                	.2byte	0x34c8
   234d6:	0002                	.2byte	0x2
   234d8:	34d0                	.2byte	0x34d0
   234da:	0002                	.2byte	0x2
   234dc:	34d0                	.2byte	0x34d0
   234de:	0002                	.2byte	0x2
   234e0:	34d8                	.2byte	0x34d8
   234e2:	0002                	.2byte	0x2
   234e4:	34d8                	.2byte	0x34d8
   234e6:	0002                	.2byte	0x2
   234e8:	34e0                	.2byte	0x34e0
   234ea:	0002                	.2byte	0x2
   234ec:	34e0                	.2byte	0x34e0
   234ee:	0002                	.2byte	0x2
   234f0:	34e8                	.2byte	0x34e8
   234f2:	0002                	.2byte	0x2
   234f4:	34e8                	.2byte	0x34e8
   234f6:	0002                	.2byte	0x2
   234f8:	34f0                	.2byte	0x34f0
   234fa:	0002                	.2byte	0x2
   234fc:	34f0                	.2byte	0x34f0
   234fe:	0002                	.2byte	0x2
   23500:	34f8                	.2byte	0x34f8
   23502:	0002                	.2byte	0x2
   23504:	34f8                	.2byte	0x34f8
   23506:	0002                	.2byte	0x2
   23508:	3500                	.2byte	0x3500
   2350a:	0002                	.2byte	0x2
   2350c:	3500                	.2byte	0x3500
   2350e:	0002                	.2byte	0x2
   23510:	3508                	.2byte	0x3508
   23512:	0002                	.2byte	0x2
   23514:	3508                	.2byte	0x3508
   23516:	0002                	.2byte	0x2
   23518:	3510                	.2byte	0x3510
   2351a:	0002                	.2byte	0x2
   2351c:	3510                	.2byte	0x3510
   2351e:	0002                	.2byte	0x2
   23520:	3518                	.2byte	0x3518
   23522:	0002                	.2byte	0x2
   23524:	3518                	.2byte	0x3518
   23526:	0002                	.2byte	0x2
   23528:	3520                	.2byte	0x3520
   2352a:	0002                	.2byte	0x2
   2352c:	3520                	.2byte	0x3520
   2352e:	0002                	.2byte	0x2
   23530:	3528                	.2byte	0x3528
   23532:	0002                	.2byte	0x2
   23534:	3528                	.2byte	0x3528
   23536:	0002                	.2byte	0x2
   23538:	3530                	.2byte	0x3530
   2353a:	0002                	.2byte	0x2
   2353c:	3530                	.2byte	0x3530
   2353e:	0002                	.2byte	0x2
   23540:	3538                	.2byte	0x3538
   23542:	0002                	.2byte	0x2
   23544:	3538                	.2byte	0x3538
   23546:	0002                	.2byte	0x2
   23548:	3540                	.2byte	0x3540
   2354a:	0002                	.2byte	0x2
   2354c:	3540                	.2byte	0x3540
   2354e:	0002                	.2byte	0x2
   23550:	3548                	.2byte	0x3548
   23552:	0002                	.2byte	0x2
   23554:	3548                	.2byte	0x3548
   23556:	0002                	.2byte	0x2
   23558:	3550                	.2byte	0x3550
   2355a:	0002                	.2byte	0x2
   2355c:	3550                	.2byte	0x3550
   2355e:	0002                	.2byte	0x2
   23560:	3558                	.2byte	0x3558
   23562:	0002                	.2byte	0x2
   23564:	3558                	.2byte	0x3558
   23566:	0002                	.2byte	0x2
   23568:	3560                	.2byte	0x3560
   2356a:	0002                	.2byte	0x2
   2356c:	3560                	.2byte	0x3560
   2356e:	0002                	.2byte	0x2
   23570:	3568                	.2byte	0x3568
   23572:	0002                	.2byte	0x2
   23574:	3568                	.2byte	0x3568
   23576:	0002                	.2byte	0x2
   23578:	3570                	.2byte	0x3570
   2357a:	0002                	.2byte	0x2
   2357c:	3570                	.2byte	0x3570
   2357e:	0002                	.2byte	0x2
   23580:	3578                	.2byte	0x3578
   23582:	0002                	.2byte	0x2
   23584:	3578                	.2byte	0x3578
   23586:	0002                	.2byte	0x2
   23588:	3580                	.2byte	0x3580
   2358a:	0002                	.2byte	0x2
   2358c:	3580                	.2byte	0x3580
   2358e:	0002                	.2byte	0x2
   23590:	3588                	.2byte	0x3588
   23592:	0002                	.2byte	0x2
   23594:	3588                	.2byte	0x3588
   23596:	0002                	.2byte	0x2
   23598:	3590                	.2byte	0x3590
   2359a:	0002                	.2byte	0x2
   2359c:	3590                	.2byte	0x3590
   2359e:	0002                	.2byte	0x2
   235a0:	3598                	.2byte	0x3598
   235a2:	0002                	.2byte	0x2
   235a4:	3598                	.2byte	0x3598
   235a6:	0002                	.2byte	0x2
   235a8:	35a0                	.2byte	0x35a0
   235aa:	0002                	.2byte	0x2
   235ac:	35a0                	.2byte	0x35a0
   235ae:	0002                	.2byte	0x2
   235b0:	35a8                	.2byte	0x35a8
   235b2:	0002                	.2byte	0x2
   235b4:	35a8                	.2byte	0x35a8
   235b6:	0002                	.2byte	0x2
   235b8:	35b0                	.2byte	0x35b0
   235ba:	0002                	.2byte	0x2
   235bc:	35b0                	.2byte	0x35b0
   235be:	0002                	.2byte	0x2
   235c0:	35b8                	.2byte	0x35b8
   235c2:	0002                	.2byte	0x2
   235c4:	35b8                	.2byte	0x35b8
   235c6:	0002                	.2byte	0x2
   235c8:	35c0                	.2byte	0x35c0
   235ca:	0002                	.2byte	0x2
   235cc:	35c0                	.2byte	0x35c0
   235ce:	0002                	.2byte	0x2
   235d0:	35c8                	.2byte	0x35c8
   235d2:	0002                	.2byte	0x2
   235d4:	35c8                	.2byte	0x35c8
   235d6:	0002                	.2byte	0x2
   235d8:	35d0                	.2byte	0x35d0
   235da:	0002                	.2byte	0x2
   235dc:	35d0                	.2byte	0x35d0
   235de:	0002                	.2byte	0x2
   235e0:	35d8                	.2byte	0x35d8
   235e2:	0002                	.2byte	0x2
   235e4:	35d8                	.2byte	0x35d8
   235e6:	0002                	.2byte	0x2
   235e8:	35e0                	.2byte	0x35e0
   235ea:	0002                	.2byte	0x2
   235ec:	35e0                	.2byte	0x35e0
   235ee:	0002                	.2byte	0x2
   235f0:	35e8                	.2byte	0x35e8
   235f2:	0002                	.2byte	0x2
   235f4:	35e8                	.2byte	0x35e8
   235f6:	0002                	.2byte	0x2

000235f8 <__global_locale>:
   235f8:	00000043          	.4byte	0x43
	...
   23618:	00000043          	.4byte	0x43
	...
   23638:	00000043          	.4byte	0x43
	...
   23658:	00000043          	.4byte	0x43
	...
   23678:	00000043          	.4byte	0x43
	...
   23698:	00000043          	.4byte	0x43
	...
   236b8:	00000043          	.4byte	0x43
	...
   236d8:	ac50                	.2byte	0xac50
   236da:	0001                	.2byte	0x1
   236dc:	93d4                	.2byte	0x93d4
   236de:	0001                	.2byte	0x1
   236e0:	0000                	.2byte	0x0
   236e2:	0000                	.2byte	0x0
   236e4:	2498                	.2byte	0x2498
   236e6:	0002                	.2byte	0x2
   236e8:	2298                	.2byte	0x2298
   236ea:	0002                	.2byte	0x2
   236ec:	25a8                	.2byte	0x25a8
   236ee:	0002                	.2byte	0x2
   236f0:	25a8                	.2byte	0x25a8
   236f2:	0002                	.2byte	0x2
   236f4:	25a8                	.2byte	0x25a8
   236f6:	0002                	.2byte	0x2
   236f8:	25a8                	.2byte	0x25a8
   236fa:	0002                	.2byte	0x2
   236fc:	25a8                	.2byte	0x25a8
   236fe:	0002                	.2byte	0x2
   23700:	25a8                	.2byte	0x25a8
   23702:	0002                	.2byte	0x2
   23704:	25a8                	.2byte	0x25a8
   23706:	0002                	.2byte	0x2
   23708:	25a8                	.2byte	0x25a8
   2370a:	0002                	.2byte	0x2
   2370c:	25a8                	.2byte	0x25a8
   2370e:	0002                	.2byte	0x2
   23710:	ffff                	.2byte	0xffff
   23712:	ffff                	.2byte	0xffff
   23714:	ffff                	.2byte	0xffff
   23716:	ffff                	.2byte	0xffff
   23718:	ffff                	.2byte	0xffff
   2371a:	ffff                	.2byte	0xffff
   2371c:	ffff                	.2byte	0xffff
   2371e:	0000                	.2byte	0x0
   23720:	0001                	.2byte	0x1
   23722:	5341                	.2byte	0x5341
   23724:	00494943          	.4byte	0x494943
	...
   23740:	0000                	.2byte	0x0
   23742:	5341                	.2byte	0x5341
   23744:	00494943          	.4byte	0x494943
	...

Disassembly of section .sdata:

00023768 <__SDATA_BEGIN__>:
   23768:	0000                	.2byte	0x0
   2376a:	0000                	.2byte	0x0
   2376c:	0000                	.2byte	0x0
   2376e:	3ff8                	.2byte	0x3ff8
   23770:	4361                	.2byte	0x4361
   23772:	87a7636f          	jal	t1,fff997ec <__BSS_END__+0xfff75ce8>
   23776:	3fd2                	.2byte	0x3fd2
   23778:	8b60c8b3          	.4byte	0x8b60c8b3
   2377c:	8a28                	.2byte	0x8a28
   2377e:	3fc6                	.2byte	0x3fc6
   23780:	509f79fb          	.4byte	0x509f79fb
   23784:	3fd34413          	xori	s0,t1,1021
   23788:	fa04                	.2byte	0xfa04
   2378a:	9d7d                	.2byte	0x9d7d
   2378c:	2d16                	.2byte	0x2d16
   2378e:	3c94                	.2byte	0x3c94
   23790:	5a32                	.2byte	0x5a32
   23792:	44135547          	.4byte	0x44135547
   23796:	00003fd3          	.4byte	0x3fd3
   2379a:	0000                	.2byte	0x0
   2379c:	0000                	.2byte	0x0
   2379e:	3ff0                	.2byte	0x3ff0
   237a0:	0000                	.2byte	0x0
   237a2:	0000                	.2byte	0x0
   237a4:	0000                	.2byte	0x0
   237a6:	4024                	.2byte	0x4024
   237a8:	0000                	.2byte	0x0
   237aa:	0000                	.2byte	0x0
   237ac:	0000                	.2byte	0x0
   237ae:	4008                	.2byte	0x4008
   237b0:	0000                	.2byte	0x0
   237b2:	0000                	.2byte	0x0
   237b4:	0000                	.2byte	0x0
   237b6:	401c                	.2byte	0x401c
   237b8:	0000                	.2byte	0x0
   237ba:	0000                	.2byte	0x0
   237bc:	0000                	.2byte	0x0
   237be:	4014                	.2byte	0x4014
   237c0:	0000                	.2byte	0x0
   237c2:	0000                	.2byte	0x0
   237c4:	0000                	.2byte	0x0
   237c6:	3fe0                	.2byte	0x3fe0

000237c8 <__dso_handle>:
   237c8:	0000                	.2byte	0x0
	...

000237cc <_impure_ptr>:
   237cc:	30d0                	.2byte	0x30d0
   237ce:	0002                	.2byte	0x2

000237d0 <__malloc_sbrk_base>:
   237d0:	ffff                	.2byte	0xffff
   237d2:	ffff                	.2byte	0xffff

000237d4 <__malloc_trim_threshold>:
   237d4:	0000                	.2byte	0x0
   237d6:	0002                	.2byte	0x2

Disassembly of section .sbss:

000237d8 <__stdio_exit_handler>:
   237d8:	0000                	.2byte	0x0
	...

000237dc <errno>:
   237dc:	0000                	.2byte	0x0
	...

000237e0 <__atexit>:
   237e0:	0000                	.2byte	0x0
	...

000237e4 <__malloc_max_total_mem>:
   237e4:	0000                	.2byte	0x0
	...

000237e8 <__malloc_max_sbrked_mem>:
   237e8:	0000                	.2byte	0x0
	...

000237ec <__malloc_top_pad>:
   237ec:	0000                	.2byte	0x0
	...

000237f0 <_PathLocale>:
   237f0:	0000                	.2byte	0x0
	...

000237f4 <heap_end.0>:
   237f4:	0000                	.2byte	0x0
	...

Disassembly of section .bss:

000237f8 <completed.1>:
   237f8:	0000                	.2byte	0x0
	...

000237fc <object.0>:
	...

00023814 <__sf>:
	...

0002394c <__malloc_current_mallinfo>:
	...

00023974 <__atexit0>:
	...

Disassembly of section .comment:

00000000 <.comment>:
   0:	3a434347          	.4byte	0x3a434347
   4:	2820                	.2byte	0x2820
   6:	2029                	.2byte	0x2029
   8:	3231                	.2byte	0x3231
   a:	322e                	.2byte	0x322e
   c:	312e                	.2byte	0x312e
   e:	3220                	.2byte	0x3220
  10:	3230                	.2byte	0x3230
  12:	3132                	.2byte	0x3132
  14:	3031                	.2byte	0x3031
  16:	0031                	.2byte	0x31
  18:	3a434347          	.4byte	0x3a434347
  1c:	2820                	.2byte	0x2820
  1e:	29554e47          	.4byte	0x29554e47
  22:	3120                	.2byte	0x3120
  24:	2e32                	.2byte	0x2e32
  26:	2e32                	.2byte	0x2e32
  28:	2031                	.2byte	0x2031
  2a:	3032                	.2byte	0x3032
  2c:	3232                	.2byte	0x3232
  2e:	3131                	.2byte	0x3131
  30:	3130                	.2byte	0x3130
	...

Disassembly of section .riscv.attributes:

00000000 <.riscv.attributes>:
   0:	1b41                	.2byte	0x1b41
   2:	0000                	.2byte	0x0
   4:	7200                	.2byte	0x7200
   6:	7369                	.2byte	0x7369
   8:	01007663          	bgeu	zero,a6,14 <exit-0x10080>
   c:	0011                	.2byte	0x11
   e:	0000                	.2byte	0x0
  10:	1004                	.2byte	0x1004
  12:	7205                	.2byte	0x7205
  14:	3376                	.2byte	0x3376
  16:	6932                	.2byte	0x6932
  18:	7032                	.2byte	0x7032
  1a:	0031                	.2byte	0x31
