
lab1.elf:     file format elf32-littleriscv


Disassembly of section .text:

00010094 <exit>:
   10094:	ff010113          	addi	sp,sp,-16
   10098:	00000593          	li	a1,0
   1009c:	00812423          	sw	s0,8(sp)
   100a0:	00112623          	sw	ra,12(sp)
   100a4:	00050413          	mv	s0,a0
   100a8:	5e1000ef          	jal	ra,10e88 <__call_exitprocs>
   100ac:	f181a783          	lw	a5,-232(gp) # 237d8 <__stdio_exit_handler>
   100b0:	00078463          	beqz	a5,100b8 <exit+0x24>
   100b4:	000780e7          	jalr	a5
   100b8:	00040513          	mv	a0,s0
   100bc:	1cd0b0ef          	jal	ra,1ba88 <_exit>

000100c0 <register_fini>:
   100c0:	00000793          	li	a5,0
   100c4:	00078863          	beqz	a5,100d4 <register_fini+0x14>
   100c8:	00007517          	auipc	a0,0x7
   100cc:	98850513          	addi	a0,a0,-1656 # 16a50 <__libc_fini_array>
   100d0:	6d90006f          	j	10fa8 <atexit>
   100d4:	00008067          	ret

000100d8 <_start>:
   100d8:	00013197          	auipc	gp,0x13
   100dc:	7e818193          	addi	gp,gp,2024 # 238c0 <__global_pointer$>
   100e0:	f1818513          	addi	a0,gp,-232 # 237d8 <__stdio_exit_handler>
   100e4:	24418613          	addi	a2,gp,580 # 23b04 <__BSS_END__>
   100e8:	40a60633          	sub	a2,a2,a0
   100ec:	00000593          	li	a1,0
   100f0:	319000ef          	jal	ra,10c08 <memset>
   100f4:	00001517          	auipc	a0,0x1
   100f8:	eb450513          	addi	a0,a0,-332 # 10fa8 <atexit>
   100fc:	00050863          	beqz	a0,1010c <_start+0x34>
   10100:	00007517          	auipc	a0,0x7
   10104:	95050513          	addi	a0,a0,-1712 # 16a50 <__libc_fini_array>
   10108:	6a1000ef          	jal	ra,10fa8 <atexit>
   1010c:	269000ef          	jal	ra,10b74 <__libc_init_array>
   10110:	00012503          	lw	a0,0(sp)
   10114:	00410593          	addi	a1,sp,4
   10118:	00000613          	li	a2,0
   1011c:	180000ef          	jal	ra,1029c <main>
   10120:	f75ff06f          	j	10094 <exit>

00010124 <__do_global_dtors_aux>:
   10124:	ff010113          	addi	sp,sp,-16
   10128:	00812423          	sw	s0,8(sp)
   1012c:	f3818413          	addi	s0,gp,-200 # 237f8 <completed.1>
   10130:	00044783          	lbu	a5,0(s0)
   10134:	00112623          	sw	ra,12(sp)
   10138:	02079263          	bnez	a5,1015c <__do_global_dtors_aux+0x38>
   1013c:	00000793          	li	a5,0
   10140:	00078a63          	beqz	a5,10154 <__do_global_dtors_aux+0x30>
   10144:	00013517          	auipc	a0,0x13
   10148:	ebc50513          	addi	a0,a0,-324 # 23000 <__EH_FRAME_BEGIN__>
   1014c:	00000097          	auipc	ra,0x0
   10150:	000000e7          	jalr	zero # 0 <exit-0x10094>
   10154:	00100793          	li	a5,1
   10158:	00f40023          	sb	a5,0(s0)
   1015c:	00c12083          	lw	ra,12(sp)
   10160:	00812403          	lw	s0,8(sp)
   10164:	01010113          	addi	sp,sp,16
   10168:	00008067          	ret

0001016c <frame_dummy>:
   1016c:	00000793          	li	a5,0
   10170:	00078c63          	beqz	a5,10188 <frame_dummy+0x1c>
   10174:	f3c18593          	addi	a1,gp,-196 # 237fc <object.0>
   10178:	00013517          	auipc	a0,0x13
   1017c:	e8850513          	addi	a0,a0,-376 # 23000 <__EH_FRAME_BEGIN__>
   10180:	00000317          	auipc	t1,0x0
   10184:	00000067          	jr	zero # 0 <exit-0x10094>
   10188:	00008067          	ret

0001018c <countPositiveAndNegative>:
   1018c:	fd010113          	addi	sp,sp,-48
   10190:	02812623          	sw	s0,44(sp)
   10194:	03010413          	addi	s0,sp,48
   10198:	fca42e23          	sw	a0,-36(s0)
   1019c:	fcb42c23          	sw	a1,-40(s0)
   101a0:	fcc42a23          	sw	a2,-44(s0)
   101a4:	fd842783          	lw	a5,-40(s0)
   101a8:	0007a023          	sw	zero,0(a5)
   101ac:	fd442783          	lw	a5,-44(s0)
   101b0:	0007a023          	sw	zero,0(a5)
   101b4:	fe042623          	sw	zero,-20(s0)
   101b8:	0c40006f          	j	1027c <countPositiveAndNegative+0xf0>
   101bc:	fe042423          	sw	zero,-24(s0)
   101c0:	0a40006f          	j	10264 <countPositiveAndNegative+0xd8>
   101c4:	fec42703          	lw	a4,-20(s0)
   101c8:	00070793          	mv	a5,a4
   101cc:	00279793          	slli	a5,a5,0x2
   101d0:	00e787b3          	add	a5,a5,a4
   101d4:	00279793          	slli	a5,a5,0x2
   101d8:	00078713          	mv	a4,a5
   101dc:	fdc42783          	lw	a5,-36(s0)
   101e0:	00e78733          	add	a4,a5,a4
   101e4:	fe842783          	lw	a5,-24(s0)
   101e8:	00279793          	slli	a5,a5,0x2
   101ec:	00f707b3          	add	a5,a4,a5
   101f0:	0007a783          	lw	a5,0(a5)
   101f4:	00f05e63          	blez	a5,10210 <countPositiveAndNegative+0x84>
   101f8:	fd842783          	lw	a5,-40(s0)
   101fc:	0007a783          	lw	a5,0(a5)
   10200:	00178713          	addi	a4,a5,1
   10204:	fd842783          	lw	a5,-40(s0)
   10208:	00e7a023          	sw	a4,0(a5)
   1020c:	04c0006f          	j	10258 <countPositiveAndNegative+0xcc>
   10210:	fec42703          	lw	a4,-20(s0)
   10214:	00070793          	mv	a5,a4
   10218:	00279793          	slli	a5,a5,0x2
   1021c:	00e787b3          	add	a5,a5,a4
   10220:	00279793          	slli	a5,a5,0x2
   10224:	00078713          	mv	a4,a5
   10228:	fdc42783          	lw	a5,-36(s0)
   1022c:	00e78733          	add	a4,a5,a4
   10230:	fe842783          	lw	a5,-24(s0)
   10234:	00279793          	slli	a5,a5,0x2
   10238:	00f707b3          	add	a5,a4,a5
   1023c:	0007a783          	lw	a5,0(a5)
   10240:	0007dc63          	bgez	a5,10258 <countPositiveAndNegative+0xcc>
   10244:	fd442783          	lw	a5,-44(s0)
   10248:	0007a783          	lw	a5,0(a5)
   1024c:	00178713          	addi	a4,a5,1
   10250:	fd442783          	lw	a5,-44(s0)
   10254:	00e7a023          	sw	a4,0(a5)
   10258:	fe842783          	lw	a5,-24(s0)
   1025c:	00178793          	addi	a5,a5,1
   10260:	fef42423          	sw	a5,-24(s0)
   10264:	fe842703          	lw	a4,-24(s0)
   10268:	00400793          	li	a5,4
   1026c:	f4e7dce3          	bge	a5,a4,101c4 <countPositiveAndNegative+0x38>
   10270:	fec42783          	lw	a5,-20(s0)
   10274:	00178793          	addi	a5,a5,1
   10278:	fef42623          	sw	a5,-20(s0)
   1027c:	fec42703          	lw	a4,-20(s0)
   10280:	00500793          	li	a5,5
   10284:	f2e7dce3          	bge	a5,a4,101bc <countPositiveAndNegative+0x30>
   10288:	00000013          	nop
   1028c:	00000013          	nop
   10290:	02c12403          	lw	s0,44(sp)
   10294:	03010113          	addi	sp,sp,48
   10298:	00008067          	ret

0001029c <main>:
   1029c:	f7010113          	addi	sp,sp,-144
   102a0:	08112623          	sw	ra,140(sp)
   102a4:	08812423          	sw	s0,136(sp)
   102a8:	09010413          	addi	s0,sp,144
   102ac:	000227b7          	lui	a5,0x22
   102b0:	df078713          	addi	a4,a5,-528 # 21df0 <__clzsi2+0xd8>
   102b4:	f7840793          	addi	a5,s0,-136
   102b8:	00070693          	mv	a3,a4
   102bc:	07800713          	li	a4,120
   102c0:	00070613          	mv	a2,a4
   102c4:	00068593          	mv	a1,a3
   102c8:	00078513          	mv	a0,a5
   102cc:	219000ef          	jal	ra,10ce4 <memcpy>
   102d0:	f7040693          	addi	a3,s0,-144
   102d4:	f7440713          	addi	a4,s0,-140
   102d8:	f7840793          	addi	a5,s0,-136
   102dc:	00068613          	mv	a2,a3
   102e0:	00070593          	mv	a1,a4
   102e4:	00078513          	mv	a0,a5
   102e8:	ea5ff0ef          	jal	ra,1018c <countPositiveAndNegative>
   102ec:	f7442783          	lw	a5,-140(s0)
   102f0:	00078593          	mv	a1,a5
   102f4:	000227b7          	lui	a5,0x22
   102f8:	d7078513          	addi	a0,a5,-656 # 21d70 <__clzsi2+0x58>
   102fc:	48c000ef          	jal	ra,10788 <printf>
   10300:	f7042783          	lw	a5,-144(s0)
   10304:	00078593          	mv	a1,a5
   10308:	000227b7          	lui	a5,0x22
   1030c:	db078513          	addi	a0,a5,-592 # 21db0 <__clzsi2+0x98>
   10310:	478000ef          	jal	ra,10788 <printf>
   10314:	00000793          	li	a5,0
   10318:	00078513          	mv	a0,a5
   1031c:	08c12083          	lw	ra,140(sp)
   10320:	08812403          	lw	s0,136(sp)
   10324:	09010113          	addi	sp,sp,144
   10328:	00008067          	ret

0001032c <__fp_lock>:
   1032c:	00000513          	li	a0,0
   10330:	00008067          	ret

00010334 <stdio_exit_handler>:
   10334:	00013617          	auipc	a2,0x13
   10338:	d8c60613          	addi	a2,a2,-628 # 230c0 <__sglue>
   1033c:	00006597          	auipc	a1,0x6
   10340:	88458593          	addi	a1,a1,-1916 # 15bc0 <_fclose_r>
   10344:	00013517          	auipc	a0,0x13
   10348:	d8c50513          	addi	a0,a0,-628 # 230d0 <_impure_data>
   1034c:	3480006f          	j	10694 <_fwalk_sglue>

00010350 <cleanup_stdio>:
   10350:	00452583          	lw	a1,4(a0)
   10354:	ff010113          	addi	sp,sp,-16
   10358:	00812423          	sw	s0,8(sp)
   1035c:	00112623          	sw	ra,12(sp)
   10360:	f5418793          	addi	a5,gp,-172 # 23814 <__sf>
   10364:	00050413          	mv	s0,a0
   10368:	00f58463          	beq	a1,a5,10370 <cleanup_stdio+0x20>
   1036c:	055050ef          	jal	ra,15bc0 <_fclose_r>
   10370:	00842583          	lw	a1,8(s0)
   10374:	fbc18793          	addi	a5,gp,-68 # 2387c <__sf+0x68>
   10378:	00f58663          	beq	a1,a5,10384 <cleanup_stdio+0x34>
   1037c:	00040513          	mv	a0,s0
   10380:	041050ef          	jal	ra,15bc0 <_fclose_r>
   10384:	00c42583          	lw	a1,12(s0)
   10388:	02418793          	addi	a5,gp,36 # 238e4 <__global_pointer$+0x24>
   1038c:	00f58c63          	beq	a1,a5,103a4 <cleanup_stdio+0x54>
   10390:	00040513          	mv	a0,s0
   10394:	00812403          	lw	s0,8(sp)
   10398:	00c12083          	lw	ra,12(sp)
   1039c:	01010113          	addi	sp,sp,16
   103a0:	0210506f          	j	15bc0 <_fclose_r>
   103a4:	00c12083          	lw	ra,12(sp)
   103a8:	00812403          	lw	s0,8(sp)
   103ac:	01010113          	addi	sp,sp,16
   103b0:	00008067          	ret

000103b4 <__fp_unlock>:
   103b4:	00000513          	li	a0,0
   103b8:	00008067          	ret

000103bc <global_stdio_init.part.0>:
   103bc:	fe010113          	addi	sp,sp,-32
   103c0:	00000797          	auipc	a5,0x0
   103c4:	f7478793          	addi	a5,a5,-140 # 10334 <stdio_exit_handler>
   103c8:	00112e23          	sw	ra,28(sp)
   103cc:	00812c23          	sw	s0,24(sp)
   103d0:	00912a23          	sw	s1,20(sp)
   103d4:	f5418413          	addi	s0,gp,-172 # 23814 <__sf>
   103d8:	01212823          	sw	s2,16(sp)
   103dc:	01312623          	sw	s3,12(sp)
   103e0:	01412423          	sw	s4,8(sp)
   103e4:	00800613          	li	a2,8
   103e8:	00000593          	li	a1,0
   103ec:	f0f1ac23          	sw	a5,-232(gp) # 237d8 <__stdio_exit_handler>
   103f0:	fb018513          	addi	a0,gp,-80 # 23870 <__sf+0x5c>
   103f4:	00400793          	li	a5,4
   103f8:	00f42623          	sw	a5,12(s0)
   103fc:	00042023          	sw	zero,0(s0)
   10400:	00042223          	sw	zero,4(s0)
   10404:	00042423          	sw	zero,8(s0)
   10408:	06042223          	sw	zero,100(s0)
   1040c:	00042823          	sw	zero,16(s0)
   10410:	00042a23          	sw	zero,20(s0)
   10414:	00042c23          	sw	zero,24(s0)
   10418:	7f0000ef          	jal	ra,10c08 <memset>
   1041c:	000107b7          	lui	a5,0x10
   10420:	00000a17          	auipc	s4,0x0
   10424:	3b4a0a13          	addi	s4,s4,948 # 107d4 <__sread>
   10428:	00000997          	auipc	s3,0x0
   1042c:	41098993          	addi	s3,s3,1040 # 10838 <__swrite>
   10430:	00000917          	auipc	s2,0x0
   10434:	49090913          	addi	s2,s2,1168 # 108c0 <__sseek>
   10438:	00000497          	auipc	s1,0x0
   1043c:	50048493          	addi	s1,s1,1280 # 10938 <__sclose>
   10440:	00978793          	addi	a5,a5,9 # 10009 <exit-0x8b>
   10444:	00800613          	li	a2,8
   10448:	00000593          	li	a1,0
   1044c:	01818513          	addi	a0,gp,24 # 238d8 <__global_pointer$+0x18>
   10450:	03442023          	sw	s4,32(s0)
   10454:	03342223          	sw	s3,36(s0)
   10458:	03242423          	sw	s2,40(s0)
   1045c:	02942623          	sw	s1,44(s0)
   10460:	06f42a23          	sw	a5,116(s0)
   10464:	00842e23          	sw	s0,28(s0)
   10468:	06042423          	sw	zero,104(s0)
   1046c:	06042623          	sw	zero,108(s0)
   10470:	06042823          	sw	zero,112(s0)
   10474:	0c042623          	sw	zero,204(s0)
   10478:	06042c23          	sw	zero,120(s0)
   1047c:	06042e23          	sw	zero,124(s0)
   10480:	08042023          	sw	zero,128(s0)
   10484:	784000ef          	jal	ra,10c08 <memset>
   10488:	fbc18793          	addi	a5,gp,-68 # 2387c <__sf+0x68>
   1048c:	08f42223          	sw	a5,132(s0)
   10490:	000207b7          	lui	a5,0x20
   10494:	01278793          	addi	a5,a5,18 # 20012 <__multf3+0x11ce>
   10498:	00800613          	li	a2,8
   1049c:	00000593          	li	a1,0
   104a0:	08018513          	addi	a0,gp,128 # 23940 <__global_pointer$+0x80>
   104a4:	09442423          	sw	s4,136(s0)
   104a8:	09342623          	sw	s3,140(s0)
   104ac:	09242823          	sw	s2,144(s0)
   104b0:	08942a23          	sw	s1,148(s0)
   104b4:	0cf42e23          	sw	a5,220(s0)
   104b8:	0c042823          	sw	zero,208(s0)
   104bc:	0c042a23          	sw	zero,212(s0)
   104c0:	0c042c23          	sw	zero,216(s0)
   104c4:	12042a23          	sw	zero,308(s0)
   104c8:	0e042023          	sw	zero,224(s0)
   104cc:	0e042223          	sw	zero,228(s0)
   104d0:	0e042423          	sw	zero,232(s0)
   104d4:	734000ef          	jal	ra,10c08 <memset>
   104d8:	02418793          	addi	a5,gp,36 # 238e4 <__global_pointer$+0x24>
   104dc:	0f442823          	sw	s4,240(s0)
   104e0:	0f342a23          	sw	s3,244(s0)
   104e4:	0f242c23          	sw	s2,248(s0)
   104e8:	0e942e23          	sw	s1,252(s0)
   104ec:	01c12083          	lw	ra,28(sp)
   104f0:	0ef42623          	sw	a5,236(s0)
   104f4:	01812403          	lw	s0,24(sp)
   104f8:	01412483          	lw	s1,20(sp)
   104fc:	01012903          	lw	s2,16(sp)
   10500:	00c12983          	lw	s3,12(sp)
   10504:	00812a03          	lw	s4,8(sp)
   10508:	02010113          	addi	sp,sp,32
   1050c:	00008067          	ret

00010510 <__sfp>:
   10510:	fe010113          	addi	sp,sp,-32
   10514:	01312623          	sw	s3,12(sp)
   10518:	00112e23          	sw	ra,28(sp)
   1051c:	00812c23          	sw	s0,24(sp)
   10520:	00912a23          	sw	s1,20(sp)
   10524:	01212823          	sw	s2,16(sp)
   10528:	f181a783          	lw	a5,-232(gp) # 237d8 <__stdio_exit_handler>
   1052c:	00050993          	mv	s3,a0
   10530:	0e078863          	beqz	a5,10620 <__sfp+0x110>
   10534:	00013917          	auipc	s2,0x13
   10538:	b8c90913          	addi	s2,s2,-1140 # 230c0 <__sglue>
   1053c:	fff00493          	li	s1,-1
   10540:	00492783          	lw	a5,4(s2)
   10544:	00892403          	lw	s0,8(s2)
   10548:	fff78793          	addi	a5,a5,-1
   1054c:	0007d863          	bgez	a5,1055c <__sfp+0x4c>
   10550:	0800006f          	j	105d0 <__sfp+0xc0>
   10554:	06840413          	addi	s0,s0,104
   10558:	06978c63          	beq	a5,s1,105d0 <__sfp+0xc0>
   1055c:	00c41703          	lh	a4,12(s0)
   10560:	fff78793          	addi	a5,a5,-1
   10564:	fe0718e3          	bnez	a4,10554 <__sfp+0x44>
   10568:	ffff07b7          	lui	a5,0xffff0
   1056c:	00178793          	addi	a5,a5,1 # ffff0001 <__BSS_END__+0xfffcc4fd>
   10570:	00f42623          	sw	a5,12(s0)
   10574:	06042223          	sw	zero,100(s0)
   10578:	00042023          	sw	zero,0(s0)
   1057c:	00042423          	sw	zero,8(s0)
   10580:	00042223          	sw	zero,4(s0)
   10584:	00042823          	sw	zero,16(s0)
   10588:	00042a23          	sw	zero,20(s0)
   1058c:	00042c23          	sw	zero,24(s0)
   10590:	00800613          	li	a2,8
   10594:	00000593          	li	a1,0
   10598:	05c40513          	addi	a0,s0,92
   1059c:	66c000ef          	jal	ra,10c08 <memset>
   105a0:	02042823          	sw	zero,48(s0)
   105a4:	02042a23          	sw	zero,52(s0)
   105a8:	04042223          	sw	zero,68(s0)
   105ac:	04042423          	sw	zero,72(s0)
   105b0:	01c12083          	lw	ra,28(sp)
   105b4:	00040513          	mv	a0,s0
   105b8:	01812403          	lw	s0,24(sp)
   105bc:	01412483          	lw	s1,20(sp)
   105c0:	01012903          	lw	s2,16(sp)
   105c4:	00c12983          	lw	s3,12(sp)
   105c8:	02010113          	addi	sp,sp,32
   105cc:	00008067          	ret
   105d0:	00092403          	lw	s0,0(s2)
   105d4:	00040663          	beqz	s0,105e0 <__sfp+0xd0>
   105d8:	00040913          	mv	s2,s0
   105dc:	f65ff06f          	j	10540 <__sfp+0x30>
   105e0:	1ac00593          	li	a1,428
   105e4:	00098513          	mv	a0,s3
   105e8:	60d000ef          	jal	ra,113f4 <_malloc_r>
   105ec:	00050413          	mv	s0,a0
   105f0:	02050c63          	beqz	a0,10628 <__sfp+0x118>
   105f4:	00c50513          	addi	a0,a0,12
   105f8:	00400793          	li	a5,4
   105fc:	00042023          	sw	zero,0(s0)
   10600:	00f42223          	sw	a5,4(s0)
   10604:	00a42423          	sw	a0,8(s0)
   10608:	1a000613          	li	a2,416
   1060c:	00000593          	li	a1,0
   10610:	5f8000ef          	jal	ra,10c08 <memset>
   10614:	00892023          	sw	s0,0(s2)
   10618:	00040913          	mv	s2,s0
   1061c:	f25ff06f          	j	10540 <__sfp+0x30>
   10620:	d9dff0ef          	jal	ra,103bc <global_stdio_init.part.0>
   10624:	f11ff06f          	j	10534 <__sfp+0x24>
   10628:	00092023          	sw	zero,0(s2)
   1062c:	00c00793          	li	a5,12
   10630:	00f9a023          	sw	a5,0(s3)
   10634:	f7dff06f          	j	105b0 <__sfp+0xa0>

00010638 <__sinit>:
   10638:	03452783          	lw	a5,52(a0)
   1063c:	00078463          	beqz	a5,10644 <__sinit+0xc>
   10640:	00008067          	ret
   10644:	00000797          	auipc	a5,0x0
   10648:	d0c78793          	addi	a5,a5,-756 # 10350 <cleanup_stdio>
   1064c:	02f52a23          	sw	a5,52(a0)
   10650:	f181a783          	lw	a5,-232(gp) # 237d8 <__stdio_exit_handler>
   10654:	fe0796e3          	bnez	a5,10640 <__sinit+0x8>
   10658:	d65ff06f          	j	103bc <global_stdio_init.part.0>

0001065c <__sfp_lock_acquire>:
   1065c:	00008067          	ret

00010660 <__sfp_lock_release>:
   10660:	00008067          	ret

00010664 <__fp_lock_all>:
   10664:	00013617          	auipc	a2,0x13
   10668:	a5c60613          	addi	a2,a2,-1444 # 230c0 <__sglue>
   1066c:	00000597          	auipc	a1,0x0
   10670:	cc058593          	addi	a1,a1,-832 # 1032c <__fp_lock>
   10674:	00000513          	li	a0,0
   10678:	01c0006f          	j	10694 <_fwalk_sglue>

0001067c <__fp_unlock_all>:
   1067c:	00013617          	auipc	a2,0x13
   10680:	a4460613          	addi	a2,a2,-1468 # 230c0 <__sglue>
   10684:	00000597          	auipc	a1,0x0
   10688:	d3058593          	addi	a1,a1,-720 # 103b4 <__fp_unlock>
   1068c:	00000513          	li	a0,0
   10690:	0040006f          	j	10694 <_fwalk_sglue>

00010694 <_fwalk_sglue>:
   10694:	fd010113          	addi	sp,sp,-48
   10698:	03212023          	sw	s2,32(sp)
   1069c:	01312e23          	sw	s3,28(sp)
   106a0:	01412c23          	sw	s4,24(sp)
   106a4:	01512a23          	sw	s5,20(sp)
   106a8:	01612823          	sw	s6,16(sp)
   106ac:	01712623          	sw	s7,12(sp)
   106b0:	02112623          	sw	ra,44(sp)
   106b4:	02812423          	sw	s0,40(sp)
   106b8:	02912223          	sw	s1,36(sp)
   106bc:	00050b13          	mv	s6,a0
   106c0:	00058b93          	mv	s7,a1
   106c4:	00060a93          	mv	s5,a2
   106c8:	00000a13          	li	s4,0
   106cc:	00100993          	li	s3,1
   106d0:	fff00913          	li	s2,-1
   106d4:	004aa483          	lw	s1,4(s5)
   106d8:	008aa403          	lw	s0,8(s5)
   106dc:	fff48493          	addi	s1,s1,-1
   106e0:	0204c863          	bltz	s1,10710 <_fwalk_sglue+0x7c>
   106e4:	00c45783          	lhu	a5,12(s0)
   106e8:	fff48493          	addi	s1,s1,-1
   106ec:	00f9fe63          	bgeu	s3,a5,10708 <_fwalk_sglue+0x74>
   106f0:	00e41783          	lh	a5,14(s0)
   106f4:	00040593          	mv	a1,s0
   106f8:	000b0513          	mv	a0,s6
   106fc:	01278663          	beq	a5,s2,10708 <_fwalk_sglue+0x74>
   10700:	000b80e7          	jalr	s7
   10704:	00aa6a33          	or	s4,s4,a0
   10708:	06840413          	addi	s0,s0,104
   1070c:	fd249ce3          	bne	s1,s2,106e4 <_fwalk_sglue+0x50>
   10710:	000aaa83          	lw	s5,0(s5)
   10714:	fc0a90e3          	bnez	s5,106d4 <_fwalk_sglue+0x40>
   10718:	02c12083          	lw	ra,44(sp)
   1071c:	02812403          	lw	s0,40(sp)
   10720:	02412483          	lw	s1,36(sp)
   10724:	02012903          	lw	s2,32(sp)
   10728:	01c12983          	lw	s3,28(sp)
   1072c:	01412a83          	lw	s5,20(sp)
   10730:	01012b03          	lw	s6,16(sp)
   10734:	00c12b83          	lw	s7,12(sp)
   10738:	000a0513          	mv	a0,s4
   1073c:	01812a03          	lw	s4,24(sp)
   10740:	03010113          	addi	sp,sp,48
   10744:	00008067          	ret

00010748 <_printf_r>:
   10748:	fc010113          	addi	sp,sp,-64
   1074c:	02c12423          	sw	a2,40(sp)
   10750:	02d12623          	sw	a3,44(sp)
   10754:	02e12823          	sw	a4,48(sp)
   10758:	02f12a23          	sw	a5,52(sp)
   1075c:	03012c23          	sw	a6,56(sp)
   10760:	03112e23          	sw	a7,60(sp)
   10764:	00058613          	mv	a2,a1
   10768:	00852583          	lw	a1,8(a0)
   1076c:	02810693          	addi	a3,sp,40
   10770:	00112e23          	sw	ra,28(sp)
   10774:	00d12623          	sw	a3,12(sp)
   10778:	410010ef          	jal	ra,11b88 <_vfprintf_r>
   1077c:	01c12083          	lw	ra,28(sp)
   10780:	04010113          	addi	sp,sp,64
   10784:	00008067          	ret

00010788 <printf>:
   10788:	fc010113          	addi	sp,sp,-64
   1078c:	02c12423          	sw	a2,40(sp)
   10790:	02d12623          	sw	a3,44(sp)
   10794:	f0c1a303          	lw	t1,-244(gp) # 237cc <_impure_ptr>
   10798:	02b12223          	sw	a1,36(sp)
   1079c:	02e12823          	sw	a4,48(sp)
   107a0:	02f12a23          	sw	a5,52(sp)
   107a4:	03012c23          	sw	a6,56(sp)
   107a8:	03112e23          	sw	a7,60(sp)
   107ac:	00832583          	lw	a1,8(t1) # 10188 <frame_dummy+0x1c>
   107b0:	02410693          	addi	a3,sp,36
   107b4:	00050613          	mv	a2,a0
   107b8:	00030513          	mv	a0,t1
   107bc:	00112e23          	sw	ra,28(sp)
   107c0:	00d12623          	sw	a3,12(sp)
   107c4:	3c4010ef          	jal	ra,11b88 <_vfprintf_r>
   107c8:	01c12083          	lw	ra,28(sp)
   107cc:	04010113          	addi	sp,sp,64
   107d0:	00008067          	ret

000107d4 <__sread>:
   107d4:	ff010113          	addi	sp,sp,-16
   107d8:	00812423          	sw	s0,8(sp)
   107dc:	00058413          	mv	s0,a1
   107e0:	00e59583          	lh	a1,14(a1)
   107e4:	00112623          	sw	ra,12(sp)
   107e8:	2d4000ef          	jal	ra,10abc <_read_r>
   107ec:	02054063          	bltz	a0,1080c <__sread+0x38>
   107f0:	05042783          	lw	a5,80(s0)
   107f4:	00c12083          	lw	ra,12(sp)
   107f8:	00a787b3          	add	a5,a5,a0
   107fc:	04f42823          	sw	a5,80(s0)
   10800:	00812403          	lw	s0,8(sp)
   10804:	01010113          	addi	sp,sp,16
   10808:	00008067          	ret
   1080c:	00c45783          	lhu	a5,12(s0)
   10810:	fffff737          	lui	a4,0xfffff
   10814:	fff70713          	addi	a4,a4,-1 # ffffefff <__BSS_END__+0xfffdb4fb>
   10818:	00e7f7b3          	and	a5,a5,a4
   1081c:	00c12083          	lw	ra,12(sp)
   10820:	00f41623          	sh	a5,12(s0)
   10824:	00812403          	lw	s0,8(sp)
   10828:	01010113          	addi	sp,sp,16
   1082c:	00008067          	ret

00010830 <__seofread>:
   10830:	00000513          	li	a0,0
   10834:	00008067          	ret

00010838 <__swrite>:
   10838:	00c59783          	lh	a5,12(a1)
   1083c:	fe010113          	addi	sp,sp,-32
   10840:	00812c23          	sw	s0,24(sp)
   10844:	00912a23          	sw	s1,20(sp)
   10848:	01212823          	sw	s2,16(sp)
   1084c:	01312623          	sw	s3,12(sp)
   10850:	00112e23          	sw	ra,28(sp)
   10854:	1007f713          	andi	a4,a5,256
   10858:	00058413          	mv	s0,a1
   1085c:	00050493          	mv	s1,a0
   10860:	00060913          	mv	s2,a2
   10864:	00068993          	mv	s3,a3
   10868:	04071063          	bnez	a4,108a8 <__swrite+0x70>
   1086c:	fffff737          	lui	a4,0xfffff
   10870:	fff70713          	addi	a4,a4,-1 # ffffefff <__BSS_END__+0xfffdb4fb>
   10874:	00e7f7b3          	and	a5,a5,a4
   10878:	00e41583          	lh	a1,14(s0)
   1087c:	00f41623          	sh	a5,12(s0)
   10880:	01812403          	lw	s0,24(sp)
   10884:	01c12083          	lw	ra,28(sp)
   10888:	00098693          	mv	a3,s3
   1088c:	00090613          	mv	a2,s2
   10890:	00c12983          	lw	s3,12(sp)
   10894:	01012903          	lw	s2,16(sp)
   10898:	00048513          	mv	a0,s1
   1089c:	01412483          	lw	s1,20(sp)
   108a0:	02010113          	addi	sp,sp,32
   108a4:	2740006f          	j	10b18 <_write_r>
   108a8:	00e59583          	lh	a1,14(a1)
   108ac:	00200693          	li	a3,2
   108b0:	00000613          	li	a2,0
   108b4:	1ac000ef          	jal	ra,10a60 <_lseek_r>
   108b8:	00c41783          	lh	a5,12(s0)
   108bc:	fb1ff06f          	j	1086c <__swrite+0x34>

000108c0 <__sseek>:
   108c0:	ff010113          	addi	sp,sp,-16
   108c4:	00812423          	sw	s0,8(sp)
   108c8:	00058413          	mv	s0,a1
   108cc:	00e59583          	lh	a1,14(a1)
   108d0:	00112623          	sw	ra,12(sp)
   108d4:	18c000ef          	jal	ra,10a60 <_lseek_r>
   108d8:	fff00793          	li	a5,-1
   108dc:	02f50863          	beq	a0,a5,1090c <__sseek+0x4c>
   108e0:	00c45783          	lhu	a5,12(s0)
   108e4:	00001737          	lui	a4,0x1
   108e8:	00c12083          	lw	ra,12(sp)
   108ec:	00e7e7b3          	or	a5,a5,a4
   108f0:	01079793          	slli	a5,a5,0x10
   108f4:	4107d793          	srai	a5,a5,0x10
   108f8:	04a42823          	sw	a0,80(s0)
   108fc:	00f41623          	sh	a5,12(s0)
   10900:	00812403          	lw	s0,8(sp)
   10904:	01010113          	addi	sp,sp,16
   10908:	00008067          	ret
   1090c:	00c45783          	lhu	a5,12(s0)
   10910:	fffff737          	lui	a4,0xfffff
   10914:	fff70713          	addi	a4,a4,-1 # ffffefff <__BSS_END__+0xfffdb4fb>
   10918:	00e7f7b3          	and	a5,a5,a4
   1091c:	01079793          	slli	a5,a5,0x10
   10920:	4107d793          	srai	a5,a5,0x10
   10924:	00c12083          	lw	ra,12(sp)
   10928:	00f41623          	sh	a5,12(s0)
   1092c:	00812403          	lw	s0,8(sp)
   10930:	01010113          	addi	sp,sp,16
   10934:	00008067          	ret

00010938 <__sclose>:
   10938:	00e59583          	lh	a1,14(a1)
   1093c:	0040006f          	j	10940 <_close_r>

00010940 <_close_r>:
   10940:	ff010113          	addi	sp,sp,-16
   10944:	00812423          	sw	s0,8(sp)
   10948:	00050413          	mv	s0,a0
   1094c:	00058513          	mv	a0,a1
   10950:	f001ae23          	sw	zero,-228(gp) # 237dc <errno>
   10954:	00112623          	sw	ra,12(sp)
   10958:	0ec0b0ef          	jal	ra,1ba44 <_close>
   1095c:	fff00793          	li	a5,-1
   10960:	00f50a63          	beq	a0,a5,10974 <_close_r+0x34>
   10964:	00c12083          	lw	ra,12(sp)
   10968:	00812403          	lw	s0,8(sp)
   1096c:	01010113          	addi	sp,sp,16
   10970:	00008067          	ret
   10974:	f1c1a783          	lw	a5,-228(gp) # 237dc <errno>
   10978:	fe0786e3          	beqz	a5,10964 <_close_r+0x24>
   1097c:	00c12083          	lw	ra,12(sp)
   10980:	00f42023          	sw	a5,0(s0)
   10984:	00812403          	lw	s0,8(sp)
   10988:	01010113          	addi	sp,sp,16
   1098c:	00008067          	ret

00010990 <_reclaim_reent>:
   10990:	f0c1a783          	lw	a5,-244(gp) # 237cc <_impure_ptr>
   10994:	0ca78463          	beq	a5,a0,10a5c <_reclaim_reent+0xcc>
   10998:	04452583          	lw	a1,68(a0)
   1099c:	fe010113          	addi	sp,sp,-32
   109a0:	00912a23          	sw	s1,20(sp)
   109a4:	00112e23          	sw	ra,28(sp)
   109a8:	00812c23          	sw	s0,24(sp)
   109ac:	01212823          	sw	s2,16(sp)
   109b0:	01312623          	sw	s3,12(sp)
   109b4:	00050493          	mv	s1,a0
   109b8:	04058063          	beqz	a1,109f8 <_reclaim_reent+0x68>
   109bc:	00000913          	li	s2,0
   109c0:	08000993          	li	s3,128
   109c4:	012587b3          	add	a5,a1,s2
   109c8:	0007a403          	lw	s0,0(a5)
   109cc:	00040e63          	beqz	s0,109e8 <_reclaim_reent+0x58>
   109d0:	00040593          	mv	a1,s0
   109d4:	00042403          	lw	s0,0(s0)
   109d8:	00048513          	mv	a0,s1
   109dc:	714000ef          	jal	ra,110f0 <_free_r>
   109e0:	fe0418e3          	bnez	s0,109d0 <_reclaim_reent+0x40>
   109e4:	0444a583          	lw	a1,68(s1)
   109e8:	00490913          	addi	s2,s2,4
   109ec:	fd391ce3          	bne	s2,s3,109c4 <_reclaim_reent+0x34>
   109f0:	00048513          	mv	a0,s1
   109f4:	6fc000ef          	jal	ra,110f0 <_free_r>
   109f8:	0384a583          	lw	a1,56(s1)
   109fc:	00058663          	beqz	a1,10a08 <_reclaim_reent+0x78>
   10a00:	00048513          	mv	a0,s1
   10a04:	6ec000ef          	jal	ra,110f0 <_free_r>
   10a08:	04c4a583          	lw	a1,76(s1)
   10a0c:	00058663          	beqz	a1,10a18 <_reclaim_reent+0x88>
   10a10:	00048513          	mv	a0,s1
   10a14:	6dc000ef          	jal	ra,110f0 <_free_r>
   10a18:	0344a783          	lw	a5,52(s1)
   10a1c:	02078263          	beqz	a5,10a40 <_reclaim_reent+0xb0>
   10a20:	01812403          	lw	s0,24(sp)
   10a24:	01c12083          	lw	ra,28(sp)
   10a28:	01012903          	lw	s2,16(sp)
   10a2c:	00c12983          	lw	s3,12(sp)
   10a30:	00048513          	mv	a0,s1
   10a34:	01412483          	lw	s1,20(sp)
   10a38:	02010113          	addi	sp,sp,32
   10a3c:	00078067          	jr	a5
   10a40:	01c12083          	lw	ra,28(sp)
   10a44:	01812403          	lw	s0,24(sp)
   10a48:	01412483          	lw	s1,20(sp)
   10a4c:	01012903          	lw	s2,16(sp)
   10a50:	00c12983          	lw	s3,12(sp)
   10a54:	02010113          	addi	sp,sp,32
   10a58:	00008067          	ret
   10a5c:	00008067          	ret

00010a60 <_lseek_r>:
   10a60:	ff010113          	addi	sp,sp,-16
   10a64:	00058713          	mv	a4,a1
   10a68:	00812423          	sw	s0,8(sp)
   10a6c:	00060593          	mv	a1,a2
   10a70:	00050413          	mv	s0,a0
   10a74:	00068613          	mv	a2,a3
   10a78:	00070513          	mv	a0,a4
   10a7c:	f001ae23          	sw	zero,-228(gp) # 237dc <errno>
   10a80:	00112623          	sw	ra,12(sp)
   10a84:	1000b0ef          	jal	ra,1bb84 <_lseek>
   10a88:	fff00793          	li	a5,-1
   10a8c:	00f50a63          	beq	a0,a5,10aa0 <_lseek_r+0x40>
   10a90:	00c12083          	lw	ra,12(sp)
   10a94:	00812403          	lw	s0,8(sp)
   10a98:	01010113          	addi	sp,sp,16
   10a9c:	00008067          	ret
   10aa0:	f1c1a783          	lw	a5,-228(gp) # 237dc <errno>
   10aa4:	fe0786e3          	beqz	a5,10a90 <_lseek_r+0x30>
   10aa8:	00c12083          	lw	ra,12(sp)
   10aac:	00f42023          	sw	a5,0(s0)
   10ab0:	00812403          	lw	s0,8(sp)
   10ab4:	01010113          	addi	sp,sp,16
   10ab8:	00008067          	ret

00010abc <_read_r>:
   10abc:	ff010113          	addi	sp,sp,-16
   10ac0:	00058713          	mv	a4,a1
   10ac4:	00812423          	sw	s0,8(sp)
   10ac8:	00060593          	mv	a1,a2
   10acc:	00050413          	mv	s0,a0
   10ad0:	00068613          	mv	a2,a3
   10ad4:	00070513          	mv	a0,a4
   10ad8:	f001ae23          	sw	zero,-228(gp) # 237dc <errno>
   10adc:	00112623          	sw	ra,12(sp)
   10ae0:	0e80b0ef          	jal	ra,1bbc8 <_read>
   10ae4:	fff00793          	li	a5,-1
   10ae8:	00f50a63          	beq	a0,a5,10afc <_read_r+0x40>
   10aec:	00c12083          	lw	ra,12(sp)
   10af0:	00812403          	lw	s0,8(sp)
   10af4:	01010113          	addi	sp,sp,16
   10af8:	00008067          	ret
   10afc:	f1c1a783          	lw	a5,-228(gp) # 237dc <errno>
   10b00:	fe0786e3          	beqz	a5,10aec <_read_r+0x30>
   10b04:	00c12083          	lw	ra,12(sp)
   10b08:	00f42023          	sw	a5,0(s0)
   10b0c:	00812403          	lw	s0,8(sp)
   10b10:	01010113          	addi	sp,sp,16
   10b14:	00008067          	ret

00010b18 <_write_r>:
   10b18:	ff010113          	addi	sp,sp,-16
   10b1c:	00058713          	mv	a4,a1
   10b20:	00812423          	sw	s0,8(sp)
   10b24:	00060593          	mv	a1,a2
   10b28:	00050413          	mv	s0,a0
   10b2c:	00068613          	mv	a2,a3
   10b30:	00070513          	mv	a0,a4
   10b34:	f001ae23          	sw	zero,-228(gp) # 237dc <errno>
   10b38:	00112623          	sw	ra,12(sp)
   10b3c:	14c0b0ef          	jal	ra,1bc88 <_write>
   10b40:	fff00793          	li	a5,-1
   10b44:	00f50a63          	beq	a0,a5,10b58 <_write_r+0x40>
   10b48:	00c12083          	lw	ra,12(sp)
   10b4c:	00812403          	lw	s0,8(sp)
   10b50:	01010113          	addi	sp,sp,16
   10b54:	00008067          	ret
   10b58:	f1c1a783          	lw	a5,-228(gp) # 237dc <errno>
   10b5c:	fe0786e3          	beqz	a5,10b48 <_write_r+0x30>
   10b60:	00c12083          	lw	ra,12(sp)
   10b64:	00f42023          	sw	a5,0(s0)
   10b68:	00812403          	lw	s0,8(sp)
   10b6c:	01010113          	addi	sp,sp,16
   10b70:	00008067          	ret

00010b74 <__libc_init_array>:
   10b74:	ff010113          	addi	sp,sp,-16
   10b78:	00812423          	sw	s0,8(sp)
   10b7c:	01212023          	sw	s2,0(sp)
   10b80:	00012797          	auipc	a5,0x12
   10b84:	53478793          	addi	a5,a5,1332 # 230b4 <__init_array_start>
   10b88:	00012417          	auipc	s0,0x12
   10b8c:	52c40413          	addi	s0,s0,1324 # 230b4 <__init_array_start>
   10b90:	00112623          	sw	ra,12(sp)
   10b94:	00912223          	sw	s1,4(sp)
   10b98:	40878933          	sub	s2,a5,s0
   10b9c:	02878063          	beq	a5,s0,10bbc <__libc_init_array+0x48>
   10ba0:	40295913          	srai	s2,s2,0x2
   10ba4:	00000493          	li	s1,0
   10ba8:	00042783          	lw	a5,0(s0)
   10bac:	00148493          	addi	s1,s1,1
   10bb0:	00440413          	addi	s0,s0,4
   10bb4:	000780e7          	jalr	a5
   10bb8:	ff24e8e3          	bltu	s1,s2,10ba8 <__libc_init_array+0x34>
   10bbc:	00012797          	auipc	a5,0x12
   10bc0:	50078793          	addi	a5,a5,1280 # 230bc <__do_global_dtors_aux_fini_array_entry>
   10bc4:	00012417          	auipc	s0,0x12
   10bc8:	4f040413          	addi	s0,s0,1264 # 230b4 <__init_array_start>
   10bcc:	40878933          	sub	s2,a5,s0
   10bd0:	40295913          	srai	s2,s2,0x2
   10bd4:	00878e63          	beq	a5,s0,10bf0 <__libc_init_array+0x7c>
   10bd8:	00000493          	li	s1,0
   10bdc:	00042783          	lw	a5,0(s0)
   10be0:	00148493          	addi	s1,s1,1
   10be4:	00440413          	addi	s0,s0,4
   10be8:	000780e7          	jalr	a5
   10bec:	ff24e8e3          	bltu	s1,s2,10bdc <__libc_init_array+0x68>
   10bf0:	00c12083          	lw	ra,12(sp)
   10bf4:	00812403          	lw	s0,8(sp)
   10bf8:	00412483          	lw	s1,4(sp)
   10bfc:	00012903          	lw	s2,0(sp)
   10c00:	01010113          	addi	sp,sp,16
   10c04:	00008067          	ret

00010c08 <memset>:
   10c08:	00f00313          	li	t1,15
   10c0c:	00050713          	mv	a4,a0
   10c10:	02c37e63          	bgeu	t1,a2,10c4c <memset+0x44>
   10c14:	00f77793          	andi	a5,a4,15
   10c18:	0a079063          	bnez	a5,10cb8 <memset+0xb0>
   10c1c:	08059263          	bnez	a1,10ca0 <memset+0x98>
   10c20:	ff067693          	andi	a3,a2,-16
   10c24:	00f67613          	andi	a2,a2,15
   10c28:	00e686b3          	add	a3,a3,a4
   10c2c:	00b72023          	sw	a1,0(a4)
   10c30:	00b72223          	sw	a1,4(a4)
   10c34:	00b72423          	sw	a1,8(a4)
   10c38:	00b72623          	sw	a1,12(a4)
   10c3c:	01070713          	addi	a4,a4,16
   10c40:	fed766e3          	bltu	a4,a3,10c2c <memset+0x24>
   10c44:	00061463          	bnez	a2,10c4c <memset+0x44>
   10c48:	00008067          	ret
   10c4c:	40c306b3          	sub	a3,t1,a2
   10c50:	00269693          	slli	a3,a3,0x2
   10c54:	00000297          	auipc	t0,0x0
   10c58:	005686b3          	add	a3,a3,t0
   10c5c:	00c68067          	jr	12(a3)
   10c60:	00b70723          	sb	a1,14(a4)
   10c64:	00b706a3          	sb	a1,13(a4)
   10c68:	00b70623          	sb	a1,12(a4)
   10c6c:	00b705a3          	sb	a1,11(a4)
   10c70:	00b70523          	sb	a1,10(a4)
   10c74:	00b704a3          	sb	a1,9(a4)
   10c78:	00b70423          	sb	a1,8(a4)
   10c7c:	00b703a3          	sb	a1,7(a4)
   10c80:	00b70323          	sb	a1,6(a4)
   10c84:	00b702a3          	sb	a1,5(a4)
   10c88:	00b70223          	sb	a1,4(a4)
   10c8c:	00b701a3          	sb	a1,3(a4)
   10c90:	00b70123          	sb	a1,2(a4)
   10c94:	00b700a3          	sb	a1,1(a4)
   10c98:	00b70023          	sb	a1,0(a4)
   10c9c:	00008067          	ret
   10ca0:	0ff5f593          	zext.b	a1,a1
   10ca4:	00859693          	slli	a3,a1,0x8
   10ca8:	00d5e5b3          	or	a1,a1,a3
   10cac:	01059693          	slli	a3,a1,0x10
   10cb0:	00d5e5b3          	or	a1,a1,a3
   10cb4:	f6dff06f          	j	10c20 <memset+0x18>
   10cb8:	00279693          	slli	a3,a5,0x2
   10cbc:	00000297          	auipc	t0,0x0
   10cc0:	005686b3          	add	a3,a3,t0
   10cc4:	00008293          	mv	t0,ra
   10cc8:	fa0680e7          	jalr	-96(a3)
   10ccc:	00028093          	mv	ra,t0
   10cd0:	ff078793          	addi	a5,a5,-16
   10cd4:	40f70733          	sub	a4,a4,a5
   10cd8:	00f60633          	add	a2,a2,a5
   10cdc:	f6c378e3          	bgeu	t1,a2,10c4c <memset+0x44>
   10ce0:	f3dff06f          	j	10c1c <memset+0x14>

00010ce4 <memcpy>:
   10ce4:	00b547b3          	xor	a5,a0,a1
   10ce8:	0037f793          	andi	a5,a5,3
   10cec:	00c508b3          	add	a7,a0,a2
   10cf0:	06079463          	bnez	a5,10d58 <memcpy+0x74>
   10cf4:	00300793          	li	a5,3
   10cf8:	06c7f063          	bgeu	a5,a2,10d58 <memcpy+0x74>
   10cfc:	00357793          	andi	a5,a0,3
   10d00:	00050713          	mv	a4,a0
   10d04:	06079a63          	bnez	a5,10d78 <memcpy+0x94>
   10d08:	ffc8f613          	andi	a2,a7,-4
   10d0c:	40e606b3          	sub	a3,a2,a4
   10d10:	02000793          	li	a5,32
   10d14:	08d7ce63          	blt	a5,a3,10db0 <memcpy+0xcc>
   10d18:	00058693          	mv	a3,a1
   10d1c:	00070793          	mv	a5,a4
   10d20:	02c77863          	bgeu	a4,a2,10d50 <memcpy+0x6c>
   10d24:	0006a803          	lw	a6,0(a3)
   10d28:	00478793          	addi	a5,a5,4
   10d2c:	00468693          	addi	a3,a3,4
   10d30:	ff07ae23          	sw	a6,-4(a5)
   10d34:	fec7e8e3          	bltu	a5,a2,10d24 <memcpy+0x40>
   10d38:	fff60793          	addi	a5,a2,-1
   10d3c:	40e787b3          	sub	a5,a5,a4
   10d40:	ffc7f793          	andi	a5,a5,-4
   10d44:	00478793          	addi	a5,a5,4
   10d48:	00f70733          	add	a4,a4,a5
   10d4c:	00f585b3          	add	a1,a1,a5
   10d50:	01176863          	bltu	a4,a7,10d60 <memcpy+0x7c>
   10d54:	00008067          	ret
   10d58:	00050713          	mv	a4,a0
   10d5c:	05157863          	bgeu	a0,a7,10dac <memcpy+0xc8>
   10d60:	0005c783          	lbu	a5,0(a1)
   10d64:	00170713          	addi	a4,a4,1
   10d68:	00158593          	addi	a1,a1,1
   10d6c:	fef70fa3          	sb	a5,-1(a4)
   10d70:	fee898e3          	bne	a7,a4,10d60 <memcpy+0x7c>
   10d74:	00008067          	ret
   10d78:	0005c683          	lbu	a3,0(a1)
   10d7c:	00170713          	addi	a4,a4,1
   10d80:	00377793          	andi	a5,a4,3
   10d84:	fed70fa3          	sb	a3,-1(a4)
   10d88:	00158593          	addi	a1,a1,1
   10d8c:	f6078ee3          	beqz	a5,10d08 <memcpy+0x24>
   10d90:	0005c683          	lbu	a3,0(a1)
   10d94:	00170713          	addi	a4,a4,1
   10d98:	00377793          	andi	a5,a4,3
   10d9c:	fed70fa3          	sb	a3,-1(a4)
   10da0:	00158593          	addi	a1,a1,1
   10da4:	fc079ae3          	bnez	a5,10d78 <memcpy+0x94>
   10da8:	f61ff06f          	j	10d08 <memcpy+0x24>
   10dac:	00008067          	ret
   10db0:	ff010113          	addi	sp,sp,-16
   10db4:	00812623          	sw	s0,12(sp)
   10db8:	02000413          	li	s0,32
   10dbc:	0005a383          	lw	t2,0(a1)
   10dc0:	0045a283          	lw	t0,4(a1)
   10dc4:	0085af83          	lw	t6,8(a1)
   10dc8:	00c5af03          	lw	t5,12(a1)
   10dcc:	0105ae83          	lw	t4,16(a1)
   10dd0:	0145ae03          	lw	t3,20(a1)
   10dd4:	0185a303          	lw	t1,24(a1)
   10dd8:	01c5a803          	lw	a6,28(a1)
   10ddc:	0205a683          	lw	a3,32(a1)
   10de0:	02470713          	addi	a4,a4,36
   10de4:	40e607b3          	sub	a5,a2,a4
   10de8:	fc772e23          	sw	t2,-36(a4)
   10dec:	fe572023          	sw	t0,-32(a4)
   10df0:	fff72223          	sw	t6,-28(a4)
   10df4:	ffe72423          	sw	t5,-24(a4)
   10df8:	ffd72623          	sw	t4,-20(a4)
   10dfc:	ffc72823          	sw	t3,-16(a4)
   10e00:	fe672a23          	sw	t1,-12(a4)
   10e04:	ff072c23          	sw	a6,-8(a4)
   10e08:	fed72e23          	sw	a3,-4(a4)
   10e0c:	02458593          	addi	a1,a1,36
   10e10:	faf446e3          	blt	s0,a5,10dbc <memcpy+0xd8>
   10e14:	00058693          	mv	a3,a1
   10e18:	00070793          	mv	a5,a4
   10e1c:	02c77863          	bgeu	a4,a2,10e4c <memcpy+0x168>
   10e20:	0006a803          	lw	a6,0(a3)
   10e24:	00478793          	addi	a5,a5,4
   10e28:	00468693          	addi	a3,a3,4
   10e2c:	ff07ae23          	sw	a6,-4(a5)
   10e30:	fec7e8e3          	bltu	a5,a2,10e20 <memcpy+0x13c>
   10e34:	fff60793          	addi	a5,a2,-1
   10e38:	40e787b3          	sub	a5,a5,a4
   10e3c:	ffc7f793          	andi	a5,a5,-4
   10e40:	00478793          	addi	a5,a5,4
   10e44:	00f70733          	add	a4,a4,a5
   10e48:	00f585b3          	add	a1,a1,a5
   10e4c:	01176863          	bltu	a4,a7,10e5c <memcpy+0x178>
   10e50:	00c12403          	lw	s0,12(sp)
   10e54:	01010113          	addi	sp,sp,16
   10e58:	00008067          	ret
   10e5c:	0005c783          	lbu	a5,0(a1)
   10e60:	00170713          	addi	a4,a4,1
   10e64:	00158593          	addi	a1,a1,1
   10e68:	fef70fa3          	sb	a5,-1(a4)
   10e6c:	fee882e3          	beq	a7,a4,10e50 <memcpy+0x16c>
   10e70:	0005c783          	lbu	a5,0(a1)
   10e74:	00170713          	addi	a4,a4,1
   10e78:	00158593          	addi	a1,a1,1
   10e7c:	fef70fa3          	sb	a5,-1(a4)
   10e80:	fce89ee3          	bne	a7,a4,10e5c <memcpy+0x178>
   10e84:	fcdff06f          	j	10e50 <memcpy+0x16c>

00010e88 <__call_exitprocs>:
   10e88:	fd010113          	addi	sp,sp,-48
   10e8c:	01412c23          	sw	s4,24(sp)
   10e90:	f2018a13          	addi	s4,gp,-224 # 237e0 <__atexit>
   10e94:	03212023          	sw	s2,32(sp)
   10e98:	000a2903          	lw	s2,0(s4)
   10e9c:	02112623          	sw	ra,44(sp)
   10ea0:	02812423          	sw	s0,40(sp)
   10ea4:	02912223          	sw	s1,36(sp)
   10ea8:	01312e23          	sw	s3,28(sp)
   10eac:	01512a23          	sw	s5,20(sp)
   10eb0:	01612823          	sw	s6,16(sp)
   10eb4:	01712623          	sw	s7,12(sp)
   10eb8:	01812423          	sw	s8,8(sp)
   10ebc:	04090063          	beqz	s2,10efc <__call_exitprocs+0x74>
   10ec0:	00050b13          	mv	s6,a0
   10ec4:	00058b93          	mv	s7,a1
   10ec8:	00100a93          	li	s5,1
   10ecc:	fff00993          	li	s3,-1
   10ed0:	00492483          	lw	s1,4(s2)
   10ed4:	fff48413          	addi	s0,s1,-1
   10ed8:	02044263          	bltz	s0,10efc <__call_exitprocs+0x74>
   10edc:	00249493          	slli	s1,s1,0x2
   10ee0:	009904b3          	add	s1,s2,s1
   10ee4:	040b8463          	beqz	s7,10f2c <__call_exitprocs+0xa4>
   10ee8:	1044a783          	lw	a5,260(s1)
   10eec:	05778063          	beq	a5,s7,10f2c <__call_exitprocs+0xa4>
   10ef0:	fff40413          	addi	s0,s0,-1
   10ef4:	ffc48493          	addi	s1,s1,-4
   10ef8:	ff3416e3          	bne	s0,s3,10ee4 <__call_exitprocs+0x5c>
   10efc:	02c12083          	lw	ra,44(sp)
   10f00:	02812403          	lw	s0,40(sp)
   10f04:	02412483          	lw	s1,36(sp)
   10f08:	02012903          	lw	s2,32(sp)
   10f0c:	01c12983          	lw	s3,28(sp)
   10f10:	01812a03          	lw	s4,24(sp)
   10f14:	01412a83          	lw	s5,20(sp)
   10f18:	01012b03          	lw	s6,16(sp)
   10f1c:	00c12b83          	lw	s7,12(sp)
   10f20:	00812c03          	lw	s8,8(sp)
   10f24:	03010113          	addi	sp,sp,48
   10f28:	00008067          	ret
   10f2c:	00492783          	lw	a5,4(s2)
   10f30:	0044a683          	lw	a3,4(s1)
   10f34:	fff78793          	addi	a5,a5,-1
   10f38:	04878e63          	beq	a5,s0,10f94 <__call_exitprocs+0x10c>
   10f3c:	0004a223          	sw	zero,4(s1)
   10f40:	fa0688e3          	beqz	a3,10ef0 <__call_exitprocs+0x68>
   10f44:	18892783          	lw	a5,392(s2)
   10f48:	008a9733          	sll	a4,s5,s0
   10f4c:	00492c03          	lw	s8,4(s2)
   10f50:	00f777b3          	and	a5,a4,a5
   10f54:	02079263          	bnez	a5,10f78 <__call_exitprocs+0xf0>
   10f58:	000680e7          	jalr	a3
   10f5c:	00492703          	lw	a4,4(s2)
   10f60:	000a2783          	lw	a5,0(s4)
   10f64:	01871463          	bne	a4,s8,10f6c <__call_exitprocs+0xe4>
   10f68:	f8f904e3          	beq	s2,a5,10ef0 <__call_exitprocs+0x68>
   10f6c:	f80788e3          	beqz	a5,10efc <__call_exitprocs+0x74>
   10f70:	00078913          	mv	s2,a5
   10f74:	f5dff06f          	j	10ed0 <__call_exitprocs+0x48>
   10f78:	18c92783          	lw	a5,396(s2)
   10f7c:	0844a583          	lw	a1,132(s1)
   10f80:	00f77733          	and	a4,a4,a5
   10f84:	00071c63          	bnez	a4,10f9c <__call_exitprocs+0x114>
   10f88:	000b0513          	mv	a0,s6
   10f8c:	000680e7          	jalr	a3
   10f90:	fcdff06f          	j	10f5c <__call_exitprocs+0xd4>
   10f94:	00892223          	sw	s0,4(s2)
   10f98:	fa9ff06f          	j	10f40 <__call_exitprocs+0xb8>
   10f9c:	00058513          	mv	a0,a1
   10fa0:	000680e7          	jalr	a3
   10fa4:	fb9ff06f          	j	10f5c <__call_exitprocs+0xd4>

00010fa8 <atexit>:
   10fa8:	00050593          	mv	a1,a0
   10fac:	00000693          	li	a3,0
   10fb0:	00000613          	li	a2,0
   10fb4:	00000513          	li	a0,0
   10fb8:	7a90506f          	j	16f60 <__register_exitproc>

00010fbc <_malloc_trim_r>:
   10fbc:	fe010113          	addi	sp,sp,-32
   10fc0:	00812c23          	sw	s0,24(sp)
   10fc4:	00912a23          	sw	s1,20(sp)
   10fc8:	01212823          	sw	s2,16(sp)
   10fcc:	01312623          	sw	s3,12(sp)
   10fd0:	01412423          	sw	s4,8(sp)
   10fd4:	00058993          	mv	s3,a1
   10fd8:	00112e23          	sw	ra,28(sp)
   10fdc:	00012a17          	auipc	s4,0x12
   10fe0:	214a0a13          	addi	s4,s4,532 # 231f0 <__malloc_av_>
   10fe4:	00050913          	mv	s2,a0
   10fe8:	399000ef          	jal	ra,11b80 <__malloc_lock>
   10fec:	008a2703          	lw	a4,8(s4)
   10ff0:	000017b7          	lui	a5,0x1
   10ff4:	fef78413          	addi	s0,a5,-17 # fef <exit-0xf0a5>
   10ff8:	00472483          	lw	s1,4(a4)
   10ffc:	ffc4f493          	andi	s1,s1,-4
   11000:	00848433          	add	s0,s1,s0
   11004:	41340433          	sub	s0,s0,s3
   11008:	00c45413          	srli	s0,s0,0xc
   1100c:	fff40413          	addi	s0,s0,-1
   11010:	00c41413          	slli	s0,s0,0xc
   11014:	00f44e63          	blt	s0,a5,11030 <_malloc_trim_r+0x74>
   11018:	00000593          	li	a1,0
   1101c:	00090513          	mv	a0,s2
   11020:	1e1050ef          	jal	ra,16a00 <_sbrk_r>
   11024:	008a2783          	lw	a5,8(s4)
   11028:	009787b3          	add	a5,a5,s1
   1102c:	02f50863          	beq	a0,a5,1105c <_malloc_trim_r+0xa0>
   11030:	00090513          	mv	a0,s2
   11034:	351000ef          	jal	ra,11b84 <__malloc_unlock>
   11038:	01c12083          	lw	ra,28(sp)
   1103c:	01812403          	lw	s0,24(sp)
   11040:	01412483          	lw	s1,20(sp)
   11044:	01012903          	lw	s2,16(sp)
   11048:	00c12983          	lw	s3,12(sp)
   1104c:	00812a03          	lw	s4,8(sp)
   11050:	00000513          	li	a0,0
   11054:	02010113          	addi	sp,sp,32
   11058:	00008067          	ret
   1105c:	408005b3          	neg	a1,s0
   11060:	00090513          	mv	a0,s2
   11064:	19d050ef          	jal	ra,16a00 <_sbrk_r>
   11068:	fff00793          	li	a5,-1
   1106c:	04f50863          	beq	a0,a5,110bc <_malloc_trim_r+0x100>
   11070:	08c18713          	addi	a4,gp,140 # 2394c <__malloc_current_mallinfo>
   11074:	00072783          	lw	a5,0(a4)
   11078:	008a2683          	lw	a3,8(s4)
   1107c:	408484b3          	sub	s1,s1,s0
   11080:	0014e493          	ori	s1,s1,1
   11084:	408787b3          	sub	a5,a5,s0
   11088:	00090513          	mv	a0,s2
   1108c:	0096a223          	sw	s1,4(a3)
   11090:	00f72023          	sw	a5,0(a4)
   11094:	2f1000ef          	jal	ra,11b84 <__malloc_unlock>
   11098:	01c12083          	lw	ra,28(sp)
   1109c:	01812403          	lw	s0,24(sp)
   110a0:	01412483          	lw	s1,20(sp)
   110a4:	01012903          	lw	s2,16(sp)
   110a8:	00c12983          	lw	s3,12(sp)
   110ac:	00812a03          	lw	s4,8(sp)
   110b0:	00100513          	li	a0,1
   110b4:	02010113          	addi	sp,sp,32
   110b8:	00008067          	ret
   110bc:	00000593          	li	a1,0
   110c0:	00090513          	mv	a0,s2
   110c4:	13d050ef          	jal	ra,16a00 <_sbrk_r>
   110c8:	008a2703          	lw	a4,8(s4)
   110cc:	00f00693          	li	a3,15
   110d0:	40e507b3          	sub	a5,a0,a4
   110d4:	f4f6dee3          	bge	a3,a5,11030 <_malloc_trim_r+0x74>
   110d8:	f101a683          	lw	a3,-240(gp) # 237d0 <__malloc_sbrk_base>
   110dc:	40d50533          	sub	a0,a0,a3
   110e0:	0017e793          	ori	a5,a5,1
   110e4:	08a1a623          	sw	a0,140(gp) # 2394c <__malloc_current_mallinfo>
   110e8:	00f72223          	sw	a5,4(a4)
   110ec:	f45ff06f          	j	11030 <_malloc_trim_r+0x74>

000110f0 <_free_r>:
   110f0:	18058263          	beqz	a1,11274 <_free_r+0x184>
   110f4:	ff010113          	addi	sp,sp,-16
   110f8:	00812423          	sw	s0,8(sp)
   110fc:	00912223          	sw	s1,4(sp)
   11100:	00058413          	mv	s0,a1
   11104:	00050493          	mv	s1,a0
   11108:	00112623          	sw	ra,12(sp)
   1110c:	275000ef          	jal	ra,11b80 <__malloc_lock>
   11110:	ffc42583          	lw	a1,-4(s0)
   11114:	ff840713          	addi	a4,s0,-8
   11118:	00012517          	auipc	a0,0x12
   1111c:	0d850513          	addi	a0,a0,216 # 231f0 <__malloc_av_>
   11120:	ffe5f793          	andi	a5,a1,-2
   11124:	00f70633          	add	a2,a4,a5
   11128:	00462683          	lw	a3,4(a2)
   1112c:	00852803          	lw	a6,8(a0)
   11130:	ffc6f693          	andi	a3,a3,-4
   11134:	1ac80263          	beq	a6,a2,112d8 <_free_r+0x1e8>
   11138:	00d62223          	sw	a3,4(a2)
   1113c:	0015f593          	andi	a1,a1,1
   11140:	00d60833          	add	a6,a2,a3
   11144:	0a059063          	bnez	a1,111e4 <_free_r+0xf4>
   11148:	ff842303          	lw	t1,-8(s0)
   1114c:	00482583          	lw	a1,4(a6)
   11150:	00012897          	auipc	a7,0x12
   11154:	0a888893          	addi	a7,a7,168 # 231f8 <__malloc_av_+0x8>
   11158:	40670733          	sub	a4,a4,t1
   1115c:	00872803          	lw	a6,8(a4)
   11160:	006787b3          	add	a5,a5,t1
   11164:	0015f593          	andi	a1,a1,1
   11168:	15180263          	beq	a6,a7,112ac <_free_r+0x1bc>
   1116c:	00c72303          	lw	t1,12(a4)
   11170:	00682623          	sw	t1,12(a6)
   11174:	01032423          	sw	a6,8(t1)
   11178:	1a058663          	beqz	a1,11324 <_free_r+0x234>
   1117c:	0017e693          	ori	a3,a5,1
   11180:	00d72223          	sw	a3,4(a4)
   11184:	00f62023          	sw	a5,0(a2)
   11188:	1ff00693          	li	a3,511
   1118c:	06f6ec63          	bltu	a3,a5,11204 <_free_r+0x114>
   11190:	ff87f693          	andi	a3,a5,-8
   11194:	00868693          	addi	a3,a3,8
   11198:	00452583          	lw	a1,4(a0)
   1119c:	00d506b3          	add	a3,a0,a3
   111a0:	0006a603          	lw	a2,0(a3)
   111a4:	0057d813          	srli	a6,a5,0x5
   111a8:	00100793          	li	a5,1
   111ac:	010797b3          	sll	a5,a5,a6
   111b0:	00b7e7b3          	or	a5,a5,a1
   111b4:	ff868593          	addi	a1,a3,-8
   111b8:	00b72623          	sw	a1,12(a4)
   111bc:	00c72423          	sw	a2,8(a4)
   111c0:	00f52223          	sw	a5,4(a0)
   111c4:	00e6a023          	sw	a4,0(a3)
   111c8:	00e62623          	sw	a4,12(a2)
   111cc:	00812403          	lw	s0,8(sp)
   111d0:	00c12083          	lw	ra,12(sp)
   111d4:	00048513          	mv	a0,s1
   111d8:	00412483          	lw	s1,4(sp)
   111dc:	01010113          	addi	sp,sp,16
   111e0:	1a50006f          	j	11b84 <__malloc_unlock>
   111e4:	00482583          	lw	a1,4(a6)
   111e8:	0015f593          	andi	a1,a1,1
   111ec:	08058663          	beqz	a1,11278 <_free_r+0x188>
   111f0:	0017e693          	ori	a3,a5,1
   111f4:	fed42e23          	sw	a3,-4(s0)
   111f8:	00f62023          	sw	a5,0(a2)
   111fc:	1ff00693          	li	a3,511
   11200:	f8f6f8e3          	bgeu	a3,a5,11190 <_free_r+0xa0>
   11204:	0097d693          	srli	a3,a5,0x9
   11208:	00400613          	li	a2,4
   1120c:	12d66063          	bltu	a2,a3,1132c <_free_r+0x23c>
   11210:	0067d693          	srli	a3,a5,0x6
   11214:	03968593          	addi	a1,a3,57
   11218:	03868613          	addi	a2,a3,56
   1121c:	00359593          	slli	a1,a1,0x3
   11220:	00b505b3          	add	a1,a0,a1
   11224:	0005a683          	lw	a3,0(a1)
   11228:	ff858593          	addi	a1,a1,-8
   1122c:	00d59863          	bne	a1,a3,1123c <_free_r+0x14c>
   11230:	1540006f          	j	11384 <_free_r+0x294>
   11234:	0086a683          	lw	a3,8(a3)
   11238:	00d58863          	beq	a1,a3,11248 <_free_r+0x158>
   1123c:	0046a603          	lw	a2,4(a3)
   11240:	ffc67613          	andi	a2,a2,-4
   11244:	fec7e8e3          	bltu	a5,a2,11234 <_free_r+0x144>
   11248:	00c6a583          	lw	a1,12(a3)
   1124c:	00b72623          	sw	a1,12(a4)
   11250:	00d72423          	sw	a3,8(a4)
   11254:	00812403          	lw	s0,8(sp)
   11258:	00c12083          	lw	ra,12(sp)
   1125c:	00e5a423          	sw	a4,8(a1)
   11260:	00048513          	mv	a0,s1
   11264:	00412483          	lw	s1,4(sp)
   11268:	00e6a623          	sw	a4,12(a3)
   1126c:	01010113          	addi	sp,sp,16
   11270:	1150006f          	j	11b84 <__malloc_unlock>
   11274:	00008067          	ret
   11278:	00d787b3          	add	a5,a5,a3
   1127c:	00012897          	auipc	a7,0x12
   11280:	f7c88893          	addi	a7,a7,-132 # 231f8 <__malloc_av_+0x8>
   11284:	00862683          	lw	a3,8(a2)
   11288:	0d168c63          	beq	a3,a7,11360 <_free_r+0x270>
   1128c:	00c62803          	lw	a6,12(a2)
   11290:	0017e593          	ori	a1,a5,1
   11294:	00f70633          	add	a2,a4,a5
   11298:	0106a623          	sw	a6,12(a3)
   1129c:	00d82423          	sw	a3,8(a6)
   112a0:	00b72223          	sw	a1,4(a4)
   112a4:	00f62023          	sw	a5,0(a2)
   112a8:	ee1ff06f          	j	11188 <_free_r+0x98>
   112ac:	12059c63          	bnez	a1,113e4 <_free_r+0x2f4>
   112b0:	00862583          	lw	a1,8(a2)
   112b4:	00c62603          	lw	a2,12(a2)
   112b8:	00f686b3          	add	a3,a3,a5
   112bc:	0016e793          	ori	a5,a3,1
   112c0:	00c5a623          	sw	a2,12(a1)
   112c4:	00b62423          	sw	a1,8(a2)
   112c8:	00f72223          	sw	a5,4(a4)
   112cc:	00d70733          	add	a4,a4,a3
   112d0:	00d72023          	sw	a3,0(a4)
   112d4:	ef9ff06f          	j	111cc <_free_r+0xdc>
   112d8:	0015f593          	andi	a1,a1,1
   112dc:	00d786b3          	add	a3,a5,a3
   112e0:	02059063          	bnez	a1,11300 <_free_r+0x210>
   112e4:	ff842583          	lw	a1,-8(s0)
   112e8:	40b70733          	sub	a4,a4,a1
   112ec:	00c72783          	lw	a5,12(a4)
   112f0:	00872603          	lw	a2,8(a4)
   112f4:	00b686b3          	add	a3,a3,a1
   112f8:	00f62623          	sw	a5,12(a2)
   112fc:	00c7a423          	sw	a2,8(a5)
   11300:	0016e793          	ori	a5,a3,1
   11304:	00f72223          	sw	a5,4(a4)
   11308:	00e52423          	sw	a4,8(a0)
   1130c:	f141a783          	lw	a5,-236(gp) # 237d4 <__malloc_trim_threshold>
   11310:	eaf6eee3          	bltu	a3,a5,111cc <_free_r+0xdc>
   11314:	f2c1a583          	lw	a1,-212(gp) # 237ec <__malloc_top_pad>
   11318:	00048513          	mv	a0,s1
   1131c:	ca1ff0ef          	jal	ra,10fbc <_malloc_trim_r>
   11320:	eadff06f          	j	111cc <_free_r+0xdc>
   11324:	00d787b3          	add	a5,a5,a3
   11328:	f5dff06f          	j	11284 <_free_r+0x194>
   1132c:	01400613          	li	a2,20
   11330:	02d67063          	bgeu	a2,a3,11350 <_free_r+0x260>
   11334:	05400613          	li	a2,84
   11338:	06d66463          	bltu	a2,a3,113a0 <_free_r+0x2b0>
   1133c:	00c7d693          	srli	a3,a5,0xc
   11340:	06f68593          	addi	a1,a3,111
   11344:	06e68613          	addi	a2,a3,110
   11348:	00359593          	slli	a1,a1,0x3
   1134c:	ed5ff06f          	j	11220 <_free_r+0x130>
   11350:	05c68593          	addi	a1,a3,92
   11354:	05b68613          	addi	a2,a3,91
   11358:	00359593          	slli	a1,a1,0x3
   1135c:	ec5ff06f          	j	11220 <_free_r+0x130>
   11360:	00e52a23          	sw	a4,20(a0)
   11364:	00e52823          	sw	a4,16(a0)
   11368:	0017e693          	ori	a3,a5,1
   1136c:	01172623          	sw	a7,12(a4)
   11370:	01172423          	sw	a7,8(a4)
   11374:	00d72223          	sw	a3,4(a4)
   11378:	00f70733          	add	a4,a4,a5
   1137c:	00f72023          	sw	a5,0(a4)
   11380:	e4dff06f          	j	111cc <_free_r+0xdc>
   11384:	00452803          	lw	a6,4(a0)
   11388:	40265613          	srai	a2,a2,0x2
   1138c:	00100793          	li	a5,1
   11390:	00c797b3          	sll	a5,a5,a2
   11394:	0107e7b3          	or	a5,a5,a6
   11398:	00f52223          	sw	a5,4(a0)
   1139c:	eb1ff06f          	j	1124c <_free_r+0x15c>
   113a0:	15400613          	li	a2,340
   113a4:	00d66c63          	bltu	a2,a3,113bc <_free_r+0x2cc>
   113a8:	00f7d693          	srli	a3,a5,0xf
   113ac:	07868593          	addi	a1,a3,120
   113b0:	07768613          	addi	a2,a3,119
   113b4:	00359593          	slli	a1,a1,0x3
   113b8:	e69ff06f          	j	11220 <_free_r+0x130>
   113bc:	55400613          	li	a2,1364
   113c0:	00d66c63          	bltu	a2,a3,113d8 <_free_r+0x2e8>
   113c4:	0127d693          	srli	a3,a5,0x12
   113c8:	07d68593          	addi	a1,a3,125
   113cc:	07c68613          	addi	a2,a3,124
   113d0:	00359593          	slli	a1,a1,0x3
   113d4:	e4dff06f          	j	11220 <_free_r+0x130>
   113d8:	3f800593          	li	a1,1016
   113dc:	07e00613          	li	a2,126
   113e0:	e41ff06f          	j	11220 <_free_r+0x130>
   113e4:	0017e693          	ori	a3,a5,1
   113e8:	00d72223          	sw	a3,4(a4)
   113ec:	00f62023          	sw	a5,0(a2)
   113f0:	dddff06f          	j	111cc <_free_r+0xdc>

000113f4 <_malloc_r>:
   113f4:	fd010113          	addi	sp,sp,-48
   113f8:	03212023          	sw	s2,32(sp)
   113fc:	02112623          	sw	ra,44(sp)
   11400:	02812423          	sw	s0,40(sp)
   11404:	02912223          	sw	s1,36(sp)
   11408:	01312e23          	sw	s3,28(sp)
   1140c:	01412c23          	sw	s4,24(sp)
   11410:	01512a23          	sw	s5,20(sp)
   11414:	01612823          	sw	s6,16(sp)
   11418:	01712623          	sw	s7,12(sp)
   1141c:	01812423          	sw	s8,8(sp)
   11420:	01912223          	sw	s9,4(sp)
   11424:	00b58793          	addi	a5,a1,11
   11428:	01600713          	li	a4,22
   1142c:	00050913          	mv	s2,a0
   11430:	08f76e63          	bltu	a4,a5,114cc <_malloc_r+0xd8>
   11434:	01000793          	li	a5,16
   11438:	22b7e263          	bltu	a5,a1,1165c <_malloc_r+0x268>
   1143c:	744000ef          	jal	ra,11b80 <__malloc_lock>
   11440:	01000493          	li	s1,16
   11444:	01800793          	li	a5,24
   11448:	00200593          	li	a1,2
   1144c:	00012997          	auipc	s3,0x12
   11450:	da498993          	addi	s3,s3,-604 # 231f0 <__malloc_av_>
   11454:	00f987b3          	add	a5,s3,a5
   11458:	0047a403          	lw	s0,4(a5)
   1145c:	ff878713          	addi	a4,a5,-8
   11460:	30e40a63          	beq	s0,a4,11774 <_malloc_r+0x380>
   11464:	00442783          	lw	a5,4(s0)
   11468:	00c42683          	lw	a3,12(s0)
   1146c:	00842603          	lw	a2,8(s0)
   11470:	ffc7f793          	andi	a5,a5,-4
   11474:	00f407b3          	add	a5,s0,a5
   11478:	0047a703          	lw	a4,4(a5)
   1147c:	00d62623          	sw	a3,12(a2)
   11480:	00c6a423          	sw	a2,8(a3)
   11484:	00176713          	ori	a4,a4,1
   11488:	00090513          	mv	a0,s2
   1148c:	00e7a223          	sw	a4,4(a5)
   11490:	6f4000ef          	jal	ra,11b84 <__malloc_unlock>
   11494:	00840513          	addi	a0,s0,8
   11498:	02c12083          	lw	ra,44(sp)
   1149c:	02812403          	lw	s0,40(sp)
   114a0:	02412483          	lw	s1,36(sp)
   114a4:	02012903          	lw	s2,32(sp)
   114a8:	01c12983          	lw	s3,28(sp)
   114ac:	01812a03          	lw	s4,24(sp)
   114b0:	01412a83          	lw	s5,20(sp)
   114b4:	01012b03          	lw	s6,16(sp)
   114b8:	00c12b83          	lw	s7,12(sp)
   114bc:	00812c03          	lw	s8,8(sp)
   114c0:	00412c83          	lw	s9,4(sp)
   114c4:	03010113          	addi	sp,sp,48
   114c8:	00008067          	ret
   114cc:	ff87f493          	andi	s1,a5,-8
   114d0:	1807c663          	bltz	a5,1165c <_malloc_r+0x268>
   114d4:	18b4e463          	bltu	s1,a1,1165c <_malloc_r+0x268>
   114d8:	6a8000ef          	jal	ra,11b80 <__malloc_lock>
   114dc:	1f700793          	li	a5,503
   114e0:	3a97f463          	bgeu	a5,s1,11888 <_malloc_r+0x494>
   114e4:	0094d793          	srli	a5,s1,0x9
   114e8:	18078263          	beqz	a5,1166c <_malloc_r+0x278>
   114ec:	00400713          	li	a4,4
   114f0:	2ef76a63          	bltu	a4,a5,117e4 <_malloc_r+0x3f0>
   114f4:	0064d793          	srli	a5,s1,0x6
   114f8:	03978593          	addi	a1,a5,57
   114fc:	03878813          	addi	a6,a5,56
   11500:	00359613          	slli	a2,a1,0x3
   11504:	00012997          	auipc	s3,0x12
   11508:	cec98993          	addi	s3,s3,-788 # 231f0 <__malloc_av_>
   1150c:	00c98633          	add	a2,s3,a2
   11510:	00462403          	lw	s0,4(a2)
   11514:	ff860613          	addi	a2,a2,-8
   11518:	02860863          	beq	a2,s0,11548 <_malloc_r+0x154>
   1151c:	00f00513          	li	a0,15
   11520:	0140006f          	j	11534 <_malloc_r+0x140>
   11524:	00c42683          	lw	a3,12(s0)
   11528:	24075263          	bgez	a4,1176c <_malloc_r+0x378>
   1152c:	00d60e63          	beq	a2,a3,11548 <_malloc_r+0x154>
   11530:	00068413          	mv	s0,a3
   11534:	00442783          	lw	a5,4(s0)
   11538:	ffc7f793          	andi	a5,a5,-4
   1153c:	40978733          	sub	a4,a5,s1
   11540:	fee552e3          	bge	a0,a4,11524 <_malloc_r+0x130>
   11544:	00080593          	mv	a1,a6
   11548:	0109a403          	lw	s0,16(s3)
   1154c:	00012897          	auipc	a7,0x12
   11550:	cac88893          	addi	a7,a7,-852 # 231f8 <__malloc_av_+0x8>
   11554:	1f140463          	beq	s0,a7,1173c <_malloc_r+0x348>
   11558:	00442783          	lw	a5,4(s0)
   1155c:	00f00693          	li	a3,15
   11560:	ffc7f793          	andi	a5,a5,-4
   11564:	40978733          	sub	a4,a5,s1
   11568:	32e6c663          	blt	a3,a4,11894 <_malloc_r+0x4a0>
   1156c:	0119aa23          	sw	a7,20(s3)
   11570:	0119a823          	sw	a7,16(s3)
   11574:	2e075a63          	bgez	a4,11868 <_malloc_r+0x474>
   11578:	1ff00713          	li	a4,511
   1157c:	0049a503          	lw	a0,4(s3)
   11580:	20f76263          	bltu	a4,a5,11784 <_malloc_r+0x390>
   11584:	ff87f713          	andi	a4,a5,-8
   11588:	00870713          	addi	a4,a4,8
   1158c:	00e98733          	add	a4,s3,a4
   11590:	00072683          	lw	a3,0(a4)
   11594:	0057d613          	srli	a2,a5,0x5
   11598:	00100793          	li	a5,1
   1159c:	00c797b3          	sll	a5,a5,a2
   115a0:	00f56533          	or	a0,a0,a5
   115a4:	ff870793          	addi	a5,a4,-8
   115a8:	00f42623          	sw	a5,12(s0)
   115ac:	00d42423          	sw	a3,8(s0)
   115b0:	00a9a223          	sw	a0,4(s3)
   115b4:	00872023          	sw	s0,0(a4)
   115b8:	0086a623          	sw	s0,12(a3)
   115bc:	4025d793          	srai	a5,a1,0x2
   115c0:	00100613          	li	a2,1
   115c4:	00f61633          	sll	a2,a2,a5
   115c8:	0ac56a63          	bltu	a0,a2,1167c <_malloc_r+0x288>
   115cc:	00a677b3          	and	a5,a2,a0
   115d0:	02079463          	bnez	a5,115f8 <_malloc_r+0x204>
   115d4:	00161613          	slli	a2,a2,0x1
   115d8:	ffc5f593          	andi	a1,a1,-4
   115dc:	00a677b3          	and	a5,a2,a0
   115e0:	00458593          	addi	a1,a1,4
   115e4:	00079a63          	bnez	a5,115f8 <_malloc_r+0x204>
   115e8:	00161613          	slli	a2,a2,0x1
   115ec:	00a677b3          	and	a5,a2,a0
   115f0:	00458593          	addi	a1,a1,4
   115f4:	fe078ae3          	beqz	a5,115e8 <_malloc_r+0x1f4>
   115f8:	00f00813          	li	a6,15
   115fc:	00359313          	slli	t1,a1,0x3
   11600:	00698333          	add	t1,s3,t1
   11604:	00030513          	mv	a0,t1
   11608:	00c52783          	lw	a5,12(a0)
   1160c:	00058e13          	mv	t3,a1
   11610:	1ef50c63          	beq	a0,a5,11808 <_malloc_r+0x414>
   11614:	0047a703          	lw	a4,4(a5)
   11618:	00078413          	mv	s0,a5
   1161c:	00c7a783          	lw	a5,12(a5)
   11620:	ffc77713          	andi	a4,a4,-4
   11624:	409706b3          	sub	a3,a4,s1
   11628:	1ed84c63          	blt	a6,a3,11820 <_malloc_r+0x42c>
   1162c:	fe06c2e3          	bltz	a3,11610 <_malloc_r+0x21c>
   11630:	00e40733          	add	a4,s0,a4
   11634:	00472683          	lw	a3,4(a4)
   11638:	00842603          	lw	a2,8(s0)
   1163c:	00090513          	mv	a0,s2
   11640:	0016e693          	ori	a3,a3,1
   11644:	00d72223          	sw	a3,4(a4)
   11648:	00f62623          	sw	a5,12(a2)
   1164c:	00c7a423          	sw	a2,8(a5)
   11650:	534000ef          	jal	ra,11b84 <__malloc_unlock>
   11654:	00840513          	addi	a0,s0,8
   11658:	e41ff06f          	j	11498 <_malloc_r+0xa4>
   1165c:	00c00793          	li	a5,12
   11660:	00f92023          	sw	a5,0(s2)
   11664:	00000513          	li	a0,0
   11668:	e31ff06f          	j	11498 <_malloc_r+0xa4>
   1166c:	20000613          	li	a2,512
   11670:	04000593          	li	a1,64
   11674:	03f00813          	li	a6,63
   11678:	e8dff06f          	j	11504 <_malloc_r+0x110>
   1167c:	0089a403          	lw	s0,8(s3)
   11680:	00442783          	lw	a5,4(s0)
   11684:	ffc7fb13          	andi	s6,a5,-4
   11688:	009b6863          	bltu	s6,s1,11698 <_malloc_r+0x2a4>
   1168c:	409b0733          	sub	a4,s6,s1
   11690:	00f00793          	li	a5,15
   11694:	0ae7c863          	blt	a5,a4,11744 <_malloc_r+0x350>
   11698:	f1018c93          	addi	s9,gp,-240 # 237d0 <__malloc_sbrk_base>
   1169c:	000ca703          	lw	a4,0(s9)
   116a0:	f2c1aa83          	lw	s5,-212(gp) # 237ec <__malloc_top_pad>
   116a4:	fff00793          	li	a5,-1
   116a8:	01640a33          	add	s4,s0,s6
   116ac:	01548ab3          	add	s5,s1,s5
   116b0:	3af70663          	beq	a4,a5,11a5c <_malloc_r+0x668>
   116b4:	000017b7          	lui	a5,0x1
   116b8:	00f78793          	addi	a5,a5,15 # 100f <exit-0xf085>
   116bc:	00fa8ab3          	add	s5,s5,a5
   116c0:	fffff7b7          	lui	a5,0xfffff
   116c4:	00fafab3          	and	s5,s5,a5
   116c8:	000a8593          	mv	a1,s5
   116cc:	00090513          	mv	a0,s2
   116d0:	330050ef          	jal	ra,16a00 <_sbrk_r>
   116d4:	fff00793          	li	a5,-1
   116d8:	00050b93          	mv	s7,a0
   116dc:	20f50663          	beq	a0,a5,118e8 <_malloc_r+0x4f4>
   116e0:	21456263          	bltu	a0,s4,118e4 <_malloc_r+0x4f0>
   116e4:	08c18c13          	addi	s8,gp,140 # 2394c <__malloc_current_mallinfo>
   116e8:	000c2583          	lw	a1,0(s8)
   116ec:	00ba85b3          	add	a1,s5,a1
   116f0:	00bc2023          	sw	a1,0(s8)
   116f4:	00058713          	mv	a4,a1
   116f8:	28aa1863          	bne	s4,a0,11988 <_malloc_r+0x594>
   116fc:	01451793          	slli	a5,a0,0x14
   11700:	28079463          	bnez	a5,11988 <_malloc_r+0x594>
   11704:	0089ab83          	lw	s7,8(s3)
   11708:	015b07b3          	add	a5,s6,s5
   1170c:	0017e793          	ori	a5,a5,1
   11710:	00fba223          	sw	a5,4(s7)
   11714:	f2818713          	addi	a4,gp,-216 # 237e8 <__malloc_max_sbrked_mem>
   11718:	00072683          	lw	a3,0(a4)
   1171c:	00b6f463          	bgeu	a3,a1,11724 <_malloc_r+0x330>
   11720:	00b72023          	sw	a1,0(a4)
   11724:	f2418713          	addi	a4,gp,-220 # 237e4 <__malloc_max_total_mem>
   11728:	00072683          	lw	a3,0(a4)
   1172c:	00b6f463          	bgeu	a3,a1,11734 <_malloc_r+0x340>
   11730:	00b72023          	sw	a1,0(a4)
   11734:	000b8413          	mv	s0,s7
   11738:	1b80006f          	j	118f0 <_malloc_r+0x4fc>
   1173c:	0049a503          	lw	a0,4(s3)
   11740:	e7dff06f          	j	115bc <_malloc_r+0x1c8>
   11744:	0014e793          	ori	a5,s1,1
   11748:	00f42223          	sw	a5,4(s0)
   1174c:	009404b3          	add	s1,s0,s1
   11750:	0099a423          	sw	s1,8(s3)
   11754:	00176713          	ori	a4,a4,1
   11758:	00090513          	mv	a0,s2
   1175c:	00e4a223          	sw	a4,4(s1)
   11760:	424000ef          	jal	ra,11b84 <__malloc_unlock>
   11764:	00840513          	addi	a0,s0,8
   11768:	d31ff06f          	j	11498 <_malloc_r+0xa4>
   1176c:	00842603          	lw	a2,8(s0)
   11770:	d05ff06f          	j	11474 <_malloc_r+0x80>
   11774:	00c7a403          	lw	s0,12(a5) # fffff00c <__BSS_END__+0xfffdb508>
   11778:	00258593          	addi	a1,a1,2
   1177c:	dc8786e3          	beq	a5,s0,11548 <_malloc_r+0x154>
   11780:	ce5ff06f          	j	11464 <_malloc_r+0x70>
   11784:	0097d713          	srli	a4,a5,0x9
   11788:	00400693          	li	a3,4
   1178c:	14e6f263          	bgeu	a3,a4,118d0 <_malloc_r+0x4dc>
   11790:	01400693          	li	a3,20
   11794:	30e6ea63          	bltu	a3,a4,11aa8 <_malloc_r+0x6b4>
   11798:	05c70613          	addi	a2,a4,92
   1179c:	05b70693          	addi	a3,a4,91
   117a0:	00361613          	slli	a2,a2,0x3
   117a4:	00c98633          	add	a2,s3,a2
   117a8:	00062703          	lw	a4,0(a2)
   117ac:	ff860613          	addi	a2,a2,-8
   117b0:	00e61863          	bne	a2,a4,117c0 <_malloc_r+0x3cc>
   117b4:	2b00006f          	j	11a64 <_malloc_r+0x670>
   117b8:	00872703          	lw	a4,8(a4)
   117bc:	00e60863          	beq	a2,a4,117cc <_malloc_r+0x3d8>
   117c0:	00472683          	lw	a3,4(a4)
   117c4:	ffc6f693          	andi	a3,a3,-4
   117c8:	fed7e8e3          	bltu	a5,a3,117b8 <_malloc_r+0x3c4>
   117cc:	00c72603          	lw	a2,12(a4)
   117d0:	00c42623          	sw	a2,12(s0)
   117d4:	00e42423          	sw	a4,8(s0)
   117d8:	00862423          	sw	s0,8(a2)
   117dc:	00872623          	sw	s0,12(a4)
   117e0:	dddff06f          	j	115bc <_malloc_r+0x1c8>
   117e4:	01400713          	li	a4,20
   117e8:	12f77663          	bgeu	a4,a5,11914 <_malloc_r+0x520>
   117ec:	05400713          	li	a4,84
   117f0:	2cf76a63          	bltu	a4,a5,11ac4 <_malloc_r+0x6d0>
   117f4:	00c4d793          	srli	a5,s1,0xc
   117f8:	06f78593          	addi	a1,a5,111
   117fc:	06e78813          	addi	a6,a5,110
   11800:	00359613          	slli	a2,a1,0x3
   11804:	d01ff06f          	j	11504 <_malloc_r+0x110>
   11808:	001e0e13          	addi	t3,t3,1
   1180c:	003e7793          	andi	a5,t3,3
   11810:	00850513          	addi	a0,a0,8
   11814:	10078e63          	beqz	a5,11930 <_malloc_r+0x53c>
   11818:	00c52783          	lw	a5,12(a0)
   1181c:	df5ff06f          	j	11610 <_malloc_r+0x21c>
   11820:	00842603          	lw	a2,8(s0)
   11824:	0014e593          	ori	a1,s1,1
   11828:	00b42223          	sw	a1,4(s0)
   1182c:	00f62623          	sw	a5,12(a2)
   11830:	00c7a423          	sw	a2,8(a5)
   11834:	009404b3          	add	s1,s0,s1
   11838:	0099aa23          	sw	s1,20(s3)
   1183c:	0099a823          	sw	s1,16(s3)
   11840:	0016e793          	ori	a5,a3,1
   11844:	0114a623          	sw	a7,12(s1)
   11848:	0114a423          	sw	a7,8(s1)
   1184c:	00f4a223          	sw	a5,4(s1)
   11850:	00e40733          	add	a4,s0,a4
   11854:	00090513          	mv	a0,s2
   11858:	00d72023          	sw	a3,0(a4)
   1185c:	328000ef          	jal	ra,11b84 <__malloc_unlock>
   11860:	00840513          	addi	a0,s0,8
   11864:	c35ff06f          	j	11498 <_malloc_r+0xa4>
   11868:	00f407b3          	add	a5,s0,a5
   1186c:	0047a703          	lw	a4,4(a5)
   11870:	00090513          	mv	a0,s2
   11874:	00176713          	ori	a4,a4,1
   11878:	00e7a223          	sw	a4,4(a5)
   1187c:	308000ef          	jal	ra,11b84 <__malloc_unlock>
   11880:	00840513          	addi	a0,s0,8
   11884:	c15ff06f          	j	11498 <_malloc_r+0xa4>
   11888:	0034d593          	srli	a1,s1,0x3
   1188c:	00848793          	addi	a5,s1,8
   11890:	bbdff06f          	j	1144c <_malloc_r+0x58>
   11894:	0014e693          	ori	a3,s1,1
   11898:	00d42223          	sw	a3,4(s0)
   1189c:	009404b3          	add	s1,s0,s1
   118a0:	0099aa23          	sw	s1,20(s3)
   118a4:	0099a823          	sw	s1,16(s3)
   118a8:	00176693          	ori	a3,a4,1
   118ac:	0114a623          	sw	a7,12(s1)
   118b0:	0114a423          	sw	a7,8(s1)
   118b4:	00d4a223          	sw	a3,4(s1)
   118b8:	00f407b3          	add	a5,s0,a5
   118bc:	00090513          	mv	a0,s2
   118c0:	00e7a023          	sw	a4,0(a5)
   118c4:	2c0000ef          	jal	ra,11b84 <__malloc_unlock>
   118c8:	00840513          	addi	a0,s0,8
   118cc:	bcdff06f          	j	11498 <_malloc_r+0xa4>
   118d0:	0067d713          	srli	a4,a5,0x6
   118d4:	03970613          	addi	a2,a4,57
   118d8:	03870693          	addi	a3,a4,56
   118dc:	00361613          	slli	a2,a2,0x3
   118e0:	ec5ff06f          	j	117a4 <_malloc_r+0x3b0>
   118e4:	09340a63          	beq	s0,s3,11978 <_malloc_r+0x584>
   118e8:	0089a403          	lw	s0,8(s3)
   118ec:	00442783          	lw	a5,4(s0)
   118f0:	ffc7f793          	andi	a5,a5,-4
   118f4:	40978733          	sub	a4,a5,s1
   118f8:	0097e663          	bltu	a5,s1,11904 <_malloc_r+0x510>
   118fc:	00f00793          	li	a5,15
   11900:	e4e7c2e3          	blt	a5,a4,11744 <_malloc_r+0x350>
   11904:	00090513          	mv	a0,s2
   11908:	27c000ef          	jal	ra,11b84 <__malloc_unlock>
   1190c:	00000513          	li	a0,0
   11910:	b89ff06f          	j	11498 <_malloc_r+0xa4>
   11914:	05c78593          	addi	a1,a5,92
   11918:	05b78813          	addi	a6,a5,91
   1191c:	00359613          	slli	a2,a1,0x3
   11920:	be5ff06f          	j	11504 <_malloc_r+0x110>
   11924:	00832783          	lw	a5,8(t1)
   11928:	fff58593          	addi	a1,a1,-1
   1192c:	24679663          	bne	a5,t1,11b78 <_malloc_r+0x784>
   11930:	0035f793          	andi	a5,a1,3
   11934:	ff830313          	addi	t1,t1,-8
   11938:	fe0796e3          	bnez	a5,11924 <_malloc_r+0x530>
   1193c:	0049a703          	lw	a4,4(s3)
   11940:	fff64793          	not	a5,a2
   11944:	00e7f7b3          	and	a5,a5,a4
   11948:	00f9a223          	sw	a5,4(s3)
   1194c:	00161613          	slli	a2,a2,0x1
   11950:	d2c7e6e3          	bltu	a5,a2,1167c <_malloc_r+0x288>
   11954:	d20604e3          	beqz	a2,1167c <_malloc_r+0x288>
   11958:	00f67733          	and	a4,a2,a5
   1195c:	00071a63          	bnez	a4,11970 <_malloc_r+0x57c>
   11960:	00161613          	slli	a2,a2,0x1
   11964:	00f67733          	and	a4,a2,a5
   11968:	004e0e13          	addi	t3,t3,4
   1196c:	fe070ae3          	beqz	a4,11960 <_malloc_r+0x56c>
   11970:	000e0593          	mv	a1,t3
   11974:	c89ff06f          	j	115fc <_malloc_r+0x208>
   11978:	08c18c13          	addi	s8,gp,140 # 2394c <__malloc_current_mallinfo>
   1197c:	000c2703          	lw	a4,0(s8)
   11980:	00ea8733          	add	a4,s5,a4
   11984:	00ec2023          	sw	a4,0(s8)
   11988:	000ca683          	lw	a3,0(s9)
   1198c:	fff00793          	li	a5,-1
   11990:	14f68863          	beq	a3,a5,11ae0 <_malloc_r+0x6ec>
   11994:	414b87b3          	sub	a5,s7,s4
   11998:	00e787b3          	add	a5,a5,a4
   1199c:	00fc2023          	sw	a5,0(s8)
   119a0:	007bfc93          	andi	s9,s7,7
   119a4:	0c0c8c63          	beqz	s9,11a7c <_malloc_r+0x688>
   119a8:	00001737          	lui	a4,0x1
   119ac:	419b8bb3          	sub	s7,s7,s9
   119b0:	00870593          	addi	a1,a4,8 # 1008 <exit-0xf08c>
   119b4:	008b8b93          	addi	s7,s7,8
   119b8:	419585b3          	sub	a1,a1,s9
   119bc:	015b8ab3          	add	s5,s7,s5
   119c0:	415585b3          	sub	a1,a1,s5
   119c4:	fff70713          	addi	a4,a4,-1
   119c8:	00e5fa33          	and	s4,a1,a4
   119cc:	000a0593          	mv	a1,s4
   119d0:	00090513          	mv	a0,s2
   119d4:	02c050ef          	jal	ra,16a00 <_sbrk_r>
   119d8:	fff00793          	li	a5,-1
   119dc:	14f50863          	beq	a0,a5,11b2c <_malloc_r+0x738>
   119e0:	41750533          	sub	a0,a0,s7
   119e4:	01450ab3          	add	s5,a0,s4
   119e8:	000c2703          	lw	a4,0(s8)
   119ec:	0179a423          	sw	s7,8(s3)
   119f0:	001ae793          	ori	a5,s5,1
   119f4:	00ea05b3          	add	a1,s4,a4
   119f8:	00bc2023          	sw	a1,0(s8)
   119fc:	00fba223          	sw	a5,4(s7)
   11a00:	d1340ae3          	beq	s0,s3,11714 <_malloc_r+0x320>
   11a04:	00f00693          	li	a3,15
   11a08:	0f66f063          	bgeu	a3,s6,11ae8 <_malloc_r+0x6f4>
   11a0c:	00442703          	lw	a4,4(s0)
   11a10:	ff4b0793          	addi	a5,s6,-12
   11a14:	ff87f793          	andi	a5,a5,-8
   11a18:	00177713          	andi	a4,a4,1
   11a1c:	00f76733          	or	a4,a4,a5
   11a20:	00e42223          	sw	a4,4(s0)
   11a24:	00500613          	li	a2,5
   11a28:	00f40733          	add	a4,s0,a5
   11a2c:	00c72223          	sw	a2,4(a4)
   11a30:	00c72423          	sw	a2,8(a4)
   11a34:	00f6e663          	bltu	a3,a5,11a40 <_malloc_r+0x64c>
   11a38:	004ba783          	lw	a5,4(s7)
   11a3c:	cd9ff06f          	j	11714 <_malloc_r+0x320>
   11a40:	00840593          	addi	a1,s0,8
   11a44:	00090513          	mv	a0,s2
   11a48:	ea8ff0ef          	jal	ra,110f0 <_free_r>
   11a4c:	0089ab83          	lw	s7,8(s3)
   11a50:	000c2583          	lw	a1,0(s8)
   11a54:	004ba783          	lw	a5,4(s7)
   11a58:	cbdff06f          	j	11714 <_malloc_r+0x320>
   11a5c:	010a8a93          	addi	s5,s5,16
   11a60:	c69ff06f          	j	116c8 <_malloc_r+0x2d4>
   11a64:	4026d693          	srai	a3,a3,0x2
   11a68:	00100793          	li	a5,1
   11a6c:	00d797b3          	sll	a5,a5,a3
   11a70:	00f56533          	or	a0,a0,a5
   11a74:	00a9a223          	sw	a0,4(s3)
   11a78:	d59ff06f          	j	117d0 <_malloc_r+0x3dc>
   11a7c:	015b85b3          	add	a1,s7,s5
   11a80:	40b005b3          	neg	a1,a1
   11a84:	01459593          	slli	a1,a1,0x14
   11a88:	0145da13          	srli	s4,a1,0x14
   11a8c:	000a0593          	mv	a1,s4
   11a90:	00090513          	mv	a0,s2
   11a94:	76d040ef          	jal	ra,16a00 <_sbrk_r>
   11a98:	fff00793          	li	a5,-1
   11a9c:	f4f512e3          	bne	a0,a5,119e0 <_malloc_r+0x5ec>
   11aa0:	00000a13          	li	s4,0
   11aa4:	f45ff06f          	j	119e8 <_malloc_r+0x5f4>
   11aa8:	05400693          	li	a3,84
   11aac:	04e6e463          	bltu	a3,a4,11af4 <_malloc_r+0x700>
   11ab0:	00c7d713          	srli	a4,a5,0xc
   11ab4:	06f70613          	addi	a2,a4,111
   11ab8:	06e70693          	addi	a3,a4,110
   11abc:	00361613          	slli	a2,a2,0x3
   11ac0:	ce5ff06f          	j	117a4 <_malloc_r+0x3b0>
   11ac4:	15400713          	li	a4,340
   11ac8:	04f76463          	bltu	a4,a5,11b10 <_malloc_r+0x71c>
   11acc:	00f4d793          	srli	a5,s1,0xf
   11ad0:	07878593          	addi	a1,a5,120
   11ad4:	07778813          	addi	a6,a5,119
   11ad8:	00359613          	slli	a2,a1,0x3
   11adc:	a29ff06f          	j	11504 <_malloc_r+0x110>
   11ae0:	017ca023          	sw	s7,0(s9)
   11ae4:	ebdff06f          	j	119a0 <_malloc_r+0x5ac>
   11ae8:	00100793          	li	a5,1
   11aec:	00fba223          	sw	a5,4(s7)
   11af0:	e15ff06f          	j	11904 <_malloc_r+0x510>
   11af4:	15400693          	li	a3,340
   11af8:	04e6e463          	bltu	a3,a4,11b40 <_malloc_r+0x74c>
   11afc:	00f7d713          	srli	a4,a5,0xf
   11b00:	07870613          	addi	a2,a4,120
   11b04:	07770693          	addi	a3,a4,119
   11b08:	00361613          	slli	a2,a2,0x3
   11b0c:	c99ff06f          	j	117a4 <_malloc_r+0x3b0>
   11b10:	55400713          	li	a4,1364
   11b14:	04f76463          	bltu	a4,a5,11b5c <_malloc_r+0x768>
   11b18:	0124d793          	srli	a5,s1,0x12
   11b1c:	07d78593          	addi	a1,a5,125
   11b20:	07c78813          	addi	a6,a5,124
   11b24:	00359613          	slli	a2,a1,0x3
   11b28:	9ddff06f          	j	11504 <_malloc_r+0x110>
   11b2c:	ff8c8c93          	addi	s9,s9,-8
   11b30:	019a8ab3          	add	s5,s5,s9
   11b34:	417a8ab3          	sub	s5,s5,s7
   11b38:	00000a13          	li	s4,0
   11b3c:	eadff06f          	j	119e8 <_malloc_r+0x5f4>
   11b40:	55400693          	li	a3,1364
   11b44:	02e6e463          	bltu	a3,a4,11b6c <_malloc_r+0x778>
   11b48:	0127d713          	srli	a4,a5,0x12
   11b4c:	07d70613          	addi	a2,a4,125
   11b50:	07c70693          	addi	a3,a4,124
   11b54:	00361613          	slli	a2,a2,0x3
   11b58:	c4dff06f          	j	117a4 <_malloc_r+0x3b0>
   11b5c:	3f800613          	li	a2,1016
   11b60:	07f00593          	li	a1,127
   11b64:	07e00813          	li	a6,126
   11b68:	99dff06f          	j	11504 <_malloc_r+0x110>
   11b6c:	3f800613          	li	a2,1016
   11b70:	07e00693          	li	a3,126
   11b74:	c31ff06f          	j	117a4 <_malloc_r+0x3b0>
   11b78:	0049a783          	lw	a5,4(s3)
   11b7c:	dd1ff06f          	j	1194c <_malloc_r+0x558>

00011b80 <__malloc_lock>:
   11b80:	00008067          	ret

00011b84 <__malloc_unlock>:
   11b84:	00008067          	ret

00011b88 <_vfprintf_r>:
   11b88:	e1010113          	addi	sp,sp,-496
   11b8c:	1e112623          	sw	ra,492(sp)
   11b90:	1e812423          	sw	s0,488(sp)
   11b94:	1da12023          	sw	s10,448(sp)
   11b98:	00b12023          	sw	a1,0(sp)
   11b9c:	00060d13          	mv	s10,a2
   11ba0:	00d12623          	sw	a3,12(sp)
   11ba4:	1e912223          	sw	s1,484(sp)
   11ba8:	1f212023          	sw	s2,480(sp)
   11bac:	1d312e23          	sw	s3,476(sp)
   11bb0:	1d412c23          	sw	s4,472(sp)
   11bb4:	1d512a23          	sw	s5,468(sp)
   11bb8:	1d612823          	sw	s6,464(sp)
   11bbc:	1d712623          	sw	s7,460(sp)
   11bc0:	1d812423          	sw	s8,456(sp)
   11bc4:	1d912223          	sw	s9,452(sp)
   11bc8:	1bb12e23          	sw	s11,444(sp)
   11bcc:	00050413          	mv	s0,a0
   11bd0:	02a12023          	sw	a0,32(sp)
   11bd4:	61d040ef          	jal	ra,169f0 <_localeconv_r>
   11bd8:	00052703          	lw	a4,0(a0)
   11bdc:	00070513          	mv	a0,a4
   11be0:	02e12423          	sw	a4,40(sp)
   11be4:	7e5040ef          	jal	ra,16bc8 <strlen>
   11be8:	02a12223          	sw	a0,36(sp)
   11bec:	0e012823          	sw	zero,240(sp)
   11bf0:	0e012a23          	sw	zero,244(sp)
   11bf4:	0e012c23          	sw	zero,248(sp)
   11bf8:	0e012e23          	sw	zero,252(sp)
   11bfc:	00040863          	beqz	s0,11c0c <_vfprintf_r+0x84>
   11c00:	03442783          	lw	a5,52(s0)
   11c04:	00079463          	bnez	a5,11c0c <_vfprintf_r+0x84>
   11c08:	0350106f          	j	1343c <_vfprintf_r+0x18b4>
   11c0c:	00012603          	lw	a2,0(sp)
   11c10:	00c61783          	lh	a5,12(a2)
   11c14:	01279713          	slli	a4,a5,0x12
   11c18:	02074663          	bltz	a4,11c44 <_vfprintf_r+0xbc>
   11c1c:	06462703          	lw	a4,100(a2)
   11c20:	000026b7          	lui	a3,0x2
   11c24:	00d7e7b3          	or	a5,a5,a3
   11c28:	ffffe6b7          	lui	a3,0xffffe
   11c2c:	01079793          	slli	a5,a5,0x10
   11c30:	fff68693          	addi	a3,a3,-1 # ffffdfff <__BSS_END__+0xfffda4fb>
   11c34:	4107d793          	srai	a5,a5,0x10
   11c38:	00d77733          	and	a4,a4,a3
   11c3c:	00f61623          	sh	a5,12(a2)
   11c40:	06e62223          	sw	a4,100(a2)
   11c44:	0087f713          	andi	a4,a5,8
   11c48:	2e070263          	beqz	a4,11f2c <_vfprintf_r+0x3a4>
   11c4c:	00012703          	lw	a4,0(sp)
   11c50:	01072703          	lw	a4,16(a4)
   11c54:	2c070c63          	beqz	a4,11f2c <_vfprintf_r+0x3a4>
   11c58:	01a7f793          	andi	a5,a5,26
   11c5c:	00a00713          	li	a4,10
   11c60:	2ee78a63          	beq	a5,a4,11f54 <_vfprintf_r+0x3cc>
   11c64:	000d0c13          	mv	s8,s10
   11c68:	000c4703          	lbu	a4,0(s8)
   11c6c:	10c10d93          	addi	s11,sp,268
   11c70:	0fb12223          	sw	s11,228(sp)
   11c74:	0e012623          	sw	zero,236(sp)
   11c78:	0e012423          	sw	zero,232(sp)
   11c7c:	00012a23          	sw	zero,20(sp)
   11c80:	02012623          	sw	zero,44(sp)
   11c84:	02012c23          	sw	zero,56(sp)
   11c88:	02012a23          	sw	zero,52(sp)
   11c8c:	04012023          	sw	zero,64(sp)
   11c90:	02012e23          	sw	zero,60(sp)
   11c94:	00012223          	sw	zero,4(sp)
   11c98:	02012983          	lw	s3,32(sp)
   11c9c:	01000b13          	li	s6,16
   11ca0:	000d8413          	mv	s0,s11
   11ca4:	22070463          	beqz	a4,11ecc <_vfprintf_r+0x344>
   11ca8:	000c0493          	mv	s1,s8
   11cac:	02500693          	li	a3,37
   11cb0:	40d70863          	beq	a4,a3,120c0 <_vfprintf_r+0x538>
   11cb4:	0014c703          	lbu	a4,1(s1)
   11cb8:	00148493          	addi	s1,s1,1
   11cbc:	fe071ae3          	bnez	a4,11cb0 <_vfprintf_r+0x128>
   11cc0:	41848933          	sub	s2,s1,s8
   11cc4:	21848463          	beq	s1,s8,11ecc <_vfprintf_r+0x344>
   11cc8:	0ec12683          	lw	a3,236(sp)
   11ccc:	0e812703          	lw	a4,232(sp)
   11cd0:	01842023          	sw	s8,0(s0)
   11cd4:	012686b3          	add	a3,a3,s2
   11cd8:	00170713          	addi	a4,a4,1
   11cdc:	01242223          	sw	s2,4(s0)
   11ce0:	0ed12623          	sw	a3,236(sp)
   11ce4:	0ee12423          	sw	a4,232(sp)
   11ce8:	00700693          	li	a3,7
   11cec:	00840413          	addi	s0,s0,8
   11cf0:	3ee6c063          	blt	a3,a4,120d0 <_vfprintf_r+0x548>
   11cf4:	00412783          	lw	a5,4(sp)
   11cf8:	0004c703          	lbu	a4,0(s1)
   11cfc:	012787b3          	add	a5,a5,s2
   11d00:	00f12223          	sw	a5,4(sp)
   11d04:	1c070463          	beqz	a4,11ecc <_vfprintf_r+0x344>
   11d08:	0014c883          	lbu	a7,1(s1)
   11d0c:	0c0103a3          	sb	zero,199(sp)
   11d10:	00148493          	addi	s1,s1,1
   11d14:	fff00913          	li	s2,-1
   11d18:	00000a13          	li	s4,0
   11d1c:	00000b93          	li	s7,0
   11d20:	05a00c93          	li	s9,90
   11d24:	00148493          	addi	s1,s1,1
   11d28:	fe088793          	addi	a5,a7,-32
   11d2c:	04fcea63          	bltu	s9,a5,11d80 <_vfprintf_r+0x1f8>
   11d30:	00010717          	auipc	a4,0x10
   11d34:	17c70713          	addi	a4,a4,380 # 21eac <__clzsi2+0x194>
   11d38:	00279793          	slli	a5,a5,0x2
   11d3c:	00e787b3          	add	a5,a5,a4
   11d40:	0007a783          	lw	a5,0(a5)
   11d44:	00e787b3          	add	a5,a5,a4
   11d48:	00078067          	jr	a5
   11d4c:	00000a13          	li	s4,0
   11d50:	fd088793          	addi	a5,a7,-48
   11d54:	00900693          	li	a3,9
   11d58:	0004c883          	lbu	a7,0(s1)
   11d5c:	002a1713          	slli	a4,s4,0x2
   11d60:	01470a33          	add	s4,a4,s4
   11d64:	001a1a13          	slli	s4,s4,0x1
   11d68:	01478a33          	add	s4,a5,s4
   11d6c:	fd088793          	addi	a5,a7,-48
   11d70:	00148493          	addi	s1,s1,1
   11d74:	fef6f2e3          	bgeu	a3,a5,11d58 <_vfprintf_r+0x1d0>
   11d78:	fe088793          	addi	a5,a7,-32
   11d7c:	fafcfae3          	bgeu	s9,a5,11d30 <_vfprintf_r+0x1a8>
   11d80:	14088663          	beqz	a7,11ecc <_vfprintf_r+0x344>
   11d84:	15110623          	sb	a7,332(sp)
   11d88:	0c0103a3          	sb	zero,199(sp)
   11d8c:	00100c93          	li	s9,1
   11d90:	00100d13          	li	s10,1
   11d94:	14c10c13          	addi	s8,sp,332
   11d98:	00012423          	sw	zero,8(sp)
   11d9c:	00000913          	li	s2,0
   11da0:	00012e23          	sw	zero,28(sp)
   11da4:	00012c23          	sw	zero,24(sp)
   11da8:	00012823          	sw	zero,16(sp)
   11dac:	002bf293          	andi	t0,s7,2
   11db0:	00028463          	beqz	t0,11db8 <_vfprintf_r+0x230>
   11db4:	002c8c93          	addi	s9,s9,2
   11db8:	084bff93          	andi	t6,s7,132
   11dbc:	0ec12603          	lw	a2,236(sp)
   11dc0:	000f9663          	bnez	t6,11dcc <_vfprintf_r+0x244>
   11dc4:	419a06b3          	sub	a3,s4,s9
   11dc8:	42d04ce3          	bgtz	a3,12a00 <_vfprintf_r+0xe78>
   11dcc:	0c714683          	lbu	a3,199(sp)
   11dd0:	02068a63          	beqz	a3,11e04 <_vfprintf_r+0x27c>
   11dd4:	0e812683          	lw	a3,232(sp)
   11dd8:	0c710593          	addi	a1,sp,199
   11ddc:	00b42023          	sw	a1,0(s0)
   11de0:	00160613          	addi	a2,a2,1
   11de4:	00100593          	li	a1,1
   11de8:	00168693          	addi	a3,a3,1
   11dec:	00b42223          	sw	a1,4(s0)
   11df0:	0ec12623          	sw	a2,236(sp)
   11df4:	0ed12423          	sw	a3,232(sp)
   11df8:	00700593          	li	a1,7
   11dfc:	00840413          	addi	s0,s0,8
   11e00:	3cd5c663          	blt	a1,a3,121cc <_vfprintf_r+0x644>
   11e04:	02028a63          	beqz	t0,11e38 <_vfprintf_r+0x2b0>
   11e08:	0e812683          	lw	a3,232(sp)
   11e0c:	00200593          	li	a1,2
   11e10:	00260613          	addi	a2,a2,2
   11e14:	00168693          	addi	a3,a3,1
   11e18:	0c810793          	addi	a5,sp,200
   11e1c:	00b42223          	sw	a1,4(s0)
   11e20:	00f42023          	sw	a5,0(s0)
   11e24:	0ec12623          	sw	a2,236(sp)
   11e28:	0ed12423          	sw	a3,232(sp)
   11e2c:	00700593          	li	a1,7
   11e30:	00840413          	addi	s0,s0,8
   11e34:	4ed5c0e3          	blt	a1,a3,12b14 <_vfprintf_r+0xf8c>
   11e38:	08000693          	li	a3,128
   11e3c:	1adf8ee3          	beq	t6,a3,127f8 <_vfprintf_r+0xc70>
   11e40:	41a90933          	sub	s2,s2,s10
   11e44:	2b2048e3          	bgtz	s2,128f4 <_vfprintf_r+0xd6c>
   11e48:	100bf693          	andi	a3,s7,256
   11e4c:	020694e3          	bnez	a3,12674 <_vfprintf_r+0xaec>
   11e50:	0e812783          	lw	a5,232(sp)
   11e54:	01a60633          	add	a2,a2,s10
   11e58:	01842023          	sw	s8,0(s0)
   11e5c:	00178793          	addi	a5,a5,1
   11e60:	01a42223          	sw	s10,4(s0)
   11e64:	0ec12623          	sw	a2,236(sp)
   11e68:	0ef12423          	sw	a5,232(sp)
   11e6c:	00700693          	li	a3,7
   11e70:	48f6ce63          	blt	a3,a5,1230c <_vfprintf_r+0x784>
   11e74:	00840413          	addi	s0,s0,8
   11e78:	004bf713          	andi	a4,s7,4
   11e7c:	00070663          	beqz	a4,11e88 <_vfprintf_r+0x300>
   11e80:	419a0933          	sub	s2,s4,s9
   11e84:	4d2040e3          	bgtz	s2,12b44 <_vfprintf_r+0xfbc>
   11e88:	000a0313          	mv	t1,s4
   11e8c:	019a5463          	bge	s4,s9,11e94 <_vfprintf_r+0x30c>
   11e90:	000c8313          	mv	t1,s9
   11e94:	00412783          	lw	a5,4(sp)
   11e98:	006787b3          	add	a5,a5,t1
   11e9c:	00f12223          	sw	a5,4(sp)
   11ea0:	320618e3          	bnez	a2,129d0 <_vfprintf_r+0xe48>
   11ea4:	00812783          	lw	a5,8(sp)
   11ea8:	0e012423          	sw	zero,232(sp)
   11eac:	00078863          	beqz	a5,11ebc <_vfprintf_r+0x334>
   11eb0:	00812583          	lw	a1,8(sp)
   11eb4:	00098513          	mv	a0,s3
   11eb8:	a38ff0ef          	jal	ra,110f0 <_free_r>
   11ebc:	000d8413          	mv	s0,s11
   11ec0:	00048c13          	mv	s8,s1
   11ec4:	000c4703          	lbu	a4,0(s8)
   11ec8:	de0710e3          	bnez	a4,11ca8 <_vfprintf_r+0x120>
   11ecc:	0ec12783          	lw	a5,236(sp)
   11ed0:	00078463          	beqz	a5,11ed8 <_vfprintf_r+0x350>
   11ed4:	2a90106f          	j	1397c <_vfprintf_r+0x1df4>
   11ed8:	00012783          	lw	a5,0(sp)
   11edc:	00c7d783          	lhu	a5,12(a5)
   11ee0:	0407f793          	andi	a5,a5,64
   11ee4:	00078463          	beqz	a5,11eec <_vfprintf_r+0x364>
   11ee8:	28c0206f          	j	14174 <_vfprintf_r+0x25ec>
   11eec:	1ec12083          	lw	ra,492(sp)
   11ef0:	1e812403          	lw	s0,488(sp)
   11ef4:	00412503          	lw	a0,4(sp)
   11ef8:	1e412483          	lw	s1,484(sp)
   11efc:	1e012903          	lw	s2,480(sp)
   11f00:	1dc12983          	lw	s3,476(sp)
   11f04:	1d812a03          	lw	s4,472(sp)
   11f08:	1d412a83          	lw	s5,468(sp)
   11f0c:	1d012b03          	lw	s6,464(sp)
   11f10:	1cc12b83          	lw	s7,460(sp)
   11f14:	1c812c03          	lw	s8,456(sp)
   11f18:	1c412c83          	lw	s9,452(sp)
   11f1c:	1c012d03          	lw	s10,448(sp)
   11f20:	1bc12d83          	lw	s11,444(sp)
   11f24:	1f010113          	addi	sp,sp,496
   11f28:	00008067          	ret
   11f2c:	00012583          	lw	a1,0(sp)
   11f30:	02012503          	lw	a0,32(sp)
   11f34:	570040ef          	jal	ra,164a4 <__swsetup_r>
   11f38:	00050463          	beqz	a0,11f40 <_vfprintf_r+0x3b8>
   11f3c:	2380206f          	j	14174 <_vfprintf_r+0x25ec>
   11f40:	00012783          	lw	a5,0(sp)
   11f44:	00a00713          	li	a4,10
   11f48:	00c79783          	lh	a5,12(a5)
   11f4c:	01a7f793          	andi	a5,a5,26
   11f50:	d0e79ae3          	bne	a5,a4,11c64 <_vfprintf_r+0xdc>
   11f54:	00012783          	lw	a5,0(sp)
   11f58:	00e79783          	lh	a5,14(a5)
   11f5c:	d007c4e3          	bltz	a5,11c64 <_vfprintf_r+0xdc>
   11f60:	00c12683          	lw	a3,12(sp)
   11f64:	00012583          	lw	a1,0(sp)
   11f68:	02012503          	lw	a0,32(sp)
   11f6c:	000d0613          	mv	a2,s10
   11f70:	5cc020ef          	jal	ra,1453c <__sbprintf>
   11f74:	00a12223          	sw	a0,4(sp)
   11f78:	f75ff06f          	j	11eec <_vfprintf_r+0x364>
   11f7c:	00098513          	mv	a0,s3
   11f80:	271040ef          	jal	ra,169f0 <_localeconv_r>
   11f84:	00452783          	lw	a5,4(a0)
   11f88:	00078513          	mv	a0,a5
   11f8c:	02f12e23          	sw	a5,60(sp)
   11f90:	439040ef          	jal	ra,16bc8 <strlen>
   11f94:	00050793          	mv	a5,a0
   11f98:	00098513          	mv	a0,s3
   11f9c:	00078a93          	mv	s5,a5
   11fa0:	04f12023          	sw	a5,64(sp)
   11fa4:	24d040ef          	jal	ra,169f0 <_localeconv_r>
   11fa8:	00852703          	lw	a4,8(a0)
   11fac:	02e12a23          	sw	a4,52(sp)
   11fb0:	740a98e3          	bnez	s5,12f00 <_vfprintf_r+0x1378>
   11fb4:	0004c883          	lbu	a7,0(s1)
   11fb8:	d6dff06f          	j	11d24 <_vfprintf_r+0x19c>
   11fbc:	0004c883          	lbu	a7,0(s1)
   11fc0:	020beb93          	ori	s7,s7,32
   11fc4:	d61ff06f          	j	11d24 <_vfprintf_r+0x19c>
   11fc8:	010beb93          	ori	s7,s7,16
   11fcc:	020bf793          	andi	a5,s7,32
   11fd0:	38078663          	beqz	a5,1235c <_vfprintf_r+0x7d4>
   11fd4:	00c12783          	lw	a5,12(sp)
   11fd8:	00778a93          	addi	s5,a5,7
   11fdc:	ff8afa93          	andi	s5,s5,-8
   11fe0:	004aa783          	lw	a5,4(s5)
   11fe4:	000aad03          	lw	s10,0(s5)
   11fe8:	008a8713          	addi	a4,s5,8
   11fec:	00e12623          	sw	a4,12(sp)
   11ff0:	00078c93          	mv	s9,a5
   11ff4:	3807ce63          	bltz	a5,12390 <_vfprintf_r+0x808>
   11ff8:	fff00793          	li	a5,-1
   11ffc:	000b8613          	mv	a2,s7
   12000:	4cf90463          	beq	s2,a5,124c8 <_vfprintf_r+0x940>
   12004:	019d67b3          	or	a5,s10,s9
   12008:	f7fbf613          	andi	a2,s7,-129
   1200c:	4a079e63          	bnez	a5,124c8 <_vfprintf_r+0x940>
   12010:	4c091263          	bnez	s2,124d4 <_vfprintf_r+0x94c>
   12014:	00000d13          	li	s10,0
   12018:	00060b93          	mv	s7,a2
   1201c:	1b010c13          	addi	s8,sp,432
   12020:	0c714683          	lbu	a3,199(sp)
   12024:	00090c93          	mv	s9,s2
   12028:	01a95463          	bge	s2,s10,12030 <_vfprintf_r+0x4a8>
   1202c:	000d0c93          	mv	s9,s10
   12030:	00012423          	sw	zero,8(sp)
   12034:	00012e23          	sw	zero,28(sp)
   12038:	00012c23          	sw	zero,24(sp)
   1203c:	00012823          	sw	zero,16(sp)
   12040:	d60686e3          	beqz	a3,11dac <_vfprintf_r+0x224>
   12044:	001c8c93          	addi	s9,s9,1
   12048:	d65ff06f          	j	11dac <_vfprintf_r+0x224>
   1204c:	010beb93          	ori	s7,s7,16
   12050:	020bf793          	andi	a5,s7,32
   12054:	2c078c63          	beqz	a5,1232c <_vfprintf_r+0x7a4>
   12058:	00c12783          	lw	a5,12(sp)
   1205c:	00778a93          	addi	s5,a5,7
   12060:	ff8afa93          	andi	s5,s5,-8
   12064:	000aad03          	lw	s10,0(s5)
   12068:	004aac83          	lw	s9,4(s5)
   1206c:	008a8793          	addi	a5,s5,8
   12070:	00f12623          	sw	a5,12(sp)
   12074:	bffbf613          	andi	a2,s7,-1025
   12078:	00000793          	li	a5,0
   1207c:	00000713          	li	a4,0
   12080:	0ce103a3          	sb	a4,199(sp)
   12084:	fff00713          	li	a4,-1
   12088:	32e90863          	beq	s2,a4,123b8 <_vfprintf_r+0x830>
   1208c:	019d65b3          	or	a1,s10,s9
   12090:	f7f67b93          	andi	s7,a2,-129
   12094:	160592e3          	bnez	a1,129f8 <_vfprintf_r+0xe70>
   12098:	00090463          	beqz	s2,120a0 <_vfprintf_r+0x518>
   1209c:	3cc0106f          	j	13468 <_vfprintf_r+0x18e0>
   120a0:	5c0798e3          	bnez	a5,12e70 <_vfprintf_r+0x12e8>
   120a4:	00167d13          	andi	s10,a2,1
   120a8:	1b010c13          	addi	s8,sp,432
   120ac:	f60d0ae3          	beqz	s10,12020 <_vfprintf_r+0x498>
   120b0:	03000793          	li	a5,48
   120b4:	1af107a3          	sb	a5,431(sp)
   120b8:	1af10c13          	addi	s8,sp,431
   120bc:	f65ff06f          	j	12020 <_vfprintf_r+0x498>
   120c0:	41848933          	sub	s2,s1,s8
   120c4:	c18492e3          	bne	s1,s8,11cc8 <_vfprintf_r+0x140>
   120c8:	0004c703          	lbu	a4,0(s1)
   120cc:	c39ff06f          	j	11d04 <_vfprintf_r+0x17c>
   120d0:	00012583          	lw	a1,0(sp)
   120d4:	0e410613          	addi	a2,sp,228
   120d8:	00098513          	mv	a0,s3
   120dc:	620020ef          	jal	ra,146fc <__sprint_r>
   120e0:	de051ce3          	bnez	a0,11ed8 <_vfprintf_r+0x350>
   120e4:	000d8413          	mv	s0,s11
   120e8:	c0dff06f          	j	11cf4 <_vfprintf_r+0x16c>
   120ec:	008bf693          	andi	a3,s7,8
   120f0:	5e0696e3          	bnez	a3,12edc <_vfprintf_r+0x1354>
   120f4:	00c12783          	lw	a5,12(sp)
   120f8:	0b010513          	addi	a0,sp,176
   120fc:	01112423          	sw	a7,8(sp)
   12100:	00778a93          	addi	s5,a5,7
   12104:	ff8afa93          	andi	s5,s5,-8
   12108:	000aa583          	lw	a1,0(s5)
   1210c:	004aa603          	lw	a2,4(s5)
   12110:	008a8793          	addi	a5,s5,8
   12114:	00f12623          	sw	a5,12(sp)
   12118:	1210f0ef          	jal	ra,21a38 <__extenddftf2>
   1211c:	0b012803          	lw	a6,176(sp)
   12120:	0b412583          	lw	a1,180(sp)
   12124:	0b812603          	lw	a2,184(sp)
   12128:	0bc12683          	lw	a3,188(sp)
   1212c:	00812883          	lw	a7,8(sp)
   12130:	0f010513          	addi	a0,sp,240
   12134:	01112423          	sw	a7,8(sp)
   12138:	0ed12e23          	sw	a3,252(sp)
   1213c:	0f012823          	sw	a6,240(sp)
   12140:	0eb12a23          	sw	a1,244(sp)
   12144:	0ec12c23          	sw	a2,248(sp)
   12148:	18c050ef          	jal	ra,172d4 <_ldcheck>
   1214c:	0ca12623          	sw	a0,204(sp)
   12150:	00200693          	li	a3,2
   12154:	00812883          	lw	a7,8(sp)
   12158:	00d51463          	bne	a0,a3,12160 <_vfprintf_r+0x5d8>
   1215c:	3500106f          	j	134ac <_vfprintf_r+0x1924>
   12160:	00100693          	li	a3,1
   12164:	00d51463          	bne	a0,a3,1216c <_vfprintf_r+0x5e4>
   12168:	49c0106f          	j	13604 <_vfprintf_r+0x1a7c>
   1216c:	06100693          	li	a3,97
   12170:	72d88ae3          	beq	a7,a3,130a4 <_vfprintf_r+0x151c>
   12174:	04100693          	li	a3,65
   12178:	05800793          	li	a5,88
   1217c:	72d886e3          	beq	a7,a3,130a8 <_vfprintf_r+0x1520>
   12180:	fff00693          	li	a3,-1
   12184:	00d91463          	bne	s2,a3,1218c <_vfprintf_r+0x604>
   12188:	1600206f          	j	142e8 <_vfprintf_r+0x2760>
   1218c:	fdf8f693          	andi	a3,a7,-33
   12190:	04700613          	li	a2,71
   12194:	00c69463          	bne	a3,a2,1219c <_vfprintf_r+0x614>
   12198:	1400206f          	j	142d8 <_vfprintf_r+0x2750>
   1219c:	0fc12e03          	lw	t3,252(sp)
   121a0:	100be793          	ori	a5,s7,256
   121a4:	04f12423          	sw	a5,72(sp)
   121a8:	03712823          	sw	s7,48(sp)
   121ac:	0f012f83          	lw	t6,240(sp)
   121b0:	0f412f03          	lw	t5,244(sp)
   121b4:	0f812e83          	lw	t4,248(sp)
   121b8:	000e5463          	bgez	t3,121c0 <_vfprintf_r+0x638>
   121bc:	7dc0106f          	j	13998 <_vfprintf_r+0x1e10>
   121c0:	06012023          	sw	zero,96(sp)
   121c4:	00012423          	sw	zero,8(sp)
   121c8:	7310006f          	j	130f8 <_vfprintf_r+0x1570>
   121cc:	00012583          	lw	a1,0(sp)
   121d0:	0e410613          	addi	a2,sp,228
   121d4:	00098513          	mv	a0,s3
   121d8:	05112423          	sw	a7,72(sp)
   121dc:	05f12223          	sw	t6,68(sp)
   121e0:	02512823          	sw	t0,48(sp)
   121e4:	518020ef          	jal	ra,146fc <__sprint_r>
   121e8:	7e051e63          	bnez	a0,129e4 <_vfprintf_r+0xe5c>
   121ec:	0ec12603          	lw	a2,236(sp)
   121f0:	04812883          	lw	a7,72(sp)
   121f4:	04412f83          	lw	t6,68(sp)
   121f8:	03012283          	lw	t0,48(sp)
   121fc:	000d8413          	mv	s0,s11
   12200:	c05ff06f          	j	11e04 <_vfprintf_r+0x27c>
   12204:	0e812903          	lw	s2,232(sp)
   12208:	01412783          	lw	a5,20(sp)
   1220c:	00100693          	li	a3,1
   12210:	01842023          	sw	s8,0(s0)
   12214:	00160a93          	addi	s5,a2,1
   12218:	00190913          	addi	s2,s2,1
   1221c:	00840d13          	addi	s10,s0,8
   12220:	34f6dee3          	bge	a3,a5,12d7c <_vfprintf_r+0x11f4>
   12224:	00100693          	li	a3,1
   12228:	00d42223          	sw	a3,4(s0)
   1222c:	0f512623          	sw	s5,236(sp)
   12230:	0f212423          	sw	s2,232(sp)
   12234:	00700693          	li	a3,7
   12238:	0126d463          	bge	a3,s2,12240 <_vfprintf_r+0x6b8>
   1223c:	0580106f          	j	13294 <_vfprintf_r+0x170c>
   12240:	02412783          	lw	a5,36(sp)
   12244:	02812703          	lw	a4,40(sp)
   12248:	00190913          	addi	s2,s2,1
   1224c:	00fa8ab3          	add	s5,s5,a5
   12250:	00ed2023          	sw	a4,0(s10)
   12254:	00fd2223          	sw	a5,4(s10)
   12258:	0f512623          	sw	s5,236(sp)
   1225c:	0f212423          	sw	s2,232(sp)
   12260:	00700693          	li	a3,7
   12264:	008d0d13          	addi	s10,s10,8
   12268:	0126d463          	bge	a3,s2,12270 <_vfprintf_r+0x6e8>
   1226c:	04c0106f          	j	132b8 <_vfprintf_r+0x1730>
   12270:	0f012683          	lw	a3,240(sp)
   12274:	0a010593          	addi	a1,sp,160
   12278:	0b010513          	addi	a0,sp,176
   1227c:	0ad12823          	sw	a3,176(sp)
   12280:	0f412683          	lw	a3,244(sp)
   12284:	0a012023          	sw	zero,160(sp)
   12288:	0a012223          	sw	zero,164(sp)
   1228c:	0ad12a23          	sw	a3,180(sp)
   12290:	0f812683          	lw	a3,248(sp)
   12294:	0a012423          	sw	zero,168(sp)
   12298:	0a012623          	sw	zero,172(sp)
   1229c:	0ad12c23          	sw	a3,184(sp)
   122a0:	0fc12683          	lw	a3,252(sp)
   122a4:	0ad12e23          	sw	a3,188(sp)
   122a8:	0010c0ef          	jal	ra,1eaa8 <__eqtf2>
   122ac:	01412783          	lw	a5,20(sp)
   122b0:	fff78413          	addi	s0,a5,-1
   122b4:	300504e3          	beqz	a0,12dbc <_vfprintf_r+0x1234>
   122b8:	001c0793          	addi	a5,s8,1
   122bc:	00190913          	addi	s2,s2,1
   122c0:	008a8ab3          	add	s5,s5,s0
   122c4:	00fd2023          	sw	a5,0(s10)
   122c8:	008d2223          	sw	s0,4(s10)
   122cc:	0f512623          	sw	s5,236(sp)
   122d0:	0f212423          	sw	s2,232(sp)
   122d4:	00700793          	li	a5,7
   122d8:	008d0d13          	addi	s10,s10,8
   122dc:	2b27cee3          	blt	a5,s2,12d98 <_vfprintf_r+0x1210>
   122e0:	03812703          	lw	a4,56(sp)
   122e4:	0d410693          	addi	a3,sp,212
   122e8:	00190793          	addi	a5,s2,1
   122ec:	01570633          	add	a2,a4,s5
   122f0:	00dd2023          	sw	a3,0(s10)
   122f4:	00ed2223          	sw	a4,4(s10)
   122f8:	0ec12623          	sw	a2,236(sp)
   122fc:	0ef12423          	sw	a5,232(sp)
   12300:	00700693          	li	a3,7
   12304:	008d0413          	addi	s0,s10,8
   12308:	b6f6d8e3          	bge	a3,a5,11e78 <_vfprintf_r+0x2f0>
   1230c:	00012583          	lw	a1,0(sp)
   12310:	0e410613          	addi	a2,sp,228
   12314:	00098513          	mv	a0,s3
   12318:	3e4020ef          	jal	ra,146fc <__sprint_r>
   1231c:	6c051463          	bnez	a0,129e4 <_vfprintf_r+0xe5c>
   12320:	0ec12603          	lw	a2,236(sp)
   12324:	000d8413          	mv	s0,s11
   12328:	b51ff06f          	j	11e78 <_vfprintf_r+0x2f0>
   1232c:	00c12703          	lw	a4,12(sp)
   12330:	010bf793          	andi	a5,s7,16
   12334:	00072683          	lw	a3,0(a4)
   12338:	00470713          	addi	a4,a4,4
   1233c:	00e12623          	sw	a4,12(sp)
   12340:	380798e3          	bnez	a5,12ed0 <_vfprintf_r+0x1348>
   12344:	040bf793          	andi	a5,s7,64
   12348:	380780e3          	beqz	a5,12ec8 <_vfprintf_r+0x1340>
   1234c:	01069d13          	slli	s10,a3,0x10
   12350:	010d5d13          	srli	s10,s10,0x10
   12354:	00000c93          	li	s9,0
   12358:	d1dff06f          	j	12074 <_vfprintf_r+0x4ec>
   1235c:	00c12703          	lw	a4,12(sp)
   12360:	010bf793          	andi	a5,s7,16
   12364:	00072683          	lw	a3,0(a4)
   12368:	00470713          	addi	a4,a4,4
   1236c:	00e12623          	sw	a4,12(sp)
   12370:	320798e3          	bnez	a5,12ea0 <_vfprintf_r+0x1318>
   12374:	040bf793          	andi	a5,s7,64
   12378:	320780e3          	beqz	a5,12e98 <_vfprintf_r+0x1310>
   1237c:	01069d13          	slli	s10,a3,0x10
   12380:	410d5d13          	srai	s10,s10,0x10
   12384:	41fd5c93          	srai	s9,s10,0x1f
   12388:	000c8793          	mv	a5,s9
   1238c:	c607d6e3          	bgez	a5,11ff8 <_vfprintf_r+0x470>
   12390:	02d00713          	li	a4,45
   12394:	01a037b3          	snez	a5,s10
   12398:	41900833          	neg	a6,s9
   1239c:	0ce103a3          	sb	a4,199(sp)
   123a0:	fff00713          	li	a4,-1
   123a4:	40f80cb3          	sub	s9,a6,a5
   123a8:	41a00d33          	neg	s10,s10
   123ac:	000b8613          	mv	a2,s7
   123b0:	00100793          	li	a5,1
   123b4:	cce91ce3          	bne	s2,a4,1208c <_vfprintf_r+0x504>
   123b8:	00100713          	li	a4,1
   123bc:	10e78663          	beq	a5,a4,124c8 <_vfprintf_r+0x940>
   123c0:	00200713          	li	a4,2
   123c4:	3ee78863          	beq	a5,a4,127b4 <_vfprintf_r+0xc2c>
   123c8:	1b010c13          	addi	s8,sp,432
   123cc:	01dc9793          	slli	a5,s9,0x1d
   123d0:	007d7713          	andi	a4,s10,7
   123d4:	003d5d13          	srli	s10,s10,0x3
   123d8:	03070713          	addi	a4,a4,48
   123dc:	01a7ed33          	or	s10,a5,s10
   123e0:	003cdc93          	srli	s9,s9,0x3
   123e4:	feec0fa3          	sb	a4,-1(s8)
   123e8:	019d67b3          	or	a5,s10,s9
   123ec:	000c0513          	mv	a0,s8
   123f0:	fffc0c13          	addi	s8,s8,-1
   123f4:	fc079ce3          	bnez	a5,123cc <_vfprintf_r+0x844>
   123f8:	00167693          	andi	a3,a2,1
   123fc:	3e068663          	beqz	a3,127e8 <_vfprintf_r+0xc60>
   12400:	03000693          	li	a3,48
   12404:	3ed70263          	beq	a4,a3,127e8 <_vfprintf_r+0xc60>
   12408:	ffe50513          	addi	a0,a0,-2
   1240c:	1b010793          	addi	a5,sp,432
   12410:	fedc0fa3          	sb	a3,-1(s8)
   12414:	40a78d33          	sub	s10,a5,a0
   12418:	00060b93          	mv	s7,a2
   1241c:	00050c13          	mv	s8,a0
   12420:	c01ff06f          	j	12020 <_vfprintf_r+0x498>
   12424:	00c12703          	lw	a4,12(sp)
   12428:	0c0103a3          	sb	zero,199(sp)
   1242c:	00100c93          	li	s9,1
   12430:	00072783          	lw	a5,0(a4)
   12434:	00470713          	addi	a4,a4,4
   12438:	00e12623          	sw	a4,12(sp)
   1243c:	14f10623          	sb	a5,332(sp)
   12440:	00100d13          	li	s10,1
   12444:	14c10c13          	addi	s8,sp,332
   12448:	951ff06f          	j	11d98 <_vfprintf_r+0x210>
   1244c:	00c12783          	lw	a5,12(sp)
   12450:	0c0103a3          	sb	zero,199(sp)
   12454:	0007ac03          	lw	s8,0(a5)
   12458:	00478a93          	addi	s5,a5,4
   1245c:	3a0c0ae3          	beqz	s8,13010 <_vfprintf_r+0x1488>
   12460:	fff00693          	li	a3,-1
   12464:	00d91463          	bne	s2,a3,1246c <_vfprintf_r+0x8e4>
   12468:	13c0106f          	j	135a4 <_vfprintf_r+0x1a1c>
   1246c:	00090613          	mv	a2,s2
   12470:	00000593          	li	a1,0
   12474:	000c0513          	mv	a0,s8
   12478:	01112623          	sw	a7,12(sp)
   1247c:	2fc040ef          	jal	ra,16778 <memchr>
   12480:	00a12423          	sw	a0,8(sp)
   12484:	00c12883          	lw	a7,12(sp)
   12488:	00051463          	bnez	a0,12490 <_vfprintf_r+0x908>
   1248c:	3d50106f          	j	14060 <_vfprintf_r+0x24d8>
   12490:	00812783          	lw	a5,8(sp)
   12494:	0c714683          	lbu	a3,199(sp)
   12498:	01512623          	sw	s5,12(sp)
   1249c:	41878d33          	sub	s10,a5,s8
   124a0:	fffd4813          	not	a6,s10
   124a4:	41f85813          	srai	a6,a6,0x1f
   124a8:	00012423          	sw	zero,8(sp)
   124ac:	00012e23          	sw	zero,28(sp)
   124b0:	00012c23          	sw	zero,24(sp)
   124b4:	00012823          	sw	zero,16(sp)
   124b8:	010d7cb3          	and	s9,s10,a6
   124bc:	00000913          	li	s2,0
   124c0:	b80692e3          	bnez	a3,12044 <_vfprintf_r+0x4bc>
   124c4:	8e9ff06f          	j	11dac <_vfprintf_r+0x224>
   124c8:	620c94e3          	bnez	s9,132f0 <_vfprintf_r+0x1768>
   124cc:	00900793          	li	a5,9
   124d0:	63a7e0e3          	bltu	a5,s10,132f0 <_vfprintf_r+0x1768>
   124d4:	030d0693          	addi	a3,s10,48
   124d8:	1ad107a3          	sb	a3,431(sp)
   124dc:	00060b93          	mv	s7,a2
   124e0:	00100d13          	li	s10,1
   124e4:	1af10c13          	addi	s8,sp,431
   124e8:	b39ff06f          	j	12020 <_vfprintf_r+0x498>
   124ec:	00c12783          	lw	a5,12(sp)
   124f0:	0007aa03          	lw	s4,0(a5)
   124f4:	00478793          	addi	a5,a5,4
   124f8:	180a5ae3          	bgez	s4,12e8c <_vfprintf_r+0x1304>
   124fc:	41400a33          	neg	s4,s4
   12500:	00f12623          	sw	a5,12(sp)
   12504:	0004c883          	lbu	a7,0(s1)
   12508:	004beb93          	ori	s7,s7,4
   1250c:	819ff06f          	j	11d24 <_vfprintf_r+0x19c>
   12510:	010be613          	ori	a2,s7,16
   12514:	02067793          	andi	a5,a2,32
   12518:	120782e3          	beqz	a5,12e3c <_vfprintf_r+0x12b4>
   1251c:	00c12783          	lw	a5,12(sp)
   12520:	00778a93          	addi	s5,a5,7
   12524:	ff8afa93          	andi	s5,s5,-8
   12528:	008a8793          	addi	a5,s5,8
   1252c:	00f12623          	sw	a5,12(sp)
   12530:	000aad03          	lw	s10,0(s5)
   12534:	004aac83          	lw	s9,4(s5)
   12538:	00100793          	li	a5,1
   1253c:	b41ff06f          	j	1207c <_vfprintf_r+0x4f4>
   12540:	02b00793          	li	a5,43
   12544:	0004c883          	lbu	a7,0(s1)
   12548:	0cf103a3          	sb	a5,199(sp)
   1254c:	fd8ff06f          	j	11d24 <_vfprintf_r+0x19c>
   12550:	00c12703          	lw	a4,12(sp)
   12554:	ffff87b7          	lui	a5,0xffff8
   12558:	8307c793          	xori	a5,a5,-2000
   1255c:	0cf11423          	sh	a5,200(sp)
   12560:	00470793          	addi	a5,a4,4
   12564:	00f12623          	sw	a5,12(sp)
   12568:	00010797          	auipc	a5,0x10
   1256c:	91078793          	addi	a5,a5,-1776 # 21e78 <__clzsi2+0x160>
   12570:	02f12623          	sw	a5,44(sp)
   12574:	00072d03          	lw	s10,0(a4)
   12578:	00000c93          	li	s9,0
   1257c:	002be613          	ori	a2,s7,2
   12580:	00200793          	li	a5,2
   12584:	07800893          	li	a7,120
   12588:	af5ff06f          	j	1207c <_vfprintf_r+0x4f4>
   1258c:	020bf793          	andi	a5,s7,32
   12590:	18078ae3          	beqz	a5,12f24 <_vfprintf_r+0x139c>
   12594:	00c12783          	lw	a5,12(sp)
   12598:	00412683          	lw	a3,4(sp)
   1259c:	0007a783          	lw	a5,0(a5)
   125a0:	41f6d713          	srai	a4,a3,0x1f
   125a4:	00d7a023          	sw	a3,0(a5)
   125a8:	00e7a223          	sw	a4,4(a5)
   125ac:	00c12783          	lw	a5,12(sp)
   125b0:	00048c13          	mv	s8,s1
   125b4:	00478793          	addi	a5,a5,4
   125b8:	00f12623          	sw	a5,12(sp)
   125bc:	909ff06f          	j	11ec4 <_vfprintf_r+0x33c>
   125c0:	0004c883          	lbu	a7,0(s1)
   125c4:	06c00793          	li	a5,108
   125c8:	22f884e3          	beq	a7,a5,12ff0 <_vfprintf_r+0x1468>
   125cc:	010beb93          	ori	s7,s7,16
   125d0:	f54ff06f          	j	11d24 <_vfprintf_r+0x19c>
   125d4:	0004c883          	lbu	a7,0(s1)
   125d8:	06800793          	li	a5,104
   125dc:	1ef882e3          	beq	a7,a5,12fc0 <_vfprintf_r+0x1438>
   125e0:	040beb93          	ori	s7,s7,64
   125e4:	f40ff06f          	j	11d24 <_vfprintf_r+0x19c>
   125e8:	0004c883          	lbu	a7,0(s1)
   125ec:	008beb93          	ori	s7,s7,8
   125f0:	f34ff06f          	j	11d24 <_vfprintf_r+0x19c>
   125f4:	0004c883          	lbu	a7,0(s1)
   125f8:	001beb93          	ori	s7,s7,1
   125fc:	f28ff06f          	j	11d24 <_vfprintf_r+0x19c>
   12600:	0c714783          	lbu	a5,199(sp)
   12604:	0004c883          	lbu	a7,0(s1)
   12608:	f0079e63          	bnez	a5,11d24 <_vfprintf_r+0x19c>
   1260c:	02000793          	li	a5,32
   12610:	0cf103a3          	sb	a5,199(sp)
   12614:	f10ff06f          	j	11d24 <_vfprintf_r+0x19c>
   12618:	0004c883          	lbu	a7,0(s1)
   1261c:	080beb93          	ori	s7,s7,128
   12620:	f04ff06f          	j	11d24 <_vfprintf_r+0x19c>
   12624:	0004c883          	lbu	a7,0(s1)
   12628:	02a00793          	li	a5,42
   1262c:	00148713          	addi	a4,s1,1
   12630:	00f89463          	bne	a7,a5,12638 <_vfprintf_r+0xab0>
   12634:	6a50106f          	j	144d8 <_vfprintf_r+0x2950>
   12638:	fd088793          	addi	a5,a7,-48
   1263c:	00900613          	li	a2,9
   12640:	00070493          	mv	s1,a4
   12644:	00000913          	li	s2,0
   12648:	00900693          	li	a3,9
   1264c:	ecf66e63          	bltu	a2,a5,11d28 <_vfprintf_r+0x1a0>
   12650:	0004c883          	lbu	a7,0(s1)
   12654:	00291713          	slli	a4,s2,0x2
   12658:	01270933          	add	s2,a4,s2
   1265c:	00191913          	slli	s2,s2,0x1
   12660:	00f90933          	add	s2,s2,a5
   12664:	fd088793          	addi	a5,a7,-48
   12668:	00148493          	addi	s1,s1,1
   1266c:	fef6f2e3          	bgeu	a3,a5,12650 <_vfprintf_r+0xac8>
   12670:	eb8ff06f          	j	11d28 <_vfprintf_r+0x1a0>
   12674:	06500693          	li	a3,101
   12678:	b916d6e3          	bge	a3,a7,12204 <_vfprintf_r+0x67c>
   1267c:	0f012683          	lw	a3,240(sp)
   12680:	0a010593          	addi	a1,sp,160
   12684:	0b010513          	addi	a0,sp,176
   12688:	0ad12823          	sw	a3,176(sp)
   1268c:	0f412683          	lw	a3,244(sp)
   12690:	02c12823          	sw	a2,48(sp)
   12694:	0a012023          	sw	zero,160(sp)
   12698:	0ad12a23          	sw	a3,180(sp)
   1269c:	0f812683          	lw	a3,248(sp)
   126a0:	0a012223          	sw	zero,164(sp)
   126a4:	0a012423          	sw	zero,168(sp)
   126a8:	0ad12c23          	sw	a3,184(sp)
   126ac:	0fc12683          	lw	a3,252(sp)
   126b0:	0a012623          	sw	zero,172(sp)
   126b4:	0ad12e23          	sw	a3,188(sp)
   126b8:	3f00c0ef          	jal	ra,1eaa8 <__eqtf2>
   126bc:	03012603          	lw	a2,48(sp)
   126c0:	52051a63          	bnez	a0,12bf4 <_vfprintf_r+0x106c>
   126c4:	0e812783          	lw	a5,232(sp)
   126c8:	0000f697          	auipc	a3,0xf
   126cc:	7e068693          	addi	a3,a3,2016 # 21ea8 <__clzsi2+0x190>
   126d0:	00d42023          	sw	a3,0(s0)
   126d4:	00160613          	addi	a2,a2,1
   126d8:	00100693          	li	a3,1
   126dc:	00178793          	addi	a5,a5,1
   126e0:	00d42223          	sw	a3,4(s0)
   126e4:	0ec12623          	sw	a2,236(sp)
   126e8:	0ef12423          	sw	a5,232(sp)
   126ec:	00700693          	li	a3,7
   126f0:	00840413          	addi	s0,s0,8
   126f4:	54f6cae3          	blt	a3,a5,13448 <_vfprintf_r+0x18c0>
   126f8:	0cc12783          	lw	a5,204(sp)
   126fc:	01412703          	lw	a4,20(sp)
   12700:	76e7de63          	bge	a5,a4,12e7c <_vfprintf_r+0x12f4>
   12704:	02812783          	lw	a5,40(sp)
   12708:	02412703          	lw	a4,36(sp)
   1270c:	00700693          	li	a3,7
   12710:	00f42023          	sw	a5,0(s0)
   12714:	0e812783          	lw	a5,232(sp)
   12718:	00e60633          	add	a2,a2,a4
   1271c:	00e42223          	sw	a4,4(s0)
   12720:	00178793          	addi	a5,a5,1
   12724:	0ec12623          	sw	a2,236(sp)
   12728:	0ef12423          	sw	a5,232(sp)
   1272c:	00840413          	addi	s0,s0,8
   12730:	0af6c0e3          	blt	a3,a5,12fd0 <_vfprintf_r+0x1448>
   12734:	01412783          	lw	a5,20(sp)
   12738:	fff78913          	addi	s2,a5,-1
   1273c:	f3205e63          	blez	s2,11e78 <_vfprintf_r+0x2f0>
   12740:	00010e17          	auipc	t3,0x10
   12744:	970e0e13          	addi	t3,t3,-1680 # 220b0 <zeroes.0>
   12748:	01000693          	li	a3,16
   1274c:	0e812783          	lw	a5,232(sp)
   12750:	01000d13          	li	s10,16
   12754:	00700a93          	li	s5,7
   12758:	000e0c13          	mv	s8,t3
   1275c:	0126c863          	blt	a3,s2,1276c <_vfprintf_r+0xbe4>
   12760:	5250006f          	j	13484 <_vfprintf_r+0x18fc>
   12764:	ff090913          	addi	s2,s2,-16
   12768:	512d5ce3          	bge	s10,s2,13480 <_vfprintf_r+0x18f8>
   1276c:	01060613          	addi	a2,a2,16
   12770:	00178793          	addi	a5,a5,1
   12774:	01842023          	sw	s8,0(s0)
   12778:	01a42223          	sw	s10,4(s0)
   1277c:	0ec12623          	sw	a2,236(sp)
   12780:	0ef12423          	sw	a5,232(sp)
   12784:	00840413          	addi	s0,s0,8
   12788:	fcfadee3          	bge	s5,a5,12764 <_vfprintf_r+0xbdc>
   1278c:	00012583          	lw	a1,0(sp)
   12790:	0e410613          	addi	a2,sp,228
   12794:	00098513          	mv	a0,s3
   12798:	765010ef          	jal	ra,146fc <__sprint_r>
   1279c:	24051463          	bnez	a0,129e4 <_vfprintf_r+0xe5c>
   127a0:	0ec12603          	lw	a2,236(sp)
   127a4:	0e812783          	lw	a5,232(sp)
   127a8:	000d8413          	mv	s0,s11
   127ac:	fb9ff06f          	j	12764 <_vfprintf_r+0xbdc>
   127b0:	000b8613          	mv	a2,s7
   127b4:	02c12683          	lw	a3,44(sp)
   127b8:	1b010c13          	addi	s8,sp,432
   127bc:	00fd7793          	andi	a5,s10,15
   127c0:	00f687b3          	add	a5,a3,a5
   127c4:	0007c703          	lbu	a4,0(a5)
   127c8:	004d5d13          	srli	s10,s10,0x4
   127cc:	01cc9793          	slli	a5,s9,0x1c
   127d0:	01a7ed33          	or	s10,a5,s10
   127d4:	004cdc93          	srli	s9,s9,0x4
   127d8:	feec0fa3          	sb	a4,-1(s8)
   127dc:	019d67b3          	or	a5,s10,s9
   127e0:	fffc0c13          	addi	s8,s8,-1
   127e4:	fc079ce3          	bnez	a5,127bc <_vfprintf_r+0xc34>
   127e8:	1b010793          	addi	a5,sp,432
   127ec:	41878d33          	sub	s10,a5,s8
   127f0:	00060b93          	mv	s7,a2
   127f4:	82dff06f          	j	12020 <_vfprintf_r+0x498>
   127f8:	419a0ab3          	sub	s5,s4,s9
   127fc:	e5505263          	blez	s5,11e40 <_vfprintf_r+0x2b8>
   12800:	01000513          	li	a0,16
   12804:	0e812583          	lw	a1,232(sp)
   12808:	00010e17          	auipc	t3,0x10
   1280c:	8a8e0e13          	addi	t3,t3,-1880 # 220b0 <zeroes.0>
   12810:	09555c63          	bge	a0,s5,128a8 <_vfprintf_r+0xd20>
   12814:	02912823          	sw	s1,48(sp)
   12818:	00040793          	mv	a5,s0
   1281c:	01000e93          	li	t4,16
   12820:	000a8413          	mv	s0,s5
   12824:	00700f93          	li	t6,7
   12828:	00090a93          	mv	s5,s2
   1282c:	000e0493          	mv	s1,t3
   12830:	00088913          	mv	s2,a7
   12834:	00c0006f          	j	12840 <_vfprintf_r+0xcb8>
   12838:	ff040413          	addi	s0,s0,-16
   1283c:	048eda63          	bge	t4,s0,12890 <_vfprintf_r+0xd08>
   12840:	01060613          	addi	a2,a2,16
   12844:	00158593          	addi	a1,a1,1
   12848:	0097a023          	sw	s1,0(a5)
   1284c:	01d7a223          	sw	t4,4(a5)
   12850:	0ec12623          	sw	a2,236(sp)
   12854:	0eb12423          	sw	a1,232(sp)
   12858:	00878793          	addi	a5,a5,8
   1285c:	fcbfdee3          	bge	t6,a1,12838 <_vfprintf_r+0xcb0>
   12860:	00012583          	lw	a1,0(sp)
   12864:	0e410613          	addi	a2,sp,228
   12868:	00098513          	mv	a0,s3
   1286c:	691010ef          	jal	ra,146fc <__sprint_r>
   12870:	16051a63          	bnez	a0,129e4 <_vfprintf_r+0xe5c>
   12874:	01000e93          	li	t4,16
   12878:	ff040413          	addi	s0,s0,-16
   1287c:	0ec12603          	lw	a2,236(sp)
   12880:	0e812583          	lw	a1,232(sp)
   12884:	000d8793          	mv	a5,s11
   12888:	00700f93          	li	t6,7
   1288c:	fa8ecae3          	blt	t4,s0,12840 <_vfprintf_r+0xcb8>
   12890:	00048e13          	mv	t3,s1
   12894:	03012483          	lw	s1,48(sp)
   12898:	00090893          	mv	a7,s2
   1289c:	000a8913          	mv	s2,s5
   128a0:	00040a93          	mv	s5,s0
   128a4:	00078413          	mv	s0,a5
   128a8:	01560633          	add	a2,a2,s5
   128ac:	00158593          	addi	a1,a1,1
   128b0:	01c42023          	sw	t3,0(s0)
   128b4:	01542223          	sw	s5,4(s0)
   128b8:	0ec12623          	sw	a2,236(sp)
   128bc:	0eb12423          	sw	a1,232(sp)
   128c0:	00700693          	li	a3,7
   128c4:	00840413          	addi	s0,s0,8
   128c8:	d6b6dc63          	bge	a3,a1,11e40 <_vfprintf_r+0x2b8>
   128cc:	00012583          	lw	a1,0(sp)
   128d0:	0e410613          	addi	a2,sp,228
   128d4:	00098513          	mv	a0,s3
   128d8:	03112823          	sw	a7,48(sp)
   128dc:	621010ef          	jal	ra,146fc <__sprint_r>
   128e0:	10051263          	bnez	a0,129e4 <_vfprintf_r+0xe5c>
   128e4:	0ec12603          	lw	a2,236(sp)
   128e8:	03012883          	lw	a7,48(sp)
   128ec:	000d8413          	mv	s0,s11
   128f0:	d50ff06f          	j	11e40 <_vfprintf_r+0x2b8>
   128f4:	0e812583          	lw	a1,232(sp)
   128f8:	0000fe17          	auipc	t3,0xf
   128fc:	7b8e0e13          	addi	t3,t3,1976 # 220b0 <zeroes.0>
   12900:	092b5263          	bge	s6,s2,12984 <_vfprintf_r+0xdfc>
   12904:	00040793          	mv	a5,s0
   12908:	00700a93          	li	s5,7
   1290c:	00090413          	mv	s0,s2
   12910:	03112823          	sw	a7,48(sp)
   12914:	000e0913          	mv	s2,t3
   12918:	00c0006f          	j	12924 <_vfprintf_r+0xd9c>
   1291c:	ff040413          	addi	s0,s0,-16
   12920:	048b5a63          	bge	s6,s0,12974 <_vfprintf_r+0xdec>
   12924:	01060613          	addi	a2,a2,16
   12928:	00158593          	addi	a1,a1,1
   1292c:	0000f717          	auipc	a4,0xf
   12930:	78470713          	addi	a4,a4,1924 # 220b0 <zeroes.0>
   12934:	00e7a023          	sw	a4,0(a5)
   12938:	0167a223          	sw	s6,4(a5)
   1293c:	0ec12623          	sw	a2,236(sp)
   12940:	0eb12423          	sw	a1,232(sp)
   12944:	00878793          	addi	a5,a5,8
   12948:	fcbadae3          	bge	s5,a1,1291c <_vfprintf_r+0xd94>
   1294c:	00012583          	lw	a1,0(sp)
   12950:	0e410613          	addi	a2,sp,228
   12954:	00098513          	mv	a0,s3
   12958:	5a5010ef          	jal	ra,146fc <__sprint_r>
   1295c:	08051463          	bnez	a0,129e4 <_vfprintf_r+0xe5c>
   12960:	ff040413          	addi	s0,s0,-16
   12964:	0ec12603          	lw	a2,236(sp)
   12968:	0e812583          	lw	a1,232(sp)
   1296c:	000d8793          	mv	a5,s11
   12970:	fa8b4ae3          	blt	s6,s0,12924 <_vfprintf_r+0xd9c>
   12974:	03012883          	lw	a7,48(sp)
   12978:	00090e13          	mv	t3,s2
   1297c:	00040913          	mv	s2,s0
   12980:	00078413          	mv	s0,a5
   12984:	01260633          	add	a2,a2,s2
   12988:	00158593          	addi	a1,a1,1
   1298c:	01c42023          	sw	t3,0(s0)
   12990:	01242223          	sw	s2,4(s0)
   12994:	0ec12623          	sw	a2,236(sp)
   12998:	0eb12423          	sw	a1,232(sp)
   1299c:	00700693          	li	a3,7
   129a0:	00840413          	addi	s0,s0,8
   129a4:	cab6d263          	bge	a3,a1,11e48 <_vfprintf_r+0x2c0>
   129a8:	00012583          	lw	a1,0(sp)
   129ac:	0e410613          	addi	a2,sp,228
   129b0:	00098513          	mv	a0,s3
   129b4:	03112823          	sw	a7,48(sp)
   129b8:	545010ef          	jal	ra,146fc <__sprint_r>
   129bc:	02051463          	bnez	a0,129e4 <_vfprintf_r+0xe5c>
   129c0:	0ec12603          	lw	a2,236(sp)
   129c4:	03012883          	lw	a7,48(sp)
   129c8:	000d8413          	mv	s0,s11
   129cc:	c7cff06f          	j	11e48 <_vfprintf_r+0x2c0>
   129d0:	00012583          	lw	a1,0(sp)
   129d4:	0e410613          	addi	a2,sp,228
   129d8:	00098513          	mv	a0,s3
   129dc:	521010ef          	jal	ra,146fc <__sprint_r>
   129e0:	cc050263          	beqz	a0,11ea4 <_vfprintf_r+0x31c>
   129e4:	00812583          	lw	a1,8(sp)
   129e8:	ce058863          	beqz	a1,11ed8 <_vfprintf_r+0x350>
   129ec:	02012503          	lw	a0,32(sp)
   129f0:	f00fe0ef          	jal	ra,110f0 <_free_r>
   129f4:	ce4ff06f          	j	11ed8 <_vfprintf_r+0x350>
   129f8:	000b8613          	mv	a2,s7
   129fc:	9bdff06f          	j	123b8 <_vfprintf_r+0x830>
   12a00:	01000513          	li	a0,16
   12a04:	0e812583          	lw	a1,232(sp)
   12a08:	0000fa97          	auipc	s5,0xf
   12a0c:	6b8a8a93          	addi	s5,s5,1720 # 220c0 <blanks.1>
   12a10:	0ad55463          	bge	a0,a3,12ab8 <_vfprintf_r+0xf30>
   12a14:	04912423          	sw	s1,72(sp)
   12a18:	00040793          	mv	a5,s0
   12a1c:	000a8493          	mv	s1,s5
   12a20:	01000e13          	li	t3,16
   12a24:	00090a93          	mv	s5,s2
   12a28:	00700393          	li	t2,7
   12a2c:	02512823          	sw	t0,48(sp)
   12a30:	05f12223          	sw	t6,68(sp)
   12a34:	00068413          	mv	s0,a3
   12a38:	00088913          	mv	s2,a7
   12a3c:	00c0006f          	j	12a48 <_vfprintf_r+0xec0>
   12a40:	ff040413          	addi	s0,s0,-16
   12a44:	048e5a63          	bge	t3,s0,12a98 <_vfprintf_r+0xf10>
   12a48:	01060613          	addi	a2,a2,16
   12a4c:	00158593          	addi	a1,a1,1
   12a50:	0097a023          	sw	s1,0(a5)
   12a54:	01c7a223          	sw	t3,4(a5)
   12a58:	0ec12623          	sw	a2,236(sp)
   12a5c:	0eb12423          	sw	a1,232(sp)
   12a60:	00878793          	addi	a5,a5,8
   12a64:	fcb3dee3          	bge	t2,a1,12a40 <_vfprintf_r+0xeb8>
   12a68:	00012583          	lw	a1,0(sp)
   12a6c:	0e410613          	addi	a2,sp,228
   12a70:	00098513          	mv	a0,s3
   12a74:	489010ef          	jal	ra,146fc <__sprint_r>
   12a78:	f60516e3          	bnez	a0,129e4 <_vfprintf_r+0xe5c>
   12a7c:	01000e13          	li	t3,16
   12a80:	ff040413          	addi	s0,s0,-16
   12a84:	0ec12603          	lw	a2,236(sp)
   12a88:	0e812583          	lw	a1,232(sp)
   12a8c:	000d8793          	mv	a5,s11
   12a90:	00700393          	li	t2,7
   12a94:	fa8e4ae3          	blt	t3,s0,12a48 <_vfprintf_r+0xec0>
   12a98:	00090893          	mv	a7,s2
   12a9c:	03012283          	lw	t0,48(sp)
   12aa0:	000a8913          	mv	s2,s5
   12aa4:	04412f83          	lw	t6,68(sp)
   12aa8:	00048a93          	mv	s5,s1
   12aac:	04812483          	lw	s1,72(sp)
   12ab0:	00040693          	mv	a3,s0
   12ab4:	00078413          	mv	s0,a5
   12ab8:	00d60633          	add	a2,a2,a3
   12abc:	00158593          	addi	a1,a1,1
   12ac0:	00d42223          	sw	a3,4(s0)
   12ac4:	01542023          	sw	s5,0(s0)
   12ac8:	0ec12623          	sw	a2,236(sp)
   12acc:	0eb12423          	sw	a1,232(sp)
   12ad0:	00700693          	li	a3,7
   12ad4:	00840413          	addi	s0,s0,8
   12ad8:	aeb6da63          	bge	a3,a1,11dcc <_vfprintf_r+0x244>
   12adc:	00012583          	lw	a1,0(sp)
   12ae0:	0e410613          	addi	a2,sp,228
   12ae4:	00098513          	mv	a0,s3
   12ae8:	05112423          	sw	a7,72(sp)
   12aec:	05f12223          	sw	t6,68(sp)
   12af0:	02512823          	sw	t0,48(sp)
   12af4:	409010ef          	jal	ra,146fc <__sprint_r>
   12af8:	ee0516e3          	bnez	a0,129e4 <_vfprintf_r+0xe5c>
   12afc:	0ec12603          	lw	a2,236(sp)
   12b00:	04812883          	lw	a7,72(sp)
   12b04:	04412f83          	lw	t6,68(sp)
   12b08:	03012283          	lw	t0,48(sp)
   12b0c:	000d8413          	mv	s0,s11
   12b10:	abcff06f          	j	11dcc <_vfprintf_r+0x244>
   12b14:	00012583          	lw	a1,0(sp)
   12b18:	0e410613          	addi	a2,sp,228
   12b1c:	00098513          	mv	a0,s3
   12b20:	05112223          	sw	a7,68(sp)
   12b24:	03f12823          	sw	t6,48(sp)
   12b28:	3d5010ef          	jal	ra,146fc <__sprint_r>
   12b2c:	ea051ce3          	bnez	a0,129e4 <_vfprintf_r+0xe5c>
   12b30:	0ec12603          	lw	a2,236(sp)
   12b34:	04412883          	lw	a7,68(sp)
   12b38:	03012f83          	lw	t6,48(sp)
   12b3c:	000d8413          	mv	s0,s11
   12b40:	af8ff06f          	j	11e38 <_vfprintf_r+0x2b0>
   12b44:	01000713          	li	a4,16
   12b48:	0e812783          	lw	a5,232(sp)
   12b4c:	0000fa97          	auipc	s5,0xf
   12b50:	574a8a93          	addi	s5,s5,1396 # 220c0 <blanks.1>
   12b54:	07275263          	bge	a4,s2,12bb8 <_vfprintf_r+0x1030>
   12b58:	00012c03          	lw	s8,0(sp)
   12b5c:	01000d13          	li	s10,16
   12b60:	00700b93          	li	s7,7
   12b64:	00c0006f          	j	12b70 <_vfprintf_r+0xfe8>
   12b68:	ff090913          	addi	s2,s2,-16
   12b6c:	052d5663          	bge	s10,s2,12bb8 <_vfprintf_r+0x1030>
   12b70:	01060613          	addi	a2,a2,16
   12b74:	00178793          	addi	a5,a5,1
   12b78:	01542023          	sw	s5,0(s0)
   12b7c:	01a42223          	sw	s10,4(s0)
   12b80:	0ec12623          	sw	a2,236(sp)
   12b84:	0ef12423          	sw	a5,232(sp)
   12b88:	00840413          	addi	s0,s0,8
   12b8c:	fcfbdee3          	bge	s7,a5,12b68 <_vfprintf_r+0xfe0>
   12b90:	0e410613          	addi	a2,sp,228
   12b94:	000c0593          	mv	a1,s8
   12b98:	00098513          	mv	a0,s3
   12b9c:	361010ef          	jal	ra,146fc <__sprint_r>
   12ba0:	e40512e3          	bnez	a0,129e4 <_vfprintf_r+0xe5c>
   12ba4:	ff090913          	addi	s2,s2,-16
   12ba8:	0ec12603          	lw	a2,236(sp)
   12bac:	0e812783          	lw	a5,232(sp)
   12bb0:	000d8413          	mv	s0,s11
   12bb4:	fb2d4ee3          	blt	s10,s2,12b70 <_vfprintf_r+0xfe8>
   12bb8:	01260633          	add	a2,a2,s2
   12bbc:	00178793          	addi	a5,a5,1
   12bc0:	01542023          	sw	s5,0(s0)
   12bc4:	01242223          	sw	s2,4(s0)
   12bc8:	0ec12623          	sw	a2,236(sp)
   12bcc:	0ef12423          	sw	a5,232(sp)
   12bd0:	00700713          	li	a4,7
   12bd4:	aaf75a63          	bge	a4,a5,11e88 <_vfprintf_r+0x300>
   12bd8:	00012583          	lw	a1,0(sp)
   12bdc:	0e410613          	addi	a2,sp,228
   12be0:	00098513          	mv	a0,s3
   12be4:	319010ef          	jal	ra,146fc <__sprint_r>
   12be8:	de051ee3          	bnez	a0,129e4 <_vfprintf_r+0xe5c>
   12bec:	0ec12603          	lw	a2,236(sp)
   12bf0:	a98ff06f          	j	11e88 <_vfprintf_r+0x300>
   12bf4:	0cc12583          	lw	a1,204(sp)
   12bf8:	7cb05263          	blez	a1,133bc <_vfprintf_r+0x1834>
   12bfc:	01412783          	lw	a5,20(sp)
   12c00:	00fc0733          	add	a4,s8,a5
   12c04:	02e12823          	sw	a4,48(sp)
   12c08:	01012703          	lw	a4,16(sp)
   12c0c:	00070913          	mv	s2,a4
   12c10:	34e7c063          	blt	a5,a4,12f50 <_vfprintf_r+0x13c8>
   12c14:	03205663          	blez	s2,12c40 <_vfprintf_r+0x10b8>
   12c18:	0e812583          	lw	a1,232(sp)
   12c1c:	01260633          	add	a2,a2,s2
   12c20:	01842023          	sw	s8,0(s0)
   12c24:	00158593          	addi	a1,a1,1
   12c28:	01242223          	sw	s2,4(s0)
   12c2c:	0ec12623          	sw	a2,236(sp)
   12c30:	0eb12423          	sw	a1,232(sp)
   12c34:	00700513          	li	a0,7
   12c38:	00840413          	addi	s0,s0,8
   12c3c:	4ab546e3          	blt	a0,a1,138e8 <_vfprintf_r+0x1d60>
   12c40:	fff94593          	not	a1,s2
   12c44:	01012783          	lw	a5,16(sp)
   12c48:	41f5d593          	srai	a1,a1,0x1f
   12c4c:	00b976b3          	and	a3,s2,a1
   12c50:	40d78933          	sub	s2,a5,a3
   12c54:	3d204e63          	bgtz	s2,13030 <_vfprintf_r+0x14a8>
   12c58:	01012783          	lw	a5,16(sp)
   12c5c:	400bf693          	andi	a3,s7,1024
   12c60:	00fc0c33          	add	s8,s8,a5
   12c64:	24069ee3          	bnez	a3,136c0 <_vfprintf_r+0x1b38>
   12c68:	0cc12683          	lw	a3,204(sp)
   12c6c:	01412783          	lw	a5,20(sp)
   12c70:	00f6c663          	blt	a3,a5,12c7c <_vfprintf_r+0x10f4>
   12c74:	001bf593          	andi	a1,s7,1
   12c78:	48058ce3          	beqz	a1,13910 <_vfprintf_r+0x1d88>
   12c7c:	02412783          	lw	a5,36(sp)
   12c80:	0e812583          	lw	a1,232(sp)
   12c84:	02812703          	lw	a4,40(sp)
   12c88:	00f60633          	add	a2,a2,a5
   12c8c:	00158593          	addi	a1,a1,1
   12c90:	00e42023          	sw	a4,0(s0)
   12c94:	00f42223          	sw	a5,4(s0)
   12c98:	0ec12623          	sw	a2,236(sp)
   12c9c:	0eb12423          	sw	a1,232(sp)
   12ca0:	00700513          	li	a0,7
   12ca4:	00840413          	addi	s0,s0,8
   12ca8:	00b55463          	bge	a0,a1,12cb0 <_vfprintf_r+0x1128>
   12cac:	38c0106f          	j	14038 <_vfprintf_r+0x24b0>
   12cb0:	01412783          	lw	a5,20(sp)
   12cb4:	40d786b3          	sub	a3,a5,a3
   12cb8:	03012783          	lw	a5,48(sp)
   12cbc:	41878933          	sub	s2,a5,s8
   12cc0:	0126d463          	bge	a3,s2,12cc8 <_vfprintf_r+0x1140>
   12cc4:	00068913          	mv	s2,a3
   12cc8:	03205863          	blez	s2,12cf8 <_vfprintf_r+0x1170>
   12ccc:	0e812783          	lw	a5,232(sp)
   12cd0:	01260633          	add	a2,a2,s2
   12cd4:	01842023          	sw	s8,0(s0)
   12cd8:	00178793          	addi	a5,a5,1
   12cdc:	01242223          	sw	s2,4(s0)
   12ce0:	0ec12623          	sw	a2,236(sp)
   12ce4:	0ef12423          	sw	a5,232(sp)
   12ce8:	00700593          	li	a1,7
   12cec:	00840413          	addi	s0,s0,8
   12cf0:	00f5d463          	bge	a1,a5,12cf8 <_vfprintf_r+0x1170>
   12cf4:	3980106f          	j	1408c <_vfprintf_r+0x2504>
   12cf8:	fff94793          	not	a5,s2
   12cfc:	41f7d793          	srai	a5,a5,0x1f
   12d00:	00f977b3          	and	a5,s2,a5
   12d04:	40f68933          	sub	s2,a3,a5
   12d08:	97205863          	blez	s2,11e78 <_vfprintf_r+0x2f0>
   12d0c:	0000fe17          	auipc	t3,0xf
   12d10:	3a4e0e13          	addi	t3,t3,932 # 220b0 <zeroes.0>
   12d14:	01000693          	li	a3,16
   12d18:	0e812783          	lw	a5,232(sp)
   12d1c:	01000d13          	li	s10,16
   12d20:	00700a93          	li	s5,7
   12d24:	000e0c13          	mv	s8,t3
   12d28:	0126c863          	blt	a3,s2,12d38 <_vfprintf_r+0x11b0>
   12d2c:	7580006f          	j	13484 <_vfprintf_r+0x18fc>
   12d30:	ff090913          	addi	s2,s2,-16
   12d34:	752d5663          	bge	s10,s2,13480 <_vfprintf_r+0x18f8>
   12d38:	01060613          	addi	a2,a2,16
   12d3c:	00178793          	addi	a5,a5,1
   12d40:	01842023          	sw	s8,0(s0)
   12d44:	01a42223          	sw	s10,4(s0)
   12d48:	0ec12623          	sw	a2,236(sp)
   12d4c:	0ef12423          	sw	a5,232(sp)
   12d50:	00840413          	addi	s0,s0,8
   12d54:	fcfadee3          	bge	s5,a5,12d30 <_vfprintf_r+0x11a8>
   12d58:	00012583          	lw	a1,0(sp)
   12d5c:	0e410613          	addi	a2,sp,228
   12d60:	00098513          	mv	a0,s3
   12d64:	199010ef          	jal	ra,146fc <__sprint_r>
   12d68:	c6051ee3          	bnez	a0,129e4 <_vfprintf_r+0xe5c>
   12d6c:	0ec12603          	lw	a2,236(sp)
   12d70:	0e812783          	lw	a5,232(sp)
   12d74:	000d8413          	mv	s0,s11
   12d78:	fb9ff06f          	j	12d30 <_vfprintf_r+0x11a8>
   12d7c:	001bf593          	andi	a1,s7,1
   12d80:	ca059263          	bnez	a1,12224 <_vfprintf_r+0x69c>
   12d84:	00d42223          	sw	a3,4(s0)
   12d88:	0f512623          	sw	s5,236(sp)
   12d8c:	0f212423          	sw	s2,232(sp)
   12d90:	00700793          	li	a5,7
   12d94:	d527d663          	bge	a5,s2,122e0 <_vfprintf_r+0x758>
   12d98:	00012583          	lw	a1,0(sp)
   12d9c:	0e410613          	addi	a2,sp,228
   12da0:	00098513          	mv	a0,s3
   12da4:	159010ef          	jal	ra,146fc <__sprint_r>
   12da8:	c2051ee3          	bnez	a0,129e4 <_vfprintf_r+0xe5c>
   12dac:	0ec12a83          	lw	s5,236(sp)
   12db0:	0e812903          	lw	s2,232(sp)
   12db4:	000d8d13          	mv	s10,s11
   12db8:	d28ff06f          	j	122e0 <_vfprintf_r+0x758>
   12dbc:	01412703          	lw	a4,20(sp)
   12dc0:	00100793          	li	a5,1
   12dc4:	d0e7de63          	bge	a5,a4,122e0 <_vfprintf_r+0x758>
   12dc8:	01100793          	li	a5,17
   12dcc:	0000fe17          	auipc	t3,0xf
   12dd0:	2e4e0e13          	addi	t3,t3,740 # 220b0 <zeroes.0>
   12dd4:	02e7d0e3          	bge	a5,a4,135f4 <_vfprintf_r+0x1a6c>
   12dd8:	00912823          	sw	s1,16(sp)
   12ddc:	01000793          	li	a5,16
   12de0:	00700c13          	li	s8,7
   12de4:	000e0493          	mv	s1,t3
   12de8:	00c0006f          	j	12df4 <_vfprintf_r+0x126c>
   12dec:	ff040413          	addi	s0,s0,-16
   12df0:	7e87de63          	bge	a5,s0,135ec <_vfprintf_r+0x1a64>
   12df4:	010a8a93          	addi	s5,s5,16
   12df8:	00190913          	addi	s2,s2,1
   12dfc:	009d2023          	sw	s1,0(s10)
   12e00:	00fd2223          	sw	a5,4(s10)
   12e04:	0f512623          	sw	s5,236(sp)
   12e08:	0f212423          	sw	s2,232(sp)
   12e0c:	008d0d13          	addi	s10,s10,8
   12e10:	fd2c5ee3          	bge	s8,s2,12dec <_vfprintf_r+0x1264>
   12e14:	00012583          	lw	a1,0(sp)
   12e18:	0e410613          	addi	a2,sp,228
   12e1c:	00098513          	mv	a0,s3
   12e20:	0dd010ef          	jal	ra,146fc <__sprint_r>
   12e24:	bc0510e3          	bnez	a0,129e4 <_vfprintf_r+0xe5c>
   12e28:	0ec12a83          	lw	s5,236(sp)
   12e2c:	0e812903          	lw	s2,232(sp)
   12e30:	000d8d13          	mv	s10,s11
   12e34:	01000793          	li	a5,16
   12e38:	fb5ff06f          	j	12dec <_vfprintf_r+0x1264>
   12e3c:	00c12703          	lw	a4,12(sp)
   12e40:	01067793          	andi	a5,a2,16
   12e44:	00072683          	lw	a3,0(a4)
   12e48:	00470713          	addi	a4,a4,4
   12e4c:	00e12623          	sw	a4,12(sp)
   12e50:	06079463          	bnez	a5,12eb8 <_vfprintf_r+0x1330>
   12e54:	04067793          	andi	a5,a2,64
   12e58:	04078c63          	beqz	a5,12eb0 <_vfprintf_r+0x1328>
   12e5c:	01069d13          	slli	s10,a3,0x10
   12e60:	010d5d13          	srli	s10,s10,0x10
   12e64:	00000c93          	li	s9,0
   12e68:	00100793          	li	a5,1
   12e6c:	a10ff06f          	j	1207c <_vfprintf_r+0x4f4>
   12e70:	00000d13          	li	s10,0
   12e74:	1b010c13          	addi	s8,sp,432
   12e78:	9a8ff06f          	j	12020 <_vfprintf_r+0x498>
   12e7c:	001bf793          	andi	a5,s7,1
   12e80:	00079463          	bnez	a5,12e88 <_vfprintf_r+0x1300>
   12e84:	ff5fe06f          	j	11e78 <_vfprintf_r+0x2f0>
   12e88:	87dff06f          	j	12704 <_vfprintf_r+0xb7c>
   12e8c:	0004c883          	lbu	a7,0(s1)
   12e90:	00f12623          	sw	a5,12(sp)
   12e94:	e91fe06f          	j	11d24 <_vfprintf_r+0x19c>
   12e98:	200bf793          	andi	a5,s7,512
   12e9c:	2a0790e3          	bnez	a5,1393c <_vfprintf_r+0x1db4>
   12ea0:	41f6dc93          	srai	s9,a3,0x1f
   12ea4:	00068d13          	mv	s10,a3
   12ea8:	000c8793          	mv	a5,s9
   12eac:	948ff06f          	j	11ff4 <_vfprintf_r+0x46c>
   12eb0:	20067793          	andi	a5,a2,512
   12eb4:	26079ce3          	bnez	a5,1392c <_vfprintf_r+0x1da4>
   12eb8:	00068d13          	mv	s10,a3
   12ebc:	00000c93          	li	s9,0
   12ec0:	00100793          	li	a5,1
   12ec4:	9b8ff06f          	j	1207c <_vfprintf_r+0x4f4>
   12ec8:	200bf793          	andi	a5,s7,512
   12ecc:	280792e3          	bnez	a5,13950 <_vfprintf_r+0x1dc8>
   12ed0:	00068d13          	mv	s10,a3
   12ed4:	00000c93          	li	s9,0
   12ed8:	99cff06f          	j	12074 <_vfprintf_r+0x4ec>
   12edc:	00c12783          	lw	a5,12(sp)
   12ee0:	0007a683          	lw	a3,0(a5)
   12ee4:	00478793          	addi	a5,a5,4
   12ee8:	00f12623          	sw	a5,12(sp)
   12eec:	0006a803          	lw	a6,0(a3)
   12ef0:	0046a583          	lw	a1,4(a3)
   12ef4:	0086a603          	lw	a2,8(a3)
   12ef8:	00c6a683          	lw	a3,12(a3)
   12efc:	a34ff06f          	j	12130 <_vfprintf_r+0x5a8>
   12f00:	03412783          	lw	a5,52(sp)
   12f04:	0004c883          	lbu	a7,0(s1)
   12f08:	00079463          	bnez	a5,12f10 <_vfprintf_r+0x1388>
   12f0c:	e19fe06f          	j	11d24 <_vfprintf_r+0x19c>
   12f10:	0007c783          	lbu	a5,0(a5)
   12f14:	00079463          	bnez	a5,12f1c <_vfprintf_r+0x1394>
   12f18:	e0dfe06f          	j	11d24 <_vfprintf_r+0x19c>
   12f1c:	400beb93          	ori	s7,s7,1024
   12f20:	e05fe06f          	j	11d24 <_vfprintf_r+0x19c>
   12f24:	010bf793          	andi	a5,s7,16
   12f28:	60079463          	bnez	a5,13530 <_vfprintf_r+0x19a8>
   12f2c:	040bf793          	andi	a5,s7,64
   12f30:	22079ce3          	bnez	a5,13968 <_vfprintf_r+0x1de0>
   12f34:	200bf713          	andi	a4,s7,512
   12f38:	5e070c63          	beqz	a4,13530 <_vfprintf_r+0x19a8>
   12f3c:	00c12783          	lw	a5,12(sp)
   12f40:	00412703          	lw	a4,4(sp)
   12f44:	0007a783          	lw	a5,0(a5)
   12f48:	00e78023          	sb	a4,0(a5)
   12f4c:	e60ff06f          	j	125ac <_vfprintf_r+0xa24>
   12f50:	00078913          	mv	s2,a5
   12f54:	cd2042e3          	bgtz	s2,12c18 <_vfprintf_r+0x1090>
   12f58:	ce9ff06f          	j	12c40 <_vfprintf_r+0x10b8>
   12f5c:	000b8613          	mv	a2,s7
   12f60:	db4ff06f          	j	12514 <_vfprintf_r+0x98c>
   12f64:	0000f797          	auipc	a5,0xf
   12f68:	f2878793          	addi	a5,a5,-216 # 21e8c <__clzsi2+0x174>
   12f6c:	02f12623          	sw	a5,44(sp)
   12f70:	020bf793          	andi	a5,s7,32
   12f74:	2e078863          	beqz	a5,13264 <_vfprintf_r+0x16dc>
   12f78:	00c12783          	lw	a5,12(sp)
   12f7c:	00778a93          	addi	s5,a5,7
   12f80:	ff8afa93          	andi	s5,s5,-8
   12f84:	000aad03          	lw	s10,0(s5)
   12f88:	004aac83          	lw	s9,4(s5)
   12f8c:	008a8793          	addi	a5,s5,8
   12f90:	00f12623          	sw	a5,12(sp)
   12f94:	001bf793          	andi	a5,s7,1
   12f98:	00078e63          	beqz	a5,12fb4 <_vfprintf_r+0x142c>
   12f9c:	019d67b3          	or	a5,s10,s9
   12fa0:	00078a63          	beqz	a5,12fb4 <_vfprintf_r+0x142c>
   12fa4:	03000793          	li	a5,48
   12fa8:	0cf10423          	sb	a5,200(sp)
   12fac:	0d1104a3          	sb	a7,201(sp)
   12fb0:	002beb93          	ori	s7,s7,2
   12fb4:	bffbf613          	andi	a2,s7,-1025
   12fb8:	00200793          	li	a5,2
   12fbc:	8c0ff06f          	j	1207c <_vfprintf_r+0x4f4>
   12fc0:	0014c883          	lbu	a7,1(s1)
   12fc4:	200beb93          	ori	s7,s7,512
   12fc8:	00148493          	addi	s1,s1,1
   12fcc:	d59fe06f          	j	11d24 <_vfprintf_r+0x19c>
   12fd0:	00012583          	lw	a1,0(sp)
   12fd4:	0e410613          	addi	a2,sp,228
   12fd8:	00098513          	mv	a0,s3
   12fdc:	720010ef          	jal	ra,146fc <__sprint_r>
   12fe0:	a00512e3          	bnez	a0,129e4 <_vfprintf_r+0xe5c>
   12fe4:	0ec12603          	lw	a2,236(sp)
   12fe8:	000d8413          	mv	s0,s11
   12fec:	f48ff06f          	j	12734 <_vfprintf_r+0xbac>
   12ff0:	0014c883          	lbu	a7,1(s1)
   12ff4:	020beb93          	ori	s7,s7,32
   12ff8:	00148493          	addi	s1,s1,1
   12ffc:	d29fe06f          	j	11d24 <_vfprintf_r+0x19c>
   13000:	0000f797          	auipc	a5,0xf
   13004:	e7878793          	addi	a5,a5,-392 # 21e78 <__clzsi2+0x160>
   13008:	02f12623          	sw	a5,44(sp)
   1300c:	f65ff06f          	j	12f70 <_vfprintf_r+0x13e8>
   13010:	00600793          	li	a5,6
   13014:	00090d13          	mv	s10,s2
   13018:	0f27e8e3          	bltu	a5,s2,13908 <_vfprintf_r+0x1d80>
   1301c:	000d0c93          	mv	s9,s10
   13020:	01512623          	sw	s5,12(sp)
   13024:	0000fc17          	auipc	s8,0xf
   13028:	e7cc0c13          	addi	s8,s8,-388 # 21ea0 <__clzsi2+0x188>
   1302c:	d6dfe06f          	j	11d98 <_vfprintf_r+0x210>
   13030:	01000513          	li	a0,16
   13034:	0e812583          	lw	a1,232(sp)
   13038:	0000fe17          	auipc	t3,0xf
   1303c:	078e0e13          	addi	t3,t3,120 # 220b0 <zeroes.0>
   13040:	5f255e63          	bge	a0,s2,1363c <_vfprintf_r+0x1ab4>
   13044:	00040793          	mv	a5,s0
   13048:	01000d13          	li	s10,16
   1304c:	00700a93          	li	s5,7
   13050:	000e0413          	mv	s0,t3
   13054:	00c0006f          	j	13060 <_vfprintf_r+0x14d8>
   13058:	ff090913          	addi	s2,s2,-16
   1305c:	5d2d5c63          	bge	s10,s2,13634 <_vfprintf_r+0x1aac>
   13060:	01060613          	addi	a2,a2,16
   13064:	00158593          	addi	a1,a1,1
   13068:	0087a023          	sw	s0,0(a5)
   1306c:	01a7a223          	sw	s10,4(a5)
   13070:	0ec12623          	sw	a2,236(sp)
   13074:	0eb12423          	sw	a1,232(sp)
   13078:	00878793          	addi	a5,a5,8
   1307c:	fcbadee3          	bge	s5,a1,13058 <_vfprintf_r+0x14d0>
   13080:	00012583          	lw	a1,0(sp)
   13084:	0e410613          	addi	a2,sp,228
   13088:	00098513          	mv	a0,s3
   1308c:	670010ef          	jal	ra,146fc <__sprint_r>
   13090:	94051ae3          	bnez	a0,129e4 <_vfprintf_r+0xe5c>
   13094:	0ec12603          	lw	a2,236(sp)
   13098:	0e812583          	lw	a1,232(sp)
   1309c:	000d8793          	mv	a5,s11
   130a0:	fb9ff06f          	j	13058 <_vfprintf_r+0x14d0>
   130a4:	07800793          	li	a5,120
   130a8:	03000693          	li	a3,48
   130ac:	0cf104a3          	sb	a5,201(sp)
   130b0:	002be793          	ori	a5,s7,2
   130b4:	0cd10423          	sb	a3,200(sp)
   130b8:	02f12823          	sw	a5,48(sp)
   130bc:	06300693          	li	a3,99
   130c0:	00012423          	sw	zero,8(sp)
   130c4:	14c10c13          	addi	s8,sp,332
   130c8:	1126cae3          	blt	a3,s2,139dc <_vfprintf_r+0x1e54>
   130cc:	0fc12e03          	lw	t3,252(sp)
   130d0:	102be793          	ori	a5,s7,258
   130d4:	04f12423          	sw	a5,72(sp)
   130d8:	06012023          	sw	zero,96(sp)
   130dc:	0f012f83          	lw	t6,240(sp)
   130e0:	0f412f03          	lw	t5,244(sp)
   130e4:	0f812e83          	lw	t4,248(sp)
   130e8:	0a0e4ae3          	bltz	t3,1399c <_vfprintf_r+0x1e14>
   130ec:	06100713          	li	a4,97
   130f0:	00e89463          	bne	a7,a4,130f8 <_vfprintf_r+0x1570>
   130f4:	1fc0106f          	j	142f0 <_vfprintf_r+0x2768>
   130f8:	fbf88713          	addi	a4,a7,-65
   130fc:	02500693          	li	a3,37
   13100:	02e6e063          	bltu	a3,a4,13120 <_vfprintf_r+0x1598>
   13104:	0000f697          	auipc	a3,0xf
   13108:	f1468693          	addi	a3,a3,-236 # 22018 <__clzsi2+0x300>
   1310c:	00271713          	slli	a4,a4,0x2
   13110:	00d70733          	add	a4,a4,a3
   13114:	00072703          	lw	a4,0(a4)
   13118:	00d70733          	add	a4,a4,a3
   1311c:	00070067          	jr	a4
   13120:	00090693          	mv	a3,s2
   13124:	00200613          	li	a2,2
   13128:	0b010b93          	addi	s7,sp,176
   1312c:	0cc10713          	addi	a4,sp,204
   13130:	0dc10813          	addi	a6,sp,220
   13134:	0d010793          	addi	a5,sp,208
   13138:	000b8593          	mv	a1,s7
   1313c:	00098513          	mv	a0,s3
   13140:	05112623          	sw	a7,76(sp)
   13144:	04d12223          	sw	a3,68(sp)
   13148:	0bf12823          	sw	t6,176(sp)
   1314c:	01f12e23          	sw	t6,28(sp)
   13150:	0be12a23          	sw	t5,180(sp)
   13154:	01e12c23          	sw	t5,24(sp)
   13158:	0bd12c23          	sw	t4,184(sp)
   1315c:	01d12a23          	sw	t4,20(sp)
   13160:	0bc12e23          	sw	t3,188(sp)
   13164:	01c12823          	sw	t3,16(sp)
   13168:	691030ef          	jal	ra,16ff8 <_ldtoa_r>
   1316c:	04c12883          	lw	a7,76(sp)
   13170:	06700713          	li	a4,103
   13174:	01012e03          	lw	t3,16(sp)
   13178:	01412e83          	lw	t4,20(sp)
   1317c:	01812f03          	lw	t5,24(sp)
   13180:	01c12f83          	lw	t6,28(sp)
   13184:	04412683          	lw	a3,68(sp)
   13188:	00050c13          	mv	s8,a0
   1318c:	06e88ae3          	beq	a7,a4,13a00 <_vfprintf_r+0x1e78>
   13190:	04700713          	li	a4,71
   13194:	06e886e3          	beq	a7,a4,13a00 <_vfprintf_r+0x1e78>
   13198:	fdf8fa93          	andi	s5,a7,-33
   1319c:	04600593          	li	a1,70
   131a0:	00d50cb3          	add	s9,a0,a3
   131a4:	0a010d13          	addi	s10,sp,160
   131a8:	00ba9c63          	bne	s5,a1,131c0 <_vfprintf_r+0x1638>
   131ac:	00054503          	lbu	a0,0(a0)
   131b0:	03000593          	li	a1,48
   131b4:	1ab50ee3          	beq	a0,a1,13b70 <_vfprintf_r+0x1fe8>
   131b8:	0cc12683          	lw	a3,204(sp)
   131bc:	00dc8cb3          	add	s9,s9,a3
   131c0:	000b8513          	mv	a0,s7
   131c4:	000d0593          	mv	a1,s10
   131c8:	01112823          	sw	a7,16(sp)
   131cc:	0bf12823          	sw	t6,176(sp)
   131d0:	0be12a23          	sw	t5,180(sp)
   131d4:	0bd12c23          	sw	t4,184(sp)
   131d8:	0bc12e23          	sw	t3,188(sp)
   131dc:	0a012023          	sw	zero,160(sp)
   131e0:	0a012223          	sw	zero,164(sp)
   131e4:	0a012423          	sw	zero,168(sp)
   131e8:	0a012623          	sw	zero,172(sp)
   131ec:	0bd0b0ef          	jal	ra,1eaa8 <__eqtf2>
   131f0:	01012883          	lw	a7,16(sp)
   131f4:	000c8b93          	mv	s7,s9
   131f8:	02050263          	beqz	a0,1321c <_vfprintf_r+0x1694>
   131fc:	0dc12b83          	lw	s7,220(sp)
   13200:	019bfe63          	bgeu	s7,s9,1321c <_vfprintf_r+0x1694>
   13204:	03000593          	li	a1,48
   13208:	001b8793          	addi	a5,s7,1
   1320c:	0cf12e23          	sw	a5,220(sp)
   13210:	00bb8023          	sb	a1,0(s7)
   13214:	0dc12b83          	lw	s7,220(sp)
   13218:	ff9be8e3          	bltu	s7,s9,13208 <_vfprintf_r+0x1680>
   1321c:	418b87b3          	sub	a5,s7,s8
   13220:	00f12a23          	sw	a5,20(sp)
   13224:	0cc12703          	lw	a4,204(sp)
   13228:	04700693          	li	a3,71
   1322c:	00e12823          	sw	a4,16(sp)
   13230:	7eda8663          	beq	s5,a3,13a1c <_vfprintf_r+0x1e94>
   13234:	04600693          	li	a3,70
   13238:	74da84e3          	beq	s5,a3,14180 <_vfprintf_r+0x25f8>
   1323c:	fff70d13          	addi	s10,a4,-1
   13240:	0da12623          	sw	s10,204(sp)
   13244:	06100693          	li	a3,97
   13248:	00d89463          	bne	a7,a3,13250 <_vfprintf_r+0x16c8>
   1324c:	2440106f          	j	14490 <_vfprintf_r+0x2908>
   13250:	04100613          	li	a2,65
   13254:	05000693          	li	a3,80
   13258:	7ec89063          	bne	a7,a2,13a38 <_vfprintf_r+0x1eb0>
   1325c:	00100613          	li	a2,1
   13260:	7e00006f          	j	13a40 <_vfprintf_r+0x1eb8>
   13264:	00c12703          	lw	a4,12(sp)
   13268:	010bf793          	andi	a5,s7,16
   1326c:	00072683          	lw	a3,0(a4)
   13270:	00470713          	addi	a4,a4,4
   13274:	00e12623          	sw	a4,12(sp)
   13278:	06079663          	bnez	a5,132e4 <_vfprintf_r+0x175c>
   1327c:	040bf793          	andi	a5,s7,64
   13280:	04078e63          	beqz	a5,132dc <_vfprintf_r+0x1754>
   13284:	01069d13          	slli	s10,a3,0x10
   13288:	010d5d13          	srli	s10,s10,0x10
   1328c:	00000c93          	li	s9,0
   13290:	d05ff06f          	j	12f94 <_vfprintf_r+0x140c>
   13294:	00012583          	lw	a1,0(sp)
   13298:	0e410613          	addi	a2,sp,228
   1329c:	00098513          	mv	a0,s3
   132a0:	45c010ef          	jal	ra,146fc <__sprint_r>
   132a4:	f4051063          	bnez	a0,129e4 <_vfprintf_r+0xe5c>
   132a8:	0ec12a83          	lw	s5,236(sp)
   132ac:	0e812903          	lw	s2,232(sp)
   132b0:	000d8d13          	mv	s10,s11
   132b4:	f8dfe06f          	j	12240 <_vfprintf_r+0x6b8>
   132b8:	00012583          	lw	a1,0(sp)
   132bc:	0e410613          	addi	a2,sp,228
   132c0:	00098513          	mv	a0,s3
   132c4:	438010ef          	jal	ra,146fc <__sprint_r>
   132c8:	f0051e63          	bnez	a0,129e4 <_vfprintf_r+0xe5c>
   132cc:	0ec12a83          	lw	s5,236(sp)
   132d0:	0e812903          	lw	s2,232(sp)
   132d4:	000d8d13          	mv	s10,s11
   132d8:	f99fe06f          	j	12270 <_vfprintf_r+0x6e8>
   132dc:	200bf793          	andi	a5,s7,512
   132e0:	66079e63          	bnez	a5,1395c <_vfprintf_r+0x1dd4>
   132e4:	00068d13          	mv	s10,a3
   132e8:	00000c93          	li	s9,0
   132ec:	ca9ff06f          	j	12f94 <_vfprintf_r+0x140c>
   132f0:	1b010c13          	addi	s8,sp,432
   132f4:	00000793          	li	a5,0
   132f8:	00912423          	sw	s1,8(sp)
   132fc:	01212e23          	sw	s2,28(sp)
   13300:	40067b93          	andi	s7,a2,1024
   13304:	000c0913          	mv	s2,s8
   13308:	0ff00a93          	li	s5,255
   1330c:	00098c13          	mv	s8,s3
   13310:	00078493          	mv	s1,a5
   13314:	00040993          	mv	s3,s0
   13318:	01112823          	sw	a7,16(sp)
   1331c:	03412403          	lw	s0,52(sp)
   13320:	00c12c23          	sw	a2,24(sp)
   13324:	0240006f          	j	13348 <_vfprintf_r+0x17c0>
   13328:	00a00613          	li	a2,10
   1332c:	00000693          	li	a3,0
   13330:	000d0513          	mv	a0,s10
   13334:	000c8593          	mv	a1,s9
   13338:	23d080ef          	jal	ra,1bd74 <__udivdi3>
   1333c:	4e0c80e3          	beqz	s9,1401c <_vfprintf_r+0x2494>
   13340:	00050d13          	mv	s10,a0
   13344:	00058c93          	mv	s9,a1
   13348:	00a00613          	li	a2,10
   1334c:	00000693          	li	a3,0
   13350:	000d0513          	mv	a0,s10
   13354:	000c8593          	mv	a1,s9
   13358:	7e1080ef          	jal	ra,1c338 <__umoddi3>
   1335c:	03050513          	addi	a0,a0,48
   13360:	fea90fa3          	sb	a0,-1(s2)
   13364:	00148493          	addi	s1,s1,1
   13368:	fff90913          	addi	s2,s2,-1
   1336c:	fa0b8ee3          	beqz	s7,13328 <_vfprintf_r+0x17a0>
   13370:	00044703          	lbu	a4,0(s0)
   13374:	fae49ae3          	bne	s1,a4,13328 <_vfprintf_r+0x17a0>
   13378:	fb5488e3          	beq	s1,s5,13328 <_vfprintf_r+0x17a0>
   1337c:	300c9263          	bnez	s9,13680 <_vfprintf_r+0x1af8>
   13380:	00900713          	li	a4,9
   13384:	2fa76e63          	bltu	a4,s10,13680 <_vfprintf_r+0x1af8>
   13388:	01812603          	lw	a2,24(sp)
   1338c:	02812a23          	sw	s0,52(sp)
   13390:	1b010793          	addi	a5,sp,432
   13394:	00098413          	mv	s0,s3
   13398:	000c0993          	mv	s3,s8
   1339c:	00090c13          	mv	s8,s2
   133a0:	00912a23          	sw	s1,20(sp)
   133a4:	01012883          	lw	a7,16(sp)
   133a8:	00812483          	lw	s1,8(sp)
   133ac:	01c12903          	lw	s2,28(sp)
   133b0:	41878d33          	sub	s10,a5,s8
   133b4:	00060b93          	mv	s7,a2
   133b8:	c69fe06f          	j	12020 <_vfprintf_r+0x498>
   133bc:	0e812683          	lw	a3,232(sp)
   133c0:	0000f517          	auipc	a0,0xf
   133c4:	ae850513          	addi	a0,a0,-1304 # 21ea8 <__clzsi2+0x190>
   133c8:	00a42023          	sw	a0,0(s0)
   133cc:	00160613          	addi	a2,a2,1
   133d0:	00100513          	li	a0,1
   133d4:	00168693          	addi	a3,a3,1
   133d8:	00a42223          	sw	a0,4(s0)
   133dc:	0ec12623          	sw	a2,236(sp)
   133e0:	0ed12423          	sw	a3,232(sp)
   133e4:	00700513          	li	a0,7
   133e8:	00840413          	addi	s0,s0,8
   133ec:	4cd54663          	blt	a0,a3,138b8 <_vfprintf_r+0x1d30>
   133f0:	14059a63          	bnez	a1,13544 <_vfprintf_r+0x19bc>
   133f4:	01412783          	lw	a5,20(sp)
   133f8:	001bf693          	andi	a3,s7,1
   133fc:	00f6e6b3          	or	a3,a3,a5
   13400:	00069463          	bnez	a3,13408 <_vfprintf_r+0x1880>
   13404:	a75fe06f          	j	11e78 <_vfprintf_r+0x2f0>
   13408:	02412783          	lw	a5,36(sp)
   1340c:	0e812683          	lw	a3,232(sp)
   13410:	02812703          	lw	a4,40(sp)
   13414:	00c78633          	add	a2,a5,a2
   13418:	00168693          	addi	a3,a3,1
   1341c:	00e42023          	sw	a4,0(s0)
   13420:	00f42223          	sw	a5,4(s0)
   13424:	0ec12623          	sw	a2,236(sp)
   13428:	0ed12423          	sw	a3,232(sp)
   1342c:	00700593          	li	a1,7
   13430:	58d5c063          	blt	a1,a3,139b0 <_vfprintf_r+0x1e28>
   13434:	00840413          	addi	s0,s0,8
   13438:	1400006f          	j	13578 <_vfprintf_r+0x19f0>
   1343c:	02012503          	lw	a0,32(sp)
   13440:	9f8fd0ef          	jal	ra,10638 <__sinit>
   13444:	fc8fe06f          	j	11c0c <_vfprintf_r+0x84>
   13448:	00012583          	lw	a1,0(sp)
   1344c:	0e410613          	addi	a2,sp,228
   13450:	00098513          	mv	a0,s3
   13454:	2a8010ef          	jal	ra,146fc <__sprint_r>
   13458:	d8051663          	bnez	a0,129e4 <_vfprintf_r+0xe5c>
   1345c:	0ec12603          	lw	a2,236(sp)
   13460:	000d8413          	mv	s0,s11
   13464:	a94ff06f          	j	126f8 <_vfprintf_r+0xb70>
   13468:	00100613          	li	a2,1
   1346c:	50c780e3          	beq	a5,a2,1416c <_vfprintf_r+0x25e4>
   13470:	00200613          	li	a2,2
   13474:	b2c78e63          	beq	a5,a2,127b0 <_vfprintf_r+0xc28>
   13478:	000b8613          	mv	a2,s7
   1347c:	f4dfe06f          	j	123c8 <_vfprintf_r+0x840>
   13480:	000c0e13          	mv	t3,s8
   13484:	01c42023          	sw	t3,0(s0)
   13488:	01242223          	sw	s2,4(s0)
   1348c:	01260633          	add	a2,a2,s2
   13490:	00178793          	addi	a5,a5,1
   13494:	0ec12623          	sw	a2,236(sp)
   13498:	0ef12423          	sw	a5,232(sp)
   1349c:	00700693          	li	a3,7
   134a0:	00f6c463          	blt	a3,a5,134a8 <_vfprintf_r+0x1920>
   134a4:	9d1fe06f          	j	11e74 <_vfprintf_r+0x2ec>
   134a8:	e65fe06f          	j	1230c <_vfprintf_r+0x784>
   134ac:	0f012783          	lw	a5,240(sp)
   134b0:	0a010593          	addi	a1,sp,160
   134b4:	0b010513          	addi	a0,sp,176
   134b8:	0af12823          	sw	a5,176(sp)
   134bc:	0f412783          	lw	a5,244(sp)
   134c0:	0a012023          	sw	zero,160(sp)
   134c4:	0a012223          	sw	zero,164(sp)
   134c8:	0af12a23          	sw	a5,180(sp)
   134cc:	0f812783          	lw	a5,248(sp)
   134d0:	0a012423          	sw	zero,168(sp)
   134d4:	0a012623          	sw	zero,172(sp)
   134d8:	0af12c23          	sw	a5,184(sp)
   134dc:	0fc12783          	lw	a5,252(sp)
   134e0:	0af12e23          	sw	a5,188(sp)
   134e4:	7fc0b0ef          	jal	ra,1ece0 <__letf2>
   134e8:	00812883          	lw	a7,8(sp)
   134ec:	32054ee3          	bltz	a0,14028 <_vfprintf_r+0x24a0>
   134f0:	0c714683          	lbu	a3,199(sp)
   134f4:	04700613          	li	a2,71
   134f8:	0000fc17          	auipc	s8,0xf
   134fc:	970c0c13          	addi	s8,s8,-1680 # 21e68 <__clzsi2+0x150>
   13500:	3d164e63          	blt	a2,a7,138dc <_vfprintf_r+0x1d54>
   13504:	00012423          	sw	zero,8(sp)
   13508:	00012e23          	sw	zero,28(sp)
   1350c:	00012c23          	sw	zero,24(sp)
   13510:	00012823          	sw	zero,16(sp)
   13514:	f7fbfb93          	andi	s7,s7,-129
   13518:	00300c93          	li	s9,3
   1351c:	00300d13          	li	s10,3
   13520:	00000913          	li	s2,0
   13524:	00068463          	beqz	a3,1352c <_vfprintf_r+0x19a4>
   13528:	b1dfe06f          	j	12044 <_vfprintf_r+0x4bc>
   1352c:	881fe06f          	j	11dac <_vfprintf_r+0x224>
   13530:	00c12783          	lw	a5,12(sp)
   13534:	00412703          	lw	a4,4(sp)
   13538:	0007a783          	lw	a5,0(a5)
   1353c:	00e7a023          	sw	a4,0(a5)
   13540:	86cff06f          	j	125ac <_vfprintf_r+0xa24>
   13544:	02412783          	lw	a5,36(sp)
   13548:	0e812683          	lw	a3,232(sp)
   1354c:	02812703          	lw	a4,40(sp)
   13550:	00c78633          	add	a2,a5,a2
   13554:	00168693          	addi	a3,a3,1
   13558:	00e42023          	sw	a4,0(s0)
   1355c:	00f42223          	sw	a5,4(s0)
   13560:	0ec12623          	sw	a2,236(sp)
   13564:	0ed12423          	sw	a3,232(sp)
   13568:	00700513          	li	a0,7
   1356c:	00840413          	addi	s0,s0,8
   13570:	44d54063          	blt	a0,a3,139b0 <_vfprintf_r+0x1e28>
   13574:	3805c0e3          	bltz	a1,140f4 <_vfprintf_r+0x256c>
   13578:	01412783          	lw	a5,20(sp)
   1357c:	00168693          	addi	a3,a3,1
   13580:	01842023          	sw	s8,0(s0)
   13584:	00c78633          	add	a2,a5,a2
   13588:	00f42223          	sw	a5,4(s0)
   1358c:	0ec12623          	sw	a2,236(sp)
   13590:	0ed12423          	sw	a3,232(sp)
   13594:	00700793          	li	a5,7
   13598:	00d7c463          	blt	a5,a3,135a0 <_vfprintf_r+0x1a18>
   1359c:	8d9fe06f          	j	11e74 <_vfprintf_r+0x2ec>
   135a0:	d6dfe06f          	j	1230c <_vfprintf_r+0x784>
   135a4:	000c0513          	mv	a0,s8
   135a8:	03112823          	sw	a7,48(sp)
   135ac:	61c030ef          	jal	ra,16bc8 <strlen>
   135b0:	0c714683          	lbu	a3,199(sp)
   135b4:	fff54813          	not	a6,a0
   135b8:	41f85813          	srai	a6,a6,0x1f
   135bc:	01512623          	sw	s5,12(sp)
   135c0:	00012423          	sw	zero,8(sp)
   135c4:	00012e23          	sw	zero,28(sp)
   135c8:	00012c23          	sw	zero,24(sp)
   135cc:	00012823          	sw	zero,16(sp)
   135d0:	03012883          	lw	a7,48(sp)
   135d4:	00050d13          	mv	s10,a0
   135d8:	01057cb3          	and	s9,a0,a6
   135dc:	00000913          	li	s2,0
   135e0:	00068463          	beqz	a3,135e8 <_vfprintf_r+0x1a60>
   135e4:	a61fe06f          	j	12044 <_vfprintf_r+0x4bc>
   135e8:	fc4fe06f          	j	11dac <_vfprintf_r+0x224>
   135ec:	00048e13          	mv	t3,s1
   135f0:	01012483          	lw	s1,16(sp)
   135f4:	008a8ab3          	add	s5,s5,s0
   135f8:	00190913          	addi	s2,s2,1
   135fc:	01cd2023          	sw	t3,0(s10)
   13600:	cc9fe06f          	j	122c8 <_vfprintf_r+0x740>
   13604:	0fc12783          	lw	a5,252(sp)
   13608:	3807d463          	bgez	a5,13990 <_vfprintf_r+0x1e08>
   1360c:	02d00793          	li	a5,45
   13610:	0cf103a3          	sb	a5,199(sp)
   13614:	02d00693          	li	a3,45
   13618:	04700613          	li	a2,71
   1361c:	0000fc17          	auipc	s8,0xf
   13620:	854c0c13          	addi	s8,s8,-1964 # 21e70 <__clzsi2+0x158>
   13624:	ef1650e3          	bge	a2,a7,13504 <_vfprintf_r+0x197c>
   13628:	0000fc17          	auipc	s8,0xf
   1362c:	84cc0c13          	addi	s8,s8,-1972 # 21e74 <__clzsi2+0x15c>
   13630:	ed5ff06f          	j	13504 <_vfprintf_r+0x197c>
   13634:	00040e13          	mv	t3,s0
   13638:	00078413          	mv	s0,a5
   1363c:	01260633          	add	a2,a2,s2
   13640:	00158593          	addi	a1,a1,1
   13644:	01c42023          	sw	t3,0(s0)
   13648:	01242223          	sw	s2,4(s0)
   1364c:	0ec12623          	sw	a2,236(sp)
   13650:	0eb12423          	sw	a1,232(sp)
   13654:	00700693          	li	a3,7
   13658:	00840413          	addi	s0,s0,8
   1365c:	deb6de63          	bge	a3,a1,12c58 <_vfprintf_r+0x10d0>
   13660:	00012583          	lw	a1,0(sp)
   13664:	0e410613          	addi	a2,sp,228
   13668:	00098513          	mv	a0,s3
   1366c:	090010ef          	jal	ra,146fc <__sprint_r>
   13670:	b6051a63          	bnez	a0,129e4 <_vfprintf_r+0xe5c>
   13674:	0ec12603          	lw	a2,236(sp)
   13678:	000d8413          	mv	s0,s11
   1367c:	ddcff06f          	j	12c58 <_vfprintf_r+0x10d0>
   13680:	04012783          	lw	a5,64(sp)
   13684:	03c12583          	lw	a1,60(sp)
   13688:	00000493          	li	s1,0
   1368c:	40f90933          	sub	s2,s2,a5
   13690:	00078613          	mv	a2,a5
   13694:	00090513          	mv	a0,s2
   13698:	1a4030ef          	jal	ra,1683c <strncpy>
   1369c:	00144703          	lbu	a4,1(s0)
   136a0:	00a00613          	li	a2,10
   136a4:	00000693          	li	a3,0
   136a8:	00e03733          	snez	a4,a4
   136ac:	000d0513          	mv	a0,s10
   136b0:	000c8593          	mv	a1,s9
   136b4:	00e40433          	add	s0,s0,a4
   136b8:	6bc080ef          	jal	ra,1bd74 <__udivdi3>
   136bc:	c85ff06f          	j	13340 <_vfprintf_r+0x17b8>
   136c0:	01812d03          	lw	s10,24(sp)
   136c4:	04912223          	sw	s1,68(sp)
   136c8:	05712423          	sw	s7,72(sp)
   136cc:	01912c23          	sw	s9,24(sp)
   136d0:	05412623          	sw	s4,76(sp)
   136d4:	00040693          	mv	a3,s0
   136d8:	03412b83          	lw	s7,52(sp)
   136dc:	01c12403          	lw	s0,28(sp)
   136e0:	04012c83          	lw	s9,64(sp)
   136e4:	00012483          	lw	s1,0(sp)
   136e8:	00700e13          	li	t3,7
   136ec:	01000913          	li	s2,16
   136f0:	0000fa97          	auipc	s5,0xf
   136f4:	9c0a8a93          	addi	s5,s5,-1600 # 220b0 <zeroes.0>
   136f8:	080d0863          	beqz	s10,13788 <_vfprintf_r+0x1c00>
   136fc:	16040263          	beqz	s0,13860 <_vfprintf_r+0x1cd8>
   13700:	fff40413          	addi	s0,s0,-1
   13704:	03c12783          	lw	a5,60(sp)
   13708:	01960633          	add	a2,a2,s9
   1370c:	0196a223          	sw	s9,4(a3)
   13710:	00f6a023          	sw	a5,0(a3)
   13714:	0e812783          	lw	a5,232(sp)
   13718:	0ec12623          	sw	a2,236(sp)
   1371c:	00868693          	addi	a3,a3,8
   13720:	00178793          	addi	a5,a5,1
   13724:	0ef12423          	sw	a5,232(sp)
   13728:	14fe4263          	blt	t3,a5,1386c <_vfprintf_r+0x1ce4>
   1372c:	03012783          	lw	a5,48(sp)
   13730:	000bc703          	lbu	a4,0(s7)
   13734:	41878a33          	sub	s4,a5,s8
   13738:	01475463          	bge	a4,s4,13740 <_vfprintf_r+0x1bb8>
   1373c:	00070a13          	mv	s4,a4
   13740:	03405663          	blez	s4,1376c <_vfprintf_r+0x1be4>
   13744:	0e812703          	lw	a4,232(sp)
   13748:	01460633          	add	a2,a2,s4
   1374c:	0186a023          	sw	s8,0(a3)
   13750:	00170713          	addi	a4,a4,1
   13754:	0146a223          	sw	s4,4(a3)
   13758:	0ec12623          	sw	a2,236(sp)
   1375c:	0ee12423          	sw	a4,232(sp)
   13760:	12ee4863          	blt	t3,a4,13890 <_vfprintf_r+0x1d08>
   13764:	000bc703          	lbu	a4,0(s7)
   13768:	00868693          	addi	a3,a3,8
   1376c:	fffa4593          	not	a1,s4
   13770:	41f5d593          	srai	a1,a1,0x1f
   13774:	00ba77b3          	and	a5,s4,a1
   13778:	40f70a33          	sub	s4,a4,a5
   1377c:	03404c63          	bgtz	s4,137b4 <_vfprintf_r+0x1c2c>
   13780:	00ec0c33          	add	s8,s8,a4
   13784:	f60d1ce3          	bnez	s10,136fc <_vfprintf_r+0x1b74>
   13788:	f6041ce3          	bnez	s0,13700 <_vfprintf_r+0x1b78>
   1378c:	03012783          	lw	a5,48(sp)
   13790:	03712a23          	sw	s7,52(sp)
   13794:	04412483          	lw	s1,68(sp)
   13798:	04812b83          	lw	s7,72(sp)
   1379c:	04c12a03          	lw	s4,76(sp)
   137a0:	01812c83          	lw	s9,24(sp)
   137a4:	00068413          	mv	s0,a3
   137a8:	cd87f063          	bgeu	a5,s8,12c68 <_vfprintf_r+0x10e0>
   137ac:	00078c13          	mv	s8,a5
   137b0:	cb8ff06f          	j	12c68 <_vfprintf_r+0x10e0>
   137b4:	0e812703          	lw	a4,232(sp)
   137b8:	0000f597          	auipc	a1,0xf
   137bc:	8f858593          	addi	a1,a1,-1800 # 220b0 <zeroes.0>
   137c0:	07495a63          	bge	s2,s4,13834 <_vfprintf_r+0x1cac>
   137c4:	00812823          	sw	s0,16(sp)
   137c8:	000a0413          	mv	s0,s4
   137cc:	000a8a13          	mv	s4,s5
   137d0:	00c0006f          	j	137dc <_vfprintf_r+0x1c54>
   137d4:	ff040413          	addi	s0,s0,-16
   137d8:	04895863          	bge	s2,s0,13828 <_vfprintf_r+0x1ca0>
   137dc:	01060613          	addi	a2,a2,16
   137e0:	00170713          	addi	a4,a4,1
   137e4:	0156a023          	sw	s5,0(a3)
   137e8:	0126a223          	sw	s2,4(a3)
   137ec:	0ec12623          	sw	a2,236(sp)
   137f0:	0ee12423          	sw	a4,232(sp)
   137f4:	00868693          	addi	a3,a3,8
   137f8:	fcee5ee3          	bge	t3,a4,137d4 <_vfprintf_r+0x1c4c>
   137fc:	0e410613          	addi	a2,sp,228
   13800:	00048593          	mv	a1,s1
   13804:	00098513          	mv	a0,s3
   13808:	6f5000ef          	jal	ra,146fc <__sprint_r>
   1380c:	9c051c63          	bnez	a0,129e4 <_vfprintf_r+0xe5c>
   13810:	ff040413          	addi	s0,s0,-16
   13814:	0ec12603          	lw	a2,236(sp)
   13818:	0e812703          	lw	a4,232(sp)
   1381c:	000d8693          	mv	a3,s11
   13820:	00700e13          	li	t3,7
   13824:	fa894ce3          	blt	s2,s0,137dc <_vfprintf_r+0x1c54>
   13828:	000a0593          	mv	a1,s4
   1382c:	00040a13          	mv	s4,s0
   13830:	01012403          	lw	s0,16(sp)
   13834:	01460633          	add	a2,a2,s4
   13838:	00170713          	addi	a4,a4,1
   1383c:	00b6a023          	sw	a1,0(a3)
   13840:	0146a223          	sw	s4,4(a3)
   13844:	0ec12623          	sw	a2,236(sp)
   13848:	0ee12423          	sw	a4,232(sp)
   1384c:	7aee4063          	blt	t3,a4,13fec <_vfprintf_r+0x2464>
   13850:	000bc703          	lbu	a4,0(s7)
   13854:	00868693          	addi	a3,a3,8
   13858:	00ec0c33          	add	s8,s8,a4
   1385c:	f29ff06f          	j	13784 <_vfprintf_r+0x1bfc>
   13860:	fffb8b93          	addi	s7,s7,-1
   13864:	fffd0d13          	addi	s10,s10,-1
   13868:	e9dff06f          	j	13704 <_vfprintf_r+0x1b7c>
   1386c:	0e410613          	addi	a2,sp,228
   13870:	00048593          	mv	a1,s1
   13874:	00098513          	mv	a0,s3
   13878:	685000ef          	jal	ra,146fc <__sprint_r>
   1387c:	96051463          	bnez	a0,129e4 <_vfprintf_r+0xe5c>
   13880:	0ec12603          	lw	a2,236(sp)
   13884:	000d8693          	mv	a3,s11
   13888:	00700e13          	li	t3,7
   1388c:	ea1ff06f          	j	1372c <_vfprintf_r+0x1ba4>
   13890:	0e410613          	addi	a2,sp,228
   13894:	00048593          	mv	a1,s1
   13898:	00098513          	mv	a0,s3
   1389c:	661000ef          	jal	ra,146fc <__sprint_r>
   138a0:	94051263          	bnez	a0,129e4 <_vfprintf_r+0xe5c>
   138a4:	000bc703          	lbu	a4,0(s7)
   138a8:	0ec12603          	lw	a2,236(sp)
   138ac:	000d8693          	mv	a3,s11
   138b0:	00700e13          	li	t3,7
   138b4:	eb9ff06f          	j	1376c <_vfprintf_r+0x1be4>
   138b8:	00012583          	lw	a1,0(sp)
   138bc:	0e410613          	addi	a2,sp,228
   138c0:	00098513          	mv	a0,s3
   138c4:	639000ef          	jal	ra,146fc <__sprint_r>
   138c8:	90051e63          	bnez	a0,129e4 <_vfprintf_r+0xe5c>
   138cc:	0cc12583          	lw	a1,204(sp)
   138d0:	0ec12603          	lw	a2,236(sp)
   138d4:	000d8413          	mv	s0,s11
   138d8:	b19ff06f          	j	133f0 <_vfprintf_r+0x1868>
   138dc:	0000ec17          	auipc	s8,0xe
   138e0:	590c0c13          	addi	s8,s8,1424 # 21e6c <__clzsi2+0x154>
   138e4:	c21ff06f          	j	13504 <_vfprintf_r+0x197c>
   138e8:	00012583          	lw	a1,0(sp)
   138ec:	0e410613          	addi	a2,sp,228
   138f0:	00098513          	mv	a0,s3
   138f4:	609000ef          	jal	ra,146fc <__sprint_r>
   138f8:	8e051663          	bnez	a0,129e4 <_vfprintf_r+0xe5c>
   138fc:	0ec12603          	lw	a2,236(sp)
   13900:	000d8413          	mv	s0,s11
   13904:	b3cff06f          	j	12c40 <_vfprintf_r+0x10b8>
   13908:	00600d13          	li	s10,6
   1390c:	f10ff06f          	j	1301c <_vfprintf_r+0x1494>
   13910:	01412783          	lw	a5,20(sp)
   13914:	40d786b3          	sub	a3,a5,a3
   13918:	03012783          	lw	a5,48(sp)
   1391c:	41878933          	sub	s2,a5,s8
   13920:	bd26dc63          	bge	a3,s2,12cf8 <_vfprintf_r+0x1170>
   13924:	00068913          	mv	s2,a3
   13928:	bd0ff06f          	j	12cf8 <_vfprintf_r+0x1170>
   1392c:	0ff6fd13          	zext.b	s10,a3
   13930:	00000c93          	li	s9,0
   13934:	00100793          	li	a5,1
   13938:	f44fe06f          	j	1207c <_vfprintf_r+0x4f4>
   1393c:	01869d13          	slli	s10,a3,0x18
   13940:	418d5d13          	srai	s10,s10,0x18
   13944:	41fd5c93          	srai	s9,s10,0x1f
   13948:	000c8793          	mv	a5,s9
   1394c:	ea8fe06f          	j	11ff4 <_vfprintf_r+0x46c>
   13950:	0ff6fd13          	zext.b	s10,a3
   13954:	00000c93          	li	s9,0
   13958:	f1cfe06f          	j	12074 <_vfprintf_r+0x4ec>
   1395c:	0ff6fd13          	zext.b	s10,a3
   13960:	00000c93          	li	s9,0
   13964:	e30ff06f          	j	12f94 <_vfprintf_r+0x140c>
   13968:	00c12783          	lw	a5,12(sp)
   1396c:	00412703          	lw	a4,4(sp)
   13970:	0007a783          	lw	a5,0(a5)
   13974:	00e79023          	sh	a4,0(a5)
   13978:	c35fe06f          	j	125ac <_vfprintf_r+0xa24>
   1397c:	00012583          	lw	a1,0(sp)
   13980:	02012503          	lw	a0,32(sp)
   13984:	0e410613          	addi	a2,sp,228
   13988:	575000ef          	jal	ra,146fc <__sprint_r>
   1398c:	d4cfe06f          	j	11ed8 <_vfprintf_r+0x350>
   13990:	0c714683          	lbu	a3,199(sp)
   13994:	c85ff06f          	j	13618 <_vfprintf_r+0x1a90>
   13998:	00012423          	sw	zero,8(sp)
   1399c:	80000737          	lui	a4,0x80000
   139a0:	02d00793          	li	a5,45
   139a4:	01c74e33          	xor	t3,a4,t3
   139a8:	06f12023          	sw	a5,96(sp)
   139ac:	f40ff06f          	j	130ec <_vfprintf_r+0x1564>
   139b0:	00012583          	lw	a1,0(sp)
   139b4:	0e410613          	addi	a2,sp,228
   139b8:	00098513          	mv	a0,s3
   139bc:	541000ef          	jal	ra,146fc <__sprint_r>
   139c0:	00050463          	beqz	a0,139c8 <_vfprintf_r+0x1e40>
   139c4:	820ff06f          	j	129e4 <_vfprintf_r+0xe5c>
   139c8:	0cc12583          	lw	a1,204(sp)
   139cc:	0ec12603          	lw	a2,236(sp)
   139d0:	0e812683          	lw	a3,232(sp)
   139d4:	000d8413          	mv	s0,s11
   139d8:	b9dff06f          	j	13574 <_vfprintf_r+0x19ec>
   139dc:	00190593          	addi	a1,s2,1
   139e0:	00098513          	mv	a0,s3
   139e4:	01112423          	sw	a7,8(sp)
   139e8:	a0dfd0ef          	jal	ra,113f4 <_malloc_r>
   139ec:	00812883          	lw	a7,8(sp)
   139f0:	00050c13          	mv	s8,a0
   139f4:	30050ae3          	beqz	a0,14508 <_vfprintf_r+0x2980>
   139f8:	00a12423          	sw	a0,8(sp)
   139fc:	ed0ff06f          	j	130cc <_vfprintf_r+0x1544>
   13a00:	03012783          	lw	a5,48(sp)
   13a04:	0017f713          	andi	a4,a5,1
   13a08:	78071e63          	bnez	a4,141a4 <_vfprintf_r+0x261c>
   13a0c:	0dc12b83          	lw	s7,220(sp)
   13a10:	0cc12703          	lw	a4,204(sp)
   13a14:	418b87b3          	sub	a5,s7,s8
   13a18:	00f12a23          	sw	a5,20(sp)
   13a1c:	ffd00693          	li	a3,-3
   13a20:	00e12823          	sw	a4,16(sp)
   13a24:	00d74463          	blt	a4,a3,13a2c <_vfprintf_r+0x1ea4>
   13a28:	56e95a63          	bge	s2,a4,13f9c <_vfprintf_r+0x2414>
   13a2c:	fff70d13          	addi	s10,a4,-1 # 7fffffff <__BSS_END__+0x7ffdc4fb>
   13a30:	ffe88893          	addi	a7,a7,-2
   13a34:	0da12623          	sw	s10,204(sp)
   13a38:	0ff8f693          	zext.b	a3,a7
   13a3c:	00000613          	li	a2,0
   13a40:	0cd10a23          	sb	a3,212(sp)
   13a44:	02b00693          	li	a3,43
   13a48:	000d5863          	bgez	s10,13a58 <_vfprintf_r+0x1ed0>
   13a4c:	00100d13          	li	s10,1
   13a50:	40ed0d33          	sub	s10,s10,a4
   13a54:	02d00693          	li	a3,45
   13a58:	0cd10aa3          	sb	a3,213(sp)
   13a5c:	00900713          	li	a4,9
   13a60:	75a75a63          	bge	a4,s10,141b4 <_vfprintf_r+0x262c>
   13a64:	0e310913          	addi	s2,sp,227
   13a68:	00098a93          	mv	s5,s3
   13a6c:	06300c93          	li	s9,99
   13a70:	00040993          	mv	s3,s0
   13a74:	00912823          	sw	s1,16(sp)
   13a78:	01112c23          	sw	a7,24(sp)
   13a7c:	00090413          	mv	s0,s2
   13a80:	00a00593          	li	a1,10
   13a84:	000d0513          	mv	a0,s10
   13a88:	2600e0ef          	jal	ra,21ce8 <__modsi3>
   13a8c:	03050793          	addi	a5,a0,48
   13a90:	fef40fa3          	sb	a5,-1(s0)
   13a94:	000d0513          	mv	a0,s10
   13a98:	00a00593          	li	a1,10
   13a9c:	000d0493          	mv	s1,s10
   13aa0:	1c40e0ef          	jal	ra,21c64 <__divsi3>
   13aa4:	00040b93          	mv	s7,s0
   13aa8:	00050d13          	mv	s10,a0
   13aac:	fff40413          	addi	s0,s0,-1
   13ab0:	fc9cc8e3          	blt	s9,s1,13a80 <_vfprintf_r+0x1ef8>
   13ab4:	000a8793          	mv	a5,s5
   13ab8:	03050d13          	addi	s10,a0,48
   13abc:	000b8a93          	mv	s5,s7
   13ac0:	00040b93          	mv	s7,s0
   13ac4:	ffea8713          	addi	a4,s5,-2
   13ac8:	ffab8fa3          	sb	s10,-1(s7)
   13acc:	00098413          	mv	s0,s3
   13ad0:	01012483          	lw	s1,16(sp)
   13ad4:	01812883          	lw	a7,24(sp)
   13ad8:	00078993          	mv	s3,a5
   13adc:	232770e3          	bgeu	a4,s2,144fc <_vfprintf_r+0x2974>
   13ae0:	0d610613          	addi	a2,sp,214
   13ae4:	00074783          	lbu	a5,0(a4)
   13ae8:	00170713          	addi	a4,a4,1
   13aec:	00160613          	addi	a2,a2,1
   13af0:	fef60fa3          	sb	a5,-1(a2)
   13af4:	ff2718e3          	bne	a4,s2,13ae4 <_vfprintf_r+0x1f5c>
   13af8:	0e510713          	addi	a4,sp,229
   13afc:	0d610793          	addi	a5,sp,214
   13b00:	41570733          	sub	a4,a4,s5
   13b04:	00e78733          	add	a4,a5,a4
   13b08:	0d410693          	addi	a3,sp,212
   13b0c:	40d707b3          	sub	a5,a4,a3
   13b10:	02f12c23          	sw	a5,56(sp)
   13b14:	03812683          	lw	a3,56(sp)
   13b18:	01412783          	lw	a5,20(sp)
   13b1c:	00100713          	li	a4,1
   13b20:	00f68d33          	add	s10,a3,a5
   13b24:	7af75263          	bge	a4,a5,142c8 <_vfprintf_r+0x2740>
   13b28:	02412783          	lw	a5,36(sp)
   13b2c:	00fd0d33          	add	s10,s10,a5
   13b30:	03012783          	lw	a5,48(sp)
   13b34:	fffd4813          	not	a6,s10
   13b38:	41f85813          	srai	a6,a6,0x1f
   13b3c:	bff7f713          	andi	a4,a5,-1025
   13b40:	10076b93          	ori	s7,a4,256
   13b44:	010d7cb3          	and	s9,s10,a6
   13b48:	00012e23          	sw	zero,28(sp)
   13b4c:	00012c23          	sw	zero,24(sp)
   13b50:	00012823          	sw	zero,16(sp)
   13b54:	06012783          	lw	a5,96(sp)
   13b58:	42078863          	beqz	a5,13f88 <_vfprintf_r+0x2400>
   13b5c:	02d00693          	li	a3,45
   13b60:	0cd103a3          	sb	a3,199(sp)
   13b64:	00000913          	li	s2,0
   13b68:	001c8c93          	addi	s9,s9,1
   13b6c:	a40fe06f          	j	11dac <_vfprintf_r+0x224>
   13b70:	000d0593          	mv	a1,s10
   13b74:	000b8513          	mv	a0,s7
   13b78:	05112223          	sw	a7,68(sp)
   13b7c:	0bf12823          	sw	t6,176(sp)
   13b80:	01f12e23          	sw	t6,28(sp)
   13b84:	0be12a23          	sw	t5,180(sp)
   13b88:	01e12c23          	sw	t5,24(sp)
   13b8c:	0bd12c23          	sw	t4,184(sp)
   13b90:	01d12a23          	sw	t4,20(sp)
   13b94:	0bc12e23          	sw	t3,188(sp)
   13b98:	01c12823          	sw	t3,16(sp)
   13b9c:	04d12623          	sw	a3,76(sp)
   13ba0:	0a012023          	sw	zero,160(sp)
   13ba4:	0a012223          	sw	zero,164(sp)
   13ba8:	0a012423          	sw	zero,168(sp)
   13bac:	0a012623          	sw	zero,172(sp)
   13bb0:	6f90a0ef          	jal	ra,1eaa8 <__eqtf2>
   13bb4:	01012e03          	lw	t3,16(sp)
   13bb8:	01412e83          	lw	t4,20(sp)
   13bbc:	01812f03          	lw	t5,24(sp)
   13bc0:	01c12f83          	lw	t6,28(sp)
   13bc4:	04412883          	lw	a7,68(sp)
   13bc8:	de050863          	beqz	a0,131b8 <_vfprintf_r+0x1630>
   13bcc:	04c12683          	lw	a3,76(sp)
   13bd0:	00100593          	li	a1,1
   13bd4:	40d586b3          	sub	a3,a1,a3
   13bd8:	0cd12623          	sw	a3,204(sp)
   13bdc:	de0ff06f          	j	131bc <_vfprintf_r+0x1634>
   13be0:	00190693          	addi	a3,s2,1
   13be4:	00200613          	li	a2,2
   13be8:	d40ff06f          	j	13128 <_vfprintf_r+0x15a0>
   13bec:	00090693          	mv	a3,s2
   13bf0:	00300613          	li	a2,3
   13bf4:	d34ff06f          	j	13128 <_vfprintf_r+0x15a0>
   13bf8:	0b010b93          	addi	s7,sp,176
   13bfc:	0a010d13          	addi	s10,sp,160
   13c00:	0cc10613          	addi	a2,sp,204
   13c04:	000d0593          	mv	a1,s10
   13c08:	000b8513          	mv	a0,s7
   13c0c:	05112223          	sw	a7,68(sp)
   13c10:	0bf12023          	sw	t6,160(sp)
   13c14:	0be12223          	sw	t5,164(sp)
   13c18:	0bd12423          	sw	t4,168(sp)
   13c1c:	0bc12623          	sw	t3,172(sp)
   13c20:	1b0030ef          	jal	ra,16dd0 <frexpl>
   13c24:	0b012e83          	lw	t4,176(sp)
   13c28:	0000e717          	auipc	a4,0xe
   13c2c:	4a870713          	addi	a4,a4,1192 # 220d0 <blanks.1+0x10>
   13c30:	00072e03          	lw	t3,0(a4)
   13c34:	0bd12023          	sw	t4,160(sp)
   13c38:	0b412e83          	lw	t4,180(sp)
   13c3c:	00472803          	lw	a6,4(a4)
   13c40:	00872683          	lw	a3,8(a4)
   13c44:	0bd12223          	sw	t4,164(sp)
   13c48:	0b812e83          	lw	t4,184(sp)
   13c4c:	00c72703          	lw	a4,12(a4)
   13c50:	09010793          	addi	a5,sp,144
   13c54:	0bd12423          	sw	t4,168(sp)
   13c58:	0bc12e83          	lw	t4,188(sp)
   13c5c:	00078613          	mv	a2,a5
   13c60:	000d0593          	mv	a1,s10
   13c64:	000b8513          	mv	a0,s7
   13c68:	00f12823          	sw	a5,16(sp)
   13c6c:	0bd12623          	sw	t4,172(sp)
   13c70:	09c12823          	sw	t3,144(sp)
   13c74:	09012a23          	sw	a6,148(sp)
   13c78:	08d12c23          	sw	a3,152(sp)
   13c7c:	08e12e23          	sw	a4,156(sp)
   13c80:	1c40b0ef          	jal	ra,1ee44 <__multf3>
   13c84:	0b412803          	lw	a6,180(sp)
   13c88:	0b812e03          	lw	t3,184(sp)
   13c8c:	0bc12e83          	lw	t4,188(sp)
   13c90:	000d0593          	mv	a1,s10
   13c94:	000b8513          	mv	a0,s7
   13c98:	01012e23          	sw	a6,28(sp)
   13c9c:	01c12c23          	sw	t3,24(sp)
   13ca0:	01d12a23          	sw	t4,20(sp)
   13ca4:	0a012023          	sw	zero,160(sp)
   13ca8:	0a012223          	sw	zero,164(sp)
   13cac:	0a012423          	sw	zero,168(sp)
   13cb0:	0a012623          	sw	zero,172(sp)
   13cb4:	5f50a0ef          	jal	ra,1eaa8 <__eqtf2>
   13cb8:	0b012c83          	lw	s9,176(sp)
   13cbc:	01412e83          	lw	t4,20(sp)
   13cc0:	01812e03          	lw	t3,24(sp)
   13cc4:	01c12803          	lw	a6,28(sp)
   13cc8:	04412883          	lw	a7,68(sp)
   13ccc:	00051e63          	bnez	a0,13ce8 <_vfprintf_r+0x2160>
   13cd0:	00100713          	li	a4,1
   13cd4:	0ce12623          	sw	a4,204(sp)
   13cd8:	06100713          	li	a4,97
   13cdc:	0000e317          	auipc	t1,0xe
   13ce0:	19c30313          	addi	t1,t1,412 # 21e78 <__clzsi2+0x160>
   13ce4:	00e88663          	beq	a7,a4,13cf0 <_vfprintf_r+0x2168>
   13ce8:	0000e317          	auipc	t1,0xe
   13cec:	1a430313          	addi	t1,t1,420 # 21e8c <__clzsi2+0x174>
   13cf0:	0000e717          	auipc	a4,0xe
   13cf4:	3f070713          	addi	a4,a4,1008 # 220e0 <blanks.1+0x20>
   13cf8:	00072783          	lw	a5,0(a4)
   13cfc:	fff90593          	addi	a1,s2,-1
   13d00:	06912223          	sw	s1,100(sp)
   13d04:	04f12823          	sw	a5,80(sp)
   13d08:	00472783          	lw	a5,4(a4)
   13d0c:	07412623          	sw	s4,108(sp)
   13d10:	07212823          	sw	s2,112(sp)
   13d14:	04f12a23          	sw	a5,84(sp)
   13d18:	00872783          	lw	a5,8(a4)
   13d1c:	000c0a13          	mv	s4,s8
   13d20:	07812e23          	sw	s8,124(sp)
   13d24:	04f12c23          	sw	a5,88(sp)
   13d28:	00c72783          	lw	a5,12(a4)
   13d2c:	000c8a93          	mv	s5,s9
   13d30:	00058493          	mv	s1,a1
   13d34:	04f12e23          	sw	a5,92(sp)
   13d38:	07112423          	sw	a7,104(sp)
   13d3c:	06812a23          	sw	s0,116(sp)
   13d40:	04612223          	sw	t1,68(sp)
   13d44:	07312c23          	sw	s3,120(sp)
   13d48:	00080c13          	mv	s8,a6
   13d4c:	000e0c93          	mv	s9,t3
   13d50:	000e8913          	mv	s2,t4
   13d54:	0540006f          	j	13da8 <_vfprintf_r+0x2220>
   13d58:	000d0593          	mv	a1,s10
   13d5c:	000b8513          	mv	a0,s7
   13d60:	00512e23          	sw	t0,28(sp)
   13d64:	01f12c23          	sw	t6,24(sp)
   13d68:	00c12a23          	sw	a2,20(sp)
   13d6c:	0ac12a23          	sw	a2,180(sp)
   13d70:	0bf12c23          	sw	t6,184(sp)
   13d74:	0a512e23          	sw	t0,188(sp)
   13d78:	0b312823          	sw	s3,176(sp)
   13d7c:	0a012023          	sw	zero,160(sp)
   13d80:	0a012223          	sw	zero,164(sp)
   13d84:	0a012423          	sw	zero,168(sp)
   13d88:	0a012623          	sw	zero,172(sp)
   13d8c:	51d0a0ef          	jal	ra,1eaa8 <__eqtf2>
   13d90:	fff48693          	addi	a3,s1,-1
   13d94:	000c0613          	mv	a2,s8
   13d98:	000c8f93          	mv	t6,s9
   13d9c:	00090293          	mv	t0,s2
   13da0:	4e050863          	beqz	a0,14290 <_vfprintf_r+0x2708>
   13da4:	00068493          	mv	s1,a3
   13da8:	05012783          	lw	a5,80(sp)
   13dac:	01012603          	lw	a2,16(sp)
   13db0:	000d0593          	mv	a1,s10
   13db4:	08f12823          	sw	a5,144(sp)
   13db8:	05412783          	lw	a5,84(sp)
   13dbc:	000b8513          	mv	a0,s7
   13dc0:	0b512023          	sw	s5,160(sp)
   13dc4:	08f12a23          	sw	a5,148(sp)
   13dc8:	05812783          	lw	a5,88(sp)
   13dcc:	0b812223          	sw	s8,164(sp)
   13dd0:	0b912423          	sw	s9,168(sp)
   13dd4:	08f12c23          	sw	a5,152(sp)
   13dd8:	05c12783          	lw	a5,92(sp)
   13ddc:	0b212623          	sw	s2,172(sp)
   13de0:	08f12e23          	sw	a5,156(sp)
   13de4:	0600b0ef          	jal	ra,1ee44 <__multf3>
   13de8:	000b8513          	mv	a0,s7
   13dec:	2050d0ef          	jal	ra,217f0 <__fixtfsi>
   13df0:	00050593          	mv	a1,a0
   13df4:	00050413          	mv	s0,a0
   13df8:	000b8513          	mv	a0,s7
   13dfc:	0b012a83          	lw	s5,176(sp)
   13e00:	0b412983          	lw	s3,180(sp)
   13e04:	0b812903          	lw	s2,184(sp)
   13e08:	0bc12c83          	lw	s9,188(sp)
   13e0c:	2d90d0ef          	jal	ra,218e4 <__floatsitf>
   13e10:	0b012703          	lw	a4,176(sp)
   13e14:	01012583          	lw	a1,16(sp)
   13e18:	08010613          	addi	a2,sp,128
   13e1c:	08e12023          	sw	a4,128(sp)
   13e20:	0b412703          	lw	a4,180(sp)
   13e24:	000d0513          	mv	a0,s10
   13e28:	09512823          	sw	s5,144(sp)
   13e2c:	08e12223          	sw	a4,132(sp)
   13e30:	0b812703          	lw	a4,184(sp)
   13e34:	09312a23          	sw	s3,148(sp)
   13e38:	09212c23          	sw	s2,152(sp)
   13e3c:	08e12423          	sw	a4,136(sp)
   13e40:	0bc12703          	lw	a4,188(sp)
   13e44:	09912e23          	sw	s9,156(sp)
   13e48:	08e12623          	sw	a4,140(sp)
   13e4c:	4240c0ef          	jal	ra,20270 <__subtf3>
   13e50:	04412783          	lw	a5,68(sp)
   13e54:	0a012983          	lw	s3,160(sp)
   13e58:	0a412603          	lw	a2,164(sp)
   13e5c:	00878733          	add	a4,a5,s0
   13e60:	00074703          	lbu	a4,0(a4)
   13e64:	0a812f83          	lw	t6,168(sp)
   13e68:	0ac12283          	lw	t0,172(sp)
   13e6c:	05412623          	sw	s4,76(sp)
   13e70:	00ea0023          	sb	a4,0(s4)
   13e74:	fff00793          	li	a5,-1
   13e78:	001a0a13          	addi	s4,s4,1
   13e7c:	00098a93          	mv	s5,s3
   13e80:	00060c13          	mv	s8,a2
   13e84:	000f8c93          	mv	s9,t6
   13e88:	00028913          	mv	s2,t0
   13e8c:	ecf496e3          	bne	s1,a5,13d58 <_vfprintf_r+0x21d0>
   13e90:	000a0a93          	mv	s5,s4
   13e94:	00812823          	sw	s0,16(sp)
   13e98:	00098f13          	mv	t5,s3
   13e9c:	06412483          	lw	s1,100(sp)
   13ea0:	06812883          	lw	a7,104(sp)
   13ea4:	07012903          	lw	s2,112(sp)
   13ea8:	06c12a03          	lw	s4,108(sp)
   13eac:	07412403          	lw	s0,116(sp)
   13eb0:	04412303          	lw	t1,68(sp)
   13eb4:	07c12c03          	lw	s8,124(sp)
   13eb8:	07812983          	lw	s3,120(sp)
   13ebc:	fff00c93          	li	s9,-1
   13ec0:	0000e597          	auipc	a1,0xe
   13ec4:	23058593          	addi	a1,a1,560 # 220f0 <blanks.1+0x30>
   13ec8:	0005a803          	lw	a6,0(a1)
   13ecc:	0045ae03          	lw	t3,4(a1)
   13ed0:	0085ae83          	lw	t4,8(a1)
   13ed4:	00c5a783          	lw	a5,12(a1)
   13ed8:	000b8513          	mv	a0,s7
   13edc:	000d0593          	mv	a1,s10
   13ee0:	00612c23          	sw	t1,24(sp)
   13ee4:	01112a23          	sw	a7,20(sp)
   13ee8:	0be12823          	sw	t5,176(sp)
   13eec:	07e12423          	sw	t5,104(sp)
   13ef0:	0ac12a23          	sw	a2,180(sp)
   13ef4:	06c12223          	sw	a2,100(sp)
   13ef8:	0bf12c23          	sw	t6,184(sp)
   13efc:	05f12e23          	sw	t6,92(sp)
   13f00:	0a512e23          	sw	t0,188(sp)
   13f04:	04512c23          	sw	t0,88(sp)
   13f08:	0b012023          	sw	a6,160(sp)
   13f0c:	05012a23          	sw	a6,84(sp)
   13f10:	0bc12223          	sw	t3,164(sp)
   13f14:	05c12823          	sw	t3,80(sp)
   13f18:	0bd12423          	sw	t4,168(sp)
   13f1c:	05d12223          	sw	t4,68(sp)
   13f20:	0af12623          	sw	a5,172(sp)
   13f24:	00f12e23          	sw	a5,28(sp)
   13f28:	4550a0ef          	jal	ra,1eb7c <__getf2>
   13f2c:	01412883          	lw	a7,20(sp)
   13f30:	01812303          	lw	t1,24(sp)
   13f34:	30a04063          	bgtz	a0,14234 <_vfprintf_r+0x26ac>
   13f38:	000d0593          	mv	a1,s10
   13f3c:	000b8513          	mv	a0,s7
   13f40:	3690a0ef          	jal	ra,1eaa8 <__eqtf2>
   13f44:	01412883          	lw	a7,20(sp)
   13f48:	01812303          	lw	t1,24(sp)
   13f4c:	00051863          	bnez	a0,13f5c <_vfprintf_r+0x23d4>
   13f50:	01012783          	lw	a5,16(sp)
   13f54:	0017f613          	andi	a2,a5,1
   13f58:	2c061e63          	bnez	a2,14234 <_vfprintf_r+0x26ac>
   13f5c:	001c8b93          	addi	s7,s9,1
   13f60:	017a8bb3          	add	s7,s5,s7
   13f64:	03000613          	li	a2,48
   13f68:	300cca63          	bltz	s9,1427c <_vfprintf_r+0x26f4>
   13f6c:	001a8a93          	addi	s5,s5,1
   13f70:	feca8fa3          	sb	a2,-1(s5)
   13f74:	ff5b9ce3          	bne	s7,s5,13f6c <_vfprintf_r+0x23e4>
   13f78:	418b87b3          	sub	a5,s7,s8
   13f7c:	00f12a23          	sw	a5,20(sp)
   13f80:	fdf8fa93          	andi	s5,a7,-33
   13f84:	aa0ff06f          	j	13224 <_vfprintf_r+0x169c>
   13f88:	0c714683          	lbu	a3,199(sp)
   13f8c:	00000913          	li	s2,0
   13f90:	00068463          	beqz	a3,13f98 <_vfprintf_r+0x2410>
   13f94:	8b0fe06f          	j	12044 <_vfprintf_r+0x4bc>
   13f98:	e15fd06f          	j	11dac <_vfprintf_r+0x224>
   13f9c:	01412783          	lw	a5,20(sp)
   13fa0:	10f74e63          	blt	a4,a5,140bc <_vfprintf_r+0x2534>
   13fa4:	03012783          	lw	a5,48(sp)
   13fa8:	00070d13          	mv	s10,a4
   13fac:	0017f693          	andi	a3,a5,1
   13fb0:	00068663          	beqz	a3,13fbc <_vfprintf_r+0x2434>
   13fb4:	02412783          	lw	a5,36(sp)
   13fb8:	00f70d33          	add	s10,a4,a5
   13fbc:	03012783          	lw	a5,48(sp)
   13fc0:	4007f693          	andi	a3,a5,1024
   13fc4:	00068463          	beqz	a3,13fcc <_vfprintf_r+0x2444>
   13fc8:	40e04663          	bgtz	a4,143d4 <_vfprintf_r+0x284c>
   13fcc:	fffd4813          	not	a6,s10
   13fd0:	04812b83          	lw	s7,72(sp)
   13fd4:	41f85813          	srai	a6,a6,0x1f
   13fd8:	010d7cb3          	and	s9,s10,a6
   13fdc:	06700893          	li	a7,103
   13fe0:	00012e23          	sw	zero,28(sp)
   13fe4:	00012c23          	sw	zero,24(sp)
   13fe8:	b6dff06f          	j	13b54 <_vfprintf_r+0x1fcc>
   13fec:	0e410613          	addi	a2,sp,228
   13ff0:	00048593          	mv	a1,s1
   13ff4:	00098513          	mv	a0,s3
   13ff8:	704000ef          	jal	ra,146fc <__sprint_r>
   13ffc:	00050463          	beqz	a0,14004 <_vfprintf_r+0x247c>
   14000:	9e5fe06f          	j	129e4 <_vfprintf_r+0xe5c>
   14004:	000bc703          	lbu	a4,0(s7)
   14008:	0ec12603          	lw	a2,236(sp)
   1400c:	000d8693          	mv	a3,s11
   14010:	00700e13          	li	t3,7
   14014:	00ec0c33          	add	s8,s8,a4
   14018:	f6cff06f          	j	13784 <_vfprintf_r+0x1bfc>
   1401c:	00900713          	li	a4,9
   14020:	b3a76063          	bltu	a4,s10,13340 <_vfprintf_r+0x17b8>
   14024:	b64ff06f          	j	13388 <_vfprintf_r+0x1800>
   14028:	02d00793          	li	a5,45
   1402c:	0cf103a3          	sb	a5,199(sp)
   14030:	02d00693          	li	a3,45
   14034:	cc0ff06f          	j	134f4 <_vfprintf_r+0x196c>
   14038:	00012583          	lw	a1,0(sp)
   1403c:	0e410613          	addi	a2,sp,228
   14040:	00098513          	mv	a0,s3
   14044:	6b8000ef          	jal	ra,146fc <__sprint_r>
   14048:	00050463          	beqz	a0,14050 <_vfprintf_r+0x24c8>
   1404c:	999fe06f          	j	129e4 <_vfprintf_r+0xe5c>
   14050:	0cc12683          	lw	a3,204(sp)
   14054:	0ec12603          	lw	a2,236(sp)
   14058:	000d8413          	mv	s0,s11
   1405c:	c55fe06f          	j	12cb0 <_vfprintf_r+0x1128>
   14060:	0c714683          	lbu	a3,199(sp)
   14064:	01512623          	sw	s5,12(sp)
   14068:	00012e23          	sw	zero,28(sp)
   1406c:	00012c23          	sw	zero,24(sp)
   14070:	00012823          	sw	zero,16(sp)
   14074:	00090c93          	mv	s9,s2
   14078:	00090d13          	mv	s10,s2
   1407c:	00000913          	li	s2,0
   14080:	00068463          	beqz	a3,14088 <_vfprintf_r+0x2500>
   14084:	fc1fd06f          	j	12044 <_vfprintf_r+0x4bc>
   14088:	d25fd06f          	j	11dac <_vfprintf_r+0x224>
   1408c:	00012583          	lw	a1,0(sp)
   14090:	0e410613          	addi	a2,sp,228
   14094:	00098513          	mv	a0,s3
   14098:	664000ef          	jal	ra,146fc <__sprint_r>
   1409c:	00050463          	beqz	a0,140a4 <_vfprintf_r+0x251c>
   140a0:	945fe06f          	j	129e4 <_vfprintf_r+0xe5c>
   140a4:	0cc12683          	lw	a3,204(sp)
   140a8:	01412783          	lw	a5,20(sp)
   140ac:	0ec12603          	lw	a2,236(sp)
   140b0:	000d8413          	mv	s0,s11
   140b4:	40d786b3          	sub	a3,a5,a3
   140b8:	c41fe06f          	j	12cf8 <_vfprintf_r+0x1170>
   140bc:	01412783          	lw	a5,20(sp)
   140c0:	02412703          	lw	a4,36(sp)
   140c4:	06700893          	li	a7,103
   140c8:	00e78d33          	add	s10,a5,a4
   140cc:	01012783          	lw	a5,16(sp)
   140d0:	38f05863          	blez	a5,14460 <_vfprintf_r+0x28d8>
   140d4:	03012783          	lw	a5,48(sp)
   140d8:	4007f713          	andi	a4,a5,1024
   140dc:	2e071e63          	bnez	a4,143d8 <_vfprintf_r+0x2850>
   140e0:	fffd4813          	not	a6,s10
   140e4:	41f85813          	srai	a6,a6,0x1f
   140e8:	04812b83          	lw	s7,72(sp)
   140ec:	010d7cb3          	and	s9,s10,a6
   140f0:	ef1ff06f          	j	13fe0 <_vfprintf_r+0x2458>
   140f4:	ff000513          	li	a0,-16
   140f8:	40b00933          	neg	s2,a1
   140fc:	0000ee17          	auipc	t3,0xe
   14100:	fb4e0e13          	addi	t3,t3,-76 # 220b0 <zeroes.0>
   14104:	0ea5d463          	bge	a1,a0,141ec <_vfprintf_r+0x2664>
   14108:	00912823          	sw	s1,16(sp)
   1410c:	01000d13          	li	s10,16
   14110:	00700a93          	li	s5,7
   14114:	000e0493          	mv	s1,t3
   14118:	00c0006f          	j	14124 <_vfprintf_r+0x259c>
   1411c:	ff090913          	addi	s2,s2,-16
   14120:	0d2d5263          	bge	s10,s2,141e4 <_vfprintf_r+0x265c>
   14124:	01060613          	addi	a2,a2,16
   14128:	00168693          	addi	a3,a3,1
   1412c:	00942023          	sw	s1,0(s0)
   14130:	01a42223          	sw	s10,4(s0)
   14134:	0ec12623          	sw	a2,236(sp)
   14138:	0ed12423          	sw	a3,232(sp)
   1413c:	00840413          	addi	s0,s0,8
   14140:	fcdadee3          	bge	s5,a3,1411c <_vfprintf_r+0x2594>
   14144:	00012583          	lw	a1,0(sp)
   14148:	0e410613          	addi	a2,sp,228
   1414c:	00098513          	mv	a0,s3
   14150:	5ac000ef          	jal	ra,146fc <__sprint_r>
   14154:	00050463          	beqz	a0,1415c <_vfprintf_r+0x25d4>
   14158:	88dfe06f          	j	129e4 <_vfprintf_r+0xe5c>
   1415c:	0ec12603          	lw	a2,236(sp)
   14160:	0e812683          	lw	a3,232(sp)
   14164:	000d8413          	mv	s0,s11
   14168:	fb5ff06f          	j	1411c <_vfprintf_r+0x2594>
   1416c:	000b8613          	mv	a2,s7
   14170:	b64fe06f          	j	124d4 <_vfprintf_r+0x94c>
   14174:	fff00793          	li	a5,-1
   14178:	00f12223          	sw	a5,4(sp)
   1417c:	d71fd06f          	j	11eec <_vfprintf_r+0x364>
   14180:	03012783          	lw	a5,48(sp)
   14184:	0017f713          	andi	a4,a5,1
   14188:	01012783          	lw	a5,16(sp)
   1418c:	01276733          	or	a4,a4,s2
   14190:	30f05663          	blez	a5,1449c <_vfprintf_r+0x2914>
   14194:	2e071463          	bnez	a4,1447c <_vfprintf_r+0x28f4>
   14198:	01012d03          	lw	s10,16(sp)
   1419c:	06600893          	li	a7,102
   141a0:	f35ff06f          	j	140d4 <_vfprintf_r+0x254c>
   141a4:	00dc0cb3          	add	s9,s8,a3
   141a8:	04700a93          	li	s5,71
   141ac:	0a010d13          	addi	s10,sp,160
   141b0:	810ff06f          	j	131c0 <_vfprintf_r+0x1638>
   141b4:	0d610713          	addi	a4,sp,214
   141b8:	00061863          	bnez	a2,141c8 <_vfprintf_r+0x2640>
   141bc:	03000713          	li	a4,48
   141c0:	0ce10b23          	sb	a4,214(sp)
   141c4:	0d710713          	addi	a4,sp,215
   141c8:	1b010793          	addi	a5,sp,432
   141cc:	40f706b3          	sub	a3,a4,a5
   141d0:	030d0d13          	addi	s10,s10,48
   141d4:	0dd68793          	addi	a5,a3,221
   141d8:	01a70023          	sb	s10,0(a4)
   141dc:	02f12c23          	sw	a5,56(sp)
   141e0:	935ff06f          	j	13b14 <_vfprintf_r+0x1f8c>
   141e4:	00048e13          	mv	t3,s1
   141e8:	01012483          	lw	s1,16(sp)
   141ec:	01260633          	add	a2,a2,s2
   141f0:	00168693          	addi	a3,a3,1
   141f4:	01c42023          	sw	t3,0(s0)
   141f8:	01242223          	sw	s2,4(s0)
   141fc:	0ec12623          	sw	a2,236(sp)
   14200:	0ed12423          	sw	a3,232(sp)
   14204:	00700593          	li	a1,7
   14208:	a2d5d663          	bge	a1,a3,13434 <_vfprintf_r+0x18ac>
   1420c:	00012583          	lw	a1,0(sp)
   14210:	0e410613          	addi	a2,sp,228
   14214:	00098513          	mv	a0,s3
   14218:	4e4000ef          	jal	ra,146fc <__sprint_r>
   1421c:	00050463          	beqz	a0,14224 <_vfprintf_r+0x269c>
   14220:	fc4fe06f          	j	129e4 <_vfprintf_r+0xe5c>
   14224:	0ec12603          	lw	a2,236(sp)
   14228:	0e812683          	lw	a3,232(sp)
   1422c:	000d8413          	mv	s0,s11
   14230:	b48ff06f          	j	13578 <_vfprintf_r+0x19f0>
   14234:	04c12783          	lw	a5,76(sp)
   14238:	00f34583          	lbu	a1,15(t1)
   1423c:	000a8693          	mv	a3,s5
   14240:	0cf12e23          	sw	a5,220(sp)
   14244:	fffac603          	lbu	a2,-1(s5)
   14248:	02b61063          	bne	a2,a1,14268 <_vfprintf_r+0x26e0>
   1424c:	03000513          	li	a0,48
   14250:	fea68fa3          	sb	a0,-1(a3)
   14254:	0dc12683          	lw	a3,220(sp)
   14258:	fff68793          	addi	a5,a3,-1
   1425c:	0cf12e23          	sw	a5,220(sp)
   14260:	fff6c603          	lbu	a2,-1(a3)
   14264:	fec586e3          	beq	a1,a2,14250 <_vfprintf_r+0x26c8>
   14268:	00160593          	addi	a1,a2,1
   1426c:	03900513          	li	a0,57
   14270:	0ff5f593          	zext.b	a1,a1
   14274:	00a60863          	beq	a2,a0,14284 <_vfprintf_r+0x26fc>
   14278:	feb68fa3          	sb	a1,-1(a3)
   1427c:	000a8b93          	mv	s7,s5
   14280:	cf9ff06f          	j	13f78 <_vfprintf_r+0x23f0>
   14284:	00a34583          	lbu	a1,10(t1)
   14288:	feb68fa3          	sb	a1,-1(a3)
   1428c:	ff1ff06f          	j	1427c <_vfprintf_r+0x26f4>
   14290:	00048593          	mv	a1,s1
   14294:	000a0a93          	mv	s5,s4
   14298:	00812823          	sw	s0,16(sp)
   1429c:	00098f13          	mv	t5,s3
   142a0:	06412483          	lw	s1,100(sp)
   142a4:	06812883          	lw	a7,104(sp)
   142a8:	07012903          	lw	s2,112(sp)
   142ac:	06c12a03          	lw	s4,108(sp)
   142b0:	07412403          	lw	s0,116(sp)
   142b4:	04412303          	lw	t1,68(sp)
   142b8:	07c12c03          	lw	s8,124(sp)
   142bc:	07812983          	lw	s3,120(sp)
   142c0:	00058c93          	mv	s9,a1
   142c4:	bfdff06f          	j	13ec0 <_vfprintf_r+0x2338>
   142c8:	03012783          	lw	a5,48(sp)
   142cc:	0017f713          	andi	a4,a5,1
   142d0:	860700e3          	beqz	a4,13b30 <_vfprintf_r+0x1fa8>
   142d4:	855ff06f          	j	13b28 <_vfprintf_r+0x1fa0>
   142d8:	00090463          	beqz	s2,142e0 <_vfprintf_r+0x2758>
   142dc:	ec1fd06f          	j	1219c <_vfprintf_r+0x614>
   142e0:	00100913          	li	s2,1
   142e4:	eb9fd06f          	j	1219c <_vfprintf_r+0x614>
   142e8:	00600913          	li	s2,6
   142ec:	eb1fd06f          	j	1219c <_vfprintf_r+0x614>
   142f0:	0b010b93          	addi	s7,sp,176
   142f4:	0a010d13          	addi	s10,sp,160
   142f8:	0cc10613          	addi	a2,sp,204
   142fc:	000d0593          	mv	a1,s10
   14300:	000b8513          	mv	a0,s7
   14304:	05112223          	sw	a7,68(sp)
   14308:	0bf12023          	sw	t6,160(sp)
   1430c:	0be12223          	sw	t5,164(sp)
   14310:	0bd12423          	sw	t4,168(sp)
   14314:	0bc12623          	sw	t3,172(sp)
   14318:	2b9020ef          	jal	ra,16dd0 <frexpl>
   1431c:	0b012e83          	lw	t4,176(sp)
   14320:	0000e717          	auipc	a4,0xe
   14324:	db070713          	addi	a4,a4,-592 # 220d0 <blanks.1+0x10>
   14328:	00072e03          	lw	t3,0(a4)
   1432c:	0bd12023          	sw	t4,160(sp)
   14330:	0b412e83          	lw	t4,180(sp)
   14334:	00472803          	lw	a6,4(a4)
   14338:	00872683          	lw	a3,8(a4)
   1433c:	0bd12223          	sw	t4,164(sp)
   14340:	0b812e83          	lw	t4,184(sp)
   14344:	00c72703          	lw	a4,12(a4)
   14348:	09010793          	addi	a5,sp,144
   1434c:	0bd12423          	sw	t4,168(sp)
   14350:	0bc12e83          	lw	t4,188(sp)
   14354:	00078613          	mv	a2,a5
   14358:	000d0593          	mv	a1,s10
   1435c:	000b8513          	mv	a0,s7
   14360:	00f12823          	sw	a5,16(sp)
   14364:	0bd12623          	sw	t4,172(sp)
   14368:	09c12823          	sw	t3,144(sp)
   1436c:	09012a23          	sw	a6,148(sp)
   14370:	08d12c23          	sw	a3,152(sp)
   14374:	08e12e23          	sw	a4,156(sp)
   14378:	2cd0a0ef          	jal	ra,1ee44 <__multf3>
   1437c:	0b412803          	lw	a6,180(sp)
   14380:	0b812e03          	lw	t3,184(sp)
   14384:	0bc12e83          	lw	t4,188(sp)
   14388:	000d0593          	mv	a1,s10
   1438c:	000b8513          	mv	a0,s7
   14390:	01012e23          	sw	a6,28(sp)
   14394:	01c12c23          	sw	t3,24(sp)
   14398:	01d12a23          	sw	t4,20(sp)
   1439c:	0a012023          	sw	zero,160(sp)
   143a0:	0a012223          	sw	zero,164(sp)
   143a4:	0a012423          	sw	zero,168(sp)
   143a8:	0a012623          	sw	zero,172(sp)
   143ac:	6fc0a0ef          	jal	ra,1eaa8 <__eqtf2>
   143b0:	0b012c83          	lw	s9,176(sp)
   143b4:	01412e83          	lw	t4,20(sp)
   143b8:	01812e03          	lw	t3,24(sp)
   143bc:	01c12803          	lw	a6,28(sp)
   143c0:	04412883          	lw	a7,68(sp)
   143c4:	0000e317          	auipc	t1,0xe
   143c8:	ab430313          	addi	t1,t1,-1356 # 21e78 <__clzsi2+0x160>
   143cc:	920512e3          	bnez	a0,13cf0 <_vfprintf_r+0x2168>
   143d0:	901ff06f          	j	13cd0 <_vfprintf_r+0x2148>
   143d4:	06700893          	li	a7,103
   143d8:	03412603          	lw	a2,52(sp)
   143dc:	0ff00693          	li	a3,255
   143e0:	00064703          	lbu	a4,0(a2)
   143e4:	12d70c63          	beq	a4,a3,1451c <_vfprintf_r+0x2994>
   143e8:	01012783          	lw	a5,16(sp)
   143ec:	00000513          	li	a0,0
   143f0:	00000593          	li	a1,0
   143f4:	00f75e63          	bge	a4,a5,14410 <_vfprintf_r+0x2888>
   143f8:	40e787b3          	sub	a5,a5,a4
   143fc:	00164703          	lbu	a4,1(a2)
   14400:	04070a63          	beqz	a4,14454 <_vfprintf_r+0x28cc>
   14404:	00158593          	addi	a1,a1,1
   14408:	00160613          	addi	a2,a2,1
   1440c:	fed714e3          	bne	a4,a3,143f4 <_vfprintf_r+0x286c>
   14410:	02c12a23          	sw	a2,52(sp)
   14414:	00f12823          	sw	a5,16(sp)
   14418:	00b12c23          	sw	a1,24(sp)
   1441c:	00a12e23          	sw	a0,28(sp)
   14420:	01c12783          	lw	a5,28(sp)
   14424:	01812703          	lw	a4,24(sp)
   14428:	04012583          	lw	a1,64(sp)
   1442c:	03112823          	sw	a7,48(sp)
   14430:	00e78533          	add	a0,a5,a4
   14434:	00d0d0ef          	jal	ra,21c40 <__mulsi3>
   14438:	01a50d33          	add	s10,a0,s10
   1443c:	fffd4813          	not	a6,s10
   14440:	41f85813          	srai	a6,a6,0x1f
   14444:	04812b83          	lw	s7,72(sp)
   14448:	03012883          	lw	a7,48(sp)
   1444c:	010d7cb3          	and	s9,s10,a6
   14450:	f04ff06f          	j	13b54 <_vfprintf_r+0x1fcc>
   14454:	00064703          	lbu	a4,0(a2)
   14458:	00150513          	addi	a0,a0,1
   1445c:	fb1ff06f          	j	1440c <_vfprintf_r+0x2884>
   14460:	40fd0f33          	sub	t5,s10,a5
   14464:	001f0d13          	addi	s10,t5,1
   14468:	fffd4813          	not	a6,s10
   1446c:	41f85813          	srai	a6,a6,0x1f
   14470:	04812b83          	lw	s7,72(sp)
   14474:	010d7cb3          	and	s9,s10,a6
   14478:	b69ff06f          	j	13fe0 <_vfprintf_r+0x2458>
   1447c:	02412703          	lw	a4,36(sp)
   14480:	06600893          	li	a7,102
   14484:	00e78f33          	add	t5,a5,a4
   14488:	012f0d33          	add	s10,t5,s2
   1448c:	c49ff06f          	j	140d4 <_vfprintf_r+0x254c>
   14490:	07000693          	li	a3,112
   14494:	00100613          	li	a2,1
   14498:	da8ff06f          	j	13a40 <_vfprintf_r+0x1eb8>
   1449c:	00071c63          	bnez	a4,144b4 <_vfprintf_r+0x292c>
   144a0:	04812b83          	lw	s7,72(sp)
   144a4:	00100c93          	li	s9,1
   144a8:	06600893          	li	a7,102
   144ac:	00100d13          	li	s10,1
   144b0:	b31ff06f          	j	13fe0 <_vfprintf_r+0x2458>
   144b4:	02412783          	lw	a5,36(sp)
   144b8:	04812b83          	lw	s7,72(sp)
   144bc:	06600893          	li	a7,102
   144c0:	00178f13          	addi	t5,a5,1
   144c4:	012f0d33          	add	s10,t5,s2
   144c8:	fffd4813          	not	a6,s10
   144cc:	41f85813          	srai	a6,a6,0x1f
   144d0:	010d7cb3          	and	s9,s10,a6
   144d4:	b0dff06f          	j	13fe0 <_vfprintf_r+0x2458>
   144d8:	00c12783          	lw	a5,12(sp)
   144dc:	0007a903          	lw	s2,0(a5)
   144e0:	00478793          	addi	a5,a5,4
   144e4:	00095463          	bgez	s2,144ec <_vfprintf_r+0x2964>
   144e8:	fff00913          	li	s2,-1
   144ec:	0014c883          	lbu	a7,1(s1)
   144f0:	00f12623          	sw	a5,12(sp)
   144f4:	00070493          	mv	s1,a4
   144f8:	82dfd06f          	j	11d24 <_vfprintf_r+0x19c>
   144fc:	00200793          	li	a5,2
   14500:	02f12c23          	sw	a5,56(sp)
   14504:	e10ff06f          	j	13b14 <_vfprintf_r+0x1f8c>
   14508:	00012703          	lw	a4,0(sp)
   1450c:	00c75783          	lhu	a5,12(a4)
   14510:	0407e793          	ori	a5,a5,64
   14514:	00f71623          	sh	a5,12(a4)
   14518:	9c1fd06f          	j	11ed8 <_vfprintf_r+0x350>
   1451c:	00012e23          	sw	zero,28(sp)
   14520:	00012c23          	sw	zero,24(sp)
   14524:	efdff06f          	j	14420 <_vfprintf_r+0x2898>

00014528 <vfprintf>:
   14528:	00060693          	mv	a3,a2
   1452c:	00058613          	mv	a2,a1
   14530:	00050593          	mv	a1,a0
   14534:	f0c1a503          	lw	a0,-244(gp) # 237cc <_impure_ptr>
   14538:	e50fd06f          	j	11b88 <_vfprintf_r>

0001453c <__sbprintf>:
   1453c:	00c59783          	lh	a5,12(a1)
   14540:	00e5d703          	lhu	a4,14(a1)
   14544:	0645a303          	lw	t1,100(a1)
   14548:	ffd7f793          	andi	a5,a5,-3
   1454c:	01079793          	slli	a5,a5,0x10
   14550:	01c5a883          	lw	a7,28(a1)
   14554:	0245a803          	lw	a6,36(a1)
   14558:	01071713          	slli	a4,a4,0x10
   1455c:	0107d793          	srli	a5,a5,0x10
   14560:	b8010113          	addi	sp,sp,-1152
   14564:	00e7e7b3          	or	a5,a5,a4
   14568:	46812c23          	sw	s0,1144(sp)
   1456c:	40000713          	li	a4,1024
   14570:	00f12a23          	sw	a5,20(sp)
   14574:	00058413          	mv	s0,a1
   14578:	07010793          	addi	a5,sp,112
   1457c:	00810593          	addi	a1,sp,8
   14580:	46912a23          	sw	s1,1140(sp)
   14584:	47212823          	sw	s2,1136(sp)
   14588:	46112e23          	sw	ra,1148(sp)
   1458c:	00050913          	mv	s2,a0
   14590:	06612623          	sw	t1,108(sp)
   14594:	03112223          	sw	a7,36(sp)
   14598:	03012623          	sw	a6,44(sp)
   1459c:	00f12423          	sw	a5,8(sp)
   145a0:	00f12c23          	sw	a5,24(sp)
   145a4:	00e12823          	sw	a4,16(sp)
   145a8:	00e12e23          	sw	a4,28(sp)
   145ac:	02012023          	sw	zero,32(sp)
   145b0:	dd8fd0ef          	jal	ra,11b88 <_vfprintf_r>
   145b4:	00050493          	mv	s1,a0
   145b8:	02055c63          	bgez	a0,145f0 <__sbprintf+0xb4>
   145bc:	01415783          	lhu	a5,20(sp)
   145c0:	0407f793          	andi	a5,a5,64
   145c4:	00078863          	beqz	a5,145d4 <__sbprintf+0x98>
   145c8:	00c45783          	lhu	a5,12(s0)
   145cc:	0407e793          	ori	a5,a5,64
   145d0:	00f41623          	sh	a5,12(s0)
   145d4:	47c12083          	lw	ra,1148(sp)
   145d8:	47812403          	lw	s0,1144(sp)
   145dc:	47012903          	lw	s2,1136(sp)
   145e0:	00048513          	mv	a0,s1
   145e4:	47412483          	lw	s1,1140(sp)
   145e8:	48010113          	addi	sp,sp,1152
   145ec:	00008067          	ret
   145f0:	00810593          	addi	a1,sp,8
   145f4:	00090513          	mv	a0,s2
   145f8:	129010ef          	jal	ra,15f20 <_fflush_r>
   145fc:	fc0500e3          	beqz	a0,145bc <__sbprintf+0x80>
   14600:	fff00493          	li	s1,-1
   14604:	fb9ff06f          	j	145bc <__sbprintf+0x80>

00014608 <__sprint_r.part.0>:
   14608:	0645a703          	lw	a4,100(a1)
   1460c:	fd010113          	addi	sp,sp,-48
   14610:	000027b7          	lui	a5,0x2
   14614:	01612823          	sw	s6,16(sp)
   14618:	02112623          	sw	ra,44(sp)
   1461c:	02812423          	sw	s0,40(sp)
   14620:	02912223          	sw	s1,36(sp)
   14624:	03212023          	sw	s2,32(sp)
   14628:	01312e23          	sw	s3,28(sp)
   1462c:	01412c23          	sw	s4,24(sp)
   14630:	01512a23          	sw	s5,20(sp)
   14634:	01712623          	sw	s7,12(sp)
   14638:	01812423          	sw	s8,8(sp)
   1463c:	00e7f7b3          	and	a5,a5,a4
   14640:	00060b13          	mv	s6,a2
   14644:	0a078863          	beqz	a5,146f4 <__sprint_r.part.0+0xec>
   14648:	00862783          	lw	a5,8(a2)
   1464c:	00062b83          	lw	s7,0(a2)
   14650:	00058913          	mv	s2,a1
   14654:	00050993          	mv	s3,a0
   14658:	fff00a93          	li	s5,-1
   1465c:	08078863          	beqz	a5,146ec <__sprint_r.part.0+0xe4>
   14660:	004bac03          	lw	s8,4(s7)
   14664:	000ba403          	lw	s0,0(s7)
   14668:	002c5a13          	srli	s4,s8,0x2
   1466c:	060a0663          	beqz	s4,146d8 <__sprint_r.part.0+0xd0>
   14670:	00000493          	li	s1,0
   14674:	00c0006f          	j	14680 <__sprint_r.part.0+0x78>
   14678:	00440413          	addi	s0,s0,4
   1467c:	049a0c63          	beq	s4,s1,146d4 <__sprint_r.part.0+0xcc>
   14680:	00042583          	lw	a1,0(s0)
   14684:	00090613          	mv	a2,s2
   14688:	00098513          	mv	a0,s3
   1468c:	044020ef          	jal	ra,166d0 <_fputwc_r>
   14690:	00148493          	addi	s1,s1,1
   14694:	ff5512e3          	bne	a0,s5,14678 <__sprint_r.part.0+0x70>
   14698:	fff00513          	li	a0,-1
   1469c:	02c12083          	lw	ra,44(sp)
   146a0:	02812403          	lw	s0,40(sp)
   146a4:	000b2423          	sw	zero,8(s6)
   146a8:	000b2223          	sw	zero,4(s6)
   146ac:	02412483          	lw	s1,36(sp)
   146b0:	02012903          	lw	s2,32(sp)
   146b4:	01c12983          	lw	s3,28(sp)
   146b8:	01812a03          	lw	s4,24(sp)
   146bc:	01412a83          	lw	s5,20(sp)
   146c0:	01012b03          	lw	s6,16(sp)
   146c4:	00c12b83          	lw	s7,12(sp)
   146c8:	00812c03          	lw	s8,8(sp)
   146cc:	03010113          	addi	sp,sp,48
   146d0:	00008067          	ret
   146d4:	008b2783          	lw	a5,8(s6)
   146d8:	ffcc7c13          	andi	s8,s8,-4
   146dc:	418787b3          	sub	a5,a5,s8
   146e0:	00fb2423          	sw	a5,8(s6)
   146e4:	008b8b93          	addi	s7,s7,8
   146e8:	f6079ce3          	bnez	a5,14660 <__sprint_r.part.0+0x58>
   146ec:	00000513          	li	a0,0
   146f0:	fadff06f          	j	1469c <__sprint_r.part.0+0x94>
   146f4:	111010ef          	jal	ra,16004 <__sfvwrite_r>
   146f8:	fa5ff06f          	j	1469c <__sprint_r.part.0+0x94>

000146fc <__sprint_r>:
   146fc:	00862703          	lw	a4,8(a2)
   14700:	00070463          	beqz	a4,14708 <__sprint_r+0xc>
   14704:	f05ff06f          	j	14608 <__sprint_r.part.0>
   14708:	00062223          	sw	zero,4(a2)
   1470c:	00000513          	li	a0,0
   14710:	00008067          	ret

00014714 <_vfiprintf_r>:
   14714:	ed010113          	addi	sp,sp,-304
   14718:	13212023          	sw	s2,288(sp)
   1471c:	11312e23          	sw	s3,284(sp)
   14720:	11412c23          	sw	s4,280(sp)
   14724:	11812423          	sw	s8,264(sp)
   14728:	12112623          	sw	ra,300(sp)
   1472c:	12812423          	sw	s0,296(sp)
   14730:	12912223          	sw	s1,292(sp)
   14734:	11512a23          	sw	s5,276(sp)
   14738:	11612823          	sw	s6,272(sp)
   1473c:	11712623          	sw	s7,268(sp)
   14740:	11912223          	sw	s9,260(sp)
   14744:	11a12023          	sw	s10,256(sp)
   14748:	0fb12e23          	sw	s11,252(sp)
   1474c:	00050a13          	mv	s4,a0
   14750:	00058913          	mv	s2,a1
   14754:	00060c13          	mv	s8,a2
   14758:	00068993          	mv	s3,a3
   1475c:	00050863          	beqz	a0,1476c <_vfiprintf_r+0x58>
   14760:	03452783          	lw	a5,52(a0)
   14764:	00079463          	bnez	a5,1476c <_vfiprintf_r+0x58>
   14768:	2280106f          	j	15990 <_vfiprintf_r+0x127c>
   1476c:	00c91783          	lh	a5,12(s2)
   14770:	01279713          	slli	a4,a5,0x12
   14774:	02074663          	bltz	a4,147a0 <_vfiprintf_r+0x8c>
   14778:	06492703          	lw	a4,100(s2)
   1477c:	000026b7          	lui	a3,0x2
   14780:	00d7e7b3          	or	a5,a5,a3
   14784:	ffffe6b7          	lui	a3,0xffffe
   14788:	01079793          	slli	a5,a5,0x10
   1478c:	fff68693          	addi	a3,a3,-1 # ffffdfff <__BSS_END__+0xfffda4fb>
   14790:	4107d793          	srai	a5,a5,0x10
   14794:	00d77733          	and	a4,a4,a3
   14798:	00f91623          	sh	a5,12(s2)
   1479c:	06e92223          	sw	a4,100(s2)
   147a0:	0087f713          	andi	a4,a5,8
   147a4:	12070463          	beqz	a4,148cc <_vfiprintf_r+0x1b8>
   147a8:	01092703          	lw	a4,16(s2)
   147ac:	12070063          	beqz	a4,148cc <_vfiprintf_r+0x1b8>
   147b0:	01a7f793          	andi	a5,a5,26
   147b4:	00a00713          	li	a4,10
   147b8:	12e78c63          	beq	a5,a4,148f0 <_vfiprintf_r+0x1dc>
   147bc:	04c10493          	addi	s1,sp,76
   147c0:	00000b93          	li	s7,0
   147c4:	000b8d13          	mv	s10,s7
   147c8:	04912023          	sw	s1,64(sp)
   147cc:	04012423          	sw	zero,72(sp)
   147d0:	04012223          	sw	zero,68(sp)
   147d4:	00048713          	mv	a4,s1
   147d8:	00012223          	sw	zero,4(sp)
   147dc:	00012e23          	sw	zero,28(sp)
   147e0:	02012023          	sw	zero,32(sp)
   147e4:	02012223          	sw	zero,36(sp)
   147e8:	0000eb17          	auipc	s6,0xe
   147ec:	918b0b13          	addi	s6,s6,-1768 # 22100 <blanks.1+0x40>
   147f0:	01000413          	li	s0,16
   147f4:	0000ea97          	auipc	s5,0xe
   147f8:	a78a8a93          	addi	s5,s5,-1416 # 2226c <zeroes.0>
   147fc:	000c0b93          	mv	s7,s8
   14800:	00098313          	mv	t1,s3
   14804:	000bc783          	lbu	a5,0(s7)
   14808:	36078a63          	beqz	a5,14b7c <_vfiprintf_r+0x468>
   1480c:	000b8c93          	mv	s9,s7
   14810:	02500693          	li	a3,37
   14814:	3ad78463          	beq	a5,a3,14bbc <_vfiprintf_r+0x4a8>
   14818:	001cc783          	lbu	a5,1(s9)
   1481c:	001c8c93          	addi	s9,s9,1
   14820:	fe079ae3          	bnez	a5,14814 <_vfiprintf_r+0x100>
   14824:	417c89b3          	sub	s3,s9,s7
   14828:	357c8a63          	beq	s9,s7,14b7c <_vfiprintf_r+0x468>
   1482c:	04812683          	lw	a3,72(sp)
   14830:	04412783          	lw	a5,68(sp)
   14834:	01772023          	sw	s7,0(a4)
   14838:	00d986b3          	add	a3,s3,a3
   1483c:	00178793          	addi	a5,a5,1 # 2001 <exit-0xe093>
   14840:	01372223          	sw	s3,4(a4)
   14844:	04d12423          	sw	a3,72(sp)
   14848:	04f12223          	sw	a5,68(sp)
   1484c:	00700613          	li	a2,7
   14850:	00870713          	addi	a4,a4,8
   14854:	02f65463          	bge	a2,a5,1487c <_vfiprintf_r+0x168>
   14858:	580688e3          	beqz	a3,155e8 <_vfiprintf_r+0xed4>
   1485c:	04010613          	addi	a2,sp,64
   14860:	00090593          	mv	a1,s2
   14864:	000a0513          	mv	a0,s4
   14868:	00612423          	sw	t1,8(sp)
   1486c:	d9dff0ef          	jal	ra,14608 <__sprint_r.part.0>
   14870:	00812303          	lw	t1,8(sp)
   14874:	0e051663          	bnez	a0,14960 <_vfiprintf_r+0x24c>
   14878:	00048713          	mv	a4,s1
   1487c:	000cc783          	lbu	a5,0(s9)
   14880:	013d0d33          	add	s10,s10,s3
   14884:	2e078c63          	beqz	a5,14b7c <_vfiprintf_r+0x468>
   14888:	00000693          	li	a3,0
   1488c:	00000813          	li	a6,0
   14890:	001cc603          	lbu	a2,1(s9)
   14894:	001c8b93          	addi	s7,s9,1
   14898:	02010da3          	sb	zero,59(sp)
   1489c:	fff00c93          	li	s9,-1
   148a0:	05a00993          	li	s3,90
   148a4:	00080c13          	mv	s8,a6
   148a8:	00068d93          	mv	s11,a3
   148ac:	001b8b93          	addi	s7,s7,1
   148b0:	fe060793          	addi	a5,a2,-32
   148b4:	12f9ea63          	bltu	s3,a5,149e8 <_vfiprintf_r+0x2d4>
   148b8:	00279793          	slli	a5,a5,0x2
   148bc:	016787b3          	add	a5,a5,s6
   148c0:	0007a783          	lw	a5,0(a5)
   148c4:	016787b3          	add	a5,a5,s6
   148c8:	00078067          	jr	a5
   148cc:	00090593          	mv	a1,s2
   148d0:	000a0513          	mv	a0,s4
   148d4:	3d1010ef          	jal	ra,164a4 <__swsetup_r>
   148d8:	00050463          	beqz	a0,148e0 <_vfiprintf_r+0x1cc>
   148dc:	1d00106f          	j	15aac <_vfiprintf_r+0x1398>
   148e0:	00c91783          	lh	a5,12(s2)
   148e4:	00a00713          	li	a4,10
   148e8:	01a7f793          	andi	a5,a5,26
   148ec:	ece798e3          	bne	a5,a4,147bc <_vfiprintf_r+0xa8>
   148f0:	00e91783          	lh	a5,14(s2)
   148f4:	ec07c4e3          	bltz	a5,147bc <_vfiprintf_r+0xa8>
   148f8:	12812403          	lw	s0,296(sp)
   148fc:	12c12083          	lw	ra,300(sp)
   14900:	12412483          	lw	s1,292(sp)
   14904:	11412a83          	lw	s5,276(sp)
   14908:	11012b03          	lw	s6,272(sp)
   1490c:	10c12b83          	lw	s7,268(sp)
   14910:	10412c83          	lw	s9,260(sp)
   14914:	10012d03          	lw	s10,256(sp)
   14918:	0fc12d83          	lw	s11,252(sp)
   1491c:	00098693          	mv	a3,s3
   14920:	000c0613          	mv	a2,s8
   14924:	11c12983          	lw	s3,284(sp)
   14928:	10812c03          	lw	s8,264(sp)
   1492c:	00090593          	mv	a1,s2
   14930:	000a0513          	mv	a0,s4
   14934:	12012903          	lw	s2,288(sp)
   14938:	11812a03          	lw	s4,280(sp)
   1493c:	13010113          	addi	sp,sp,304
   14940:	1b40106f          	j	15af4 <__sbprintf>
   14944:	04010613          	addi	a2,sp,64
   14948:	00090593          	mv	a1,s2
   1494c:	000a0513          	mv	a0,s4
   14950:	00612423          	sw	t1,8(sp)
   14954:	cb5ff0ef          	jal	ra,14608 <__sprint_r.part.0>
   14958:	00812303          	lw	t1,8(sp)
   1495c:	20050863          	beqz	a0,14b6c <_vfiprintf_r+0x458>
   14960:	000d0b93          	mv	s7,s10
   14964:	00c95783          	lhu	a5,12(s2)
   14968:	0407f793          	andi	a5,a5,64
   1496c:	00078463          	beqz	a5,14974 <_vfiprintf_r+0x260>
   14970:	13c0106f          	j	15aac <_vfiprintf_r+0x1398>
   14974:	12c12083          	lw	ra,300(sp)
   14978:	12812403          	lw	s0,296(sp)
   1497c:	12412483          	lw	s1,292(sp)
   14980:	12012903          	lw	s2,288(sp)
   14984:	11c12983          	lw	s3,284(sp)
   14988:	11812a03          	lw	s4,280(sp)
   1498c:	11412a83          	lw	s5,276(sp)
   14990:	11012b03          	lw	s6,272(sp)
   14994:	10812c03          	lw	s8,264(sp)
   14998:	10412c83          	lw	s9,260(sp)
   1499c:	10012d03          	lw	s10,256(sp)
   149a0:	0fc12d83          	lw	s11,252(sp)
   149a4:	000b8513          	mv	a0,s7
   149a8:	10c12b83          	lw	s7,268(sp)
   149ac:	13010113          	addi	sp,sp,304
   149b0:	00008067          	ret
   149b4:	00000d93          	li	s11,0
   149b8:	fd060793          	addi	a5,a2,-48
   149bc:	00900513          	li	a0,9
   149c0:	000bc603          	lbu	a2,0(s7)
   149c4:	002d9593          	slli	a1,s11,0x2
   149c8:	01b586b3          	add	a3,a1,s11
   149cc:	00169693          	slli	a3,a3,0x1
   149d0:	00d78db3          	add	s11,a5,a3
   149d4:	fd060793          	addi	a5,a2,-48
   149d8:	001b8b93          	addi	s7,s7,1
   149dc:	fef572e3          	bgeu	a0,a5,149c0 <_vfiprintf_r+0x2ac>
   149e0:	fe060793          	addi	a5,a2,-32
   149e4:	ecf9fae3          	bgeu	s3,a5,148b8 <_vfiprintf_r+0x1a4>
   149e8:	000c0813          	mv	a6,s8
   149ec:	000d8693          	mv	a3,s11
   149f0:	18060663          	beqz	a2,14b7c <_vfiprintf_r+0x468>
   149f4:	08c10623          	sb	a2,140(sp)
   149f8:	02010da3          	sb	zero,59(sp)
   149fc:	00100993          	li	s3,1
   14a00:	00100893          	li	a7,1
   14a04:	08c10c13          	addi	s8,sp,140
   14a08:	00000c93          	li	s9,0
   14a0c:	00287f93          	andi	t6,a6,2
   14a10:	000f8463          	beqz	t6,14a18 <_vfiprintf_r+0x304>
   14a14:	00298993          	addi	s3,s3,2
   14a18:	04412603          	lw	a2,68(sp)
   14a1c:	08487293          	andi	t0,a6,132
   14a20:	04812783          	lw	a5,72(sp)
   14a24:	00160593          	addi	a1,a2,1
   14a28:	00058e93          	mv	t4,a1
   14a2c:	00029663          	bnez	t0,14a38 <_vfiprintf_r+0x324>
   14a30:	41368db3          	sub	s11,a3,s3
   14a34:	25b044e3          	bgtz	s11,1547c <_vfiprintf_r+0xd68>
   14a38:	03b14583          	lbu	a1,59(sp)
   14a3c:	02058a63          	beqz	a1,14a70 <_vfiprintf_r+0x35c>
   14a40:	03b10613          	addi	a2,sp,59
   14a44:	00178793          	addi	a5,a5,1
   14a48:	00c72023          	sw	a2,0(a4)
   14a4c:	00100613          	li	a2,1
   14a50:	00c72223          	sw	a2,4(a4)
   14a54:	04f12423          	sw	a5,72(sp)
   14a58:	05d12223          	sw	t4,68(sp)
   14a5c:	00700613          	li	a2,7
   14a60:	13d64ee3          	blt	a2,t4,1539c <_vfiprintf_r+0xc88>
   14a64:	000e8613          	mv	a2,t4
   14a68:	00870713          	addi	a4,a4,8
   14a6c:	001e8e93          	addi	t4,t4,1
   14a70:	060f8c63          	beqz	t6,14ae8 <_vfiprintf_r+0x3d4>
   14a74:	03c10613          	addi	a2,sp,60
   14a78:	00278793          	addi	a5,a5,2
   14a7c:	00c72023          	sw	a2,0(a4)
   14a80:	00200613          	li	a2,2
   14a84:	00c72223          	sw	a2,4(a4)
   14a88:	04f12423          	sw	a5,72(sp)
   14a8c:	05d12223          	sw	t4,68(sp)
   14a90:	00700613          	li	a2,7
   14a94:	19d650e3          	bge	a2,t4,15414 <_vfiprintf_r+0xd00>
   14a98:	3e0784e3          	beqz	a5,15680 <_vfiprintf_r+0xf6c>
   14a9c:	04010613          	addi	a2,sp,64
   14aa0:	00090593          	mv	a1,s2
   14aa4:	000a0513          	mv	a0,s4
   14aa8:	00612c23          	sw	t1,24(sp)
   14aac:	00d12a23          	sw	a3,20(sp)
   14ab0:	01012823          	sw	a6,16(sp)
   14ab4:	01112623          	sw	a7,12(sp)
   14ab8:	00512423          	sw	t0,8(sp)
   14abc:	b4dff0ef          	jal	ra,14608 <__sprint_r.part.0>
   14ac0:	ea0510e3          	bnez	a0,14960 <_vfiprintf_r+0x24c>
   14ac4:	04412603          	lw	a2,68(sp)
   14ac8:	04812783          	lw	a5,72(sp)
   14acc:	01812303          	lw	t1,24(sp)
   14ad0:	01412683          	lw	a3,20(sp)
   14ad4:	01012803          	lw	a6,16(sp)
   14ad8:	00c12883          	lw	a7,12(sp)
   14adc:	00812283          	lw	t0,8(sp)
   14ae0:	00048713          	mv	a4,s1
   14ae4:	00160e93          	addi	t4,a2,1
   14ae8:	08000593          	li	a1,128
   14aec:	68b28263          	beq	t0,a1,15170 <_vfiprintf_r+0xa5c>
   14af0:	411c8cb3          	sub	s9,s9,a7
   14af4:	7b904a63          	bgtz	s9,152a8 <_vfiprintf_r+0xb94>
   14af8:	00f887b3          	add	a5,a7,a5
   14afc:	01872023          	sw	s8,0(a4)
   14b00:	01172223          	sw	a7,4(a4)
   14b04:	04f12423          	sw	a5,72(sp)
   14b08:	05d12223          	sw	t4,68(sp)
   14b0c:	00700613          	li	a2,7
   14b10:	65d65463          	bge	a2,t4,15158 <_vfiprintf_r+0xa44>
   14b14:	0a078c63          	beqz	a5,14bcc <_vfiprintf_r+0x4b8>
   14b18:	04010613          	addi	a2,sp,64
   14b1c:	00090593          	mv	a1,s2
   14b20:	000a0513          	mv	a0,s4
   14b24:	00612823          	sw	t1,16(sp)
   14b28:	00d12623          	sw	a3,12(sp)
   14b2c:	01012423          	sw	a6,8(sp)
   14b30:	ad9ff0ef          	jal	ra,14608 <__sprint_r.part.0>
   14b34:	e20516e3          	bnez	a0,14960 <_vfiprintf_r+0x24c>
   14b38:	04812783          	lw	a5,72(sp)
   14b3c:	01012303          	lw	t1,16(sp)
   14b40:	00c12683          	lw	a3,12(sp)
   14b44:	00812803          	lw	a6,8(sp)
   14b48:	00048713          	mv	a4,s1
   14b4c:	00487813          	andi	a6,a6,4
   14b50:	00080663          	beqz	a6,14b5c <_vfiprintf_r+0x448>
   14b54:	41368c33          	sub	s8,a3,s3
   14b58:	09804663          	bgtz	s8,14be4 <_vfiprintf_r+0x4d0>
   14b5c:	0136d463          	bge	a3,s3,14b64 <_vfiprintf_r+0x450>
   14b60:	00098693          	mv	a3,s3
   14b64:	00dd0d33          	add	s10,s10,a3
   14b68:	dc079ee3          	bnez	a5,14944 <_vfiprintf_r+0x230>
   14b6c:	000bc783          	lbu	a5,0(s7)
   14b70:	04012223          	sw	zero,68(sp)
   14b74:	00048713          	mv	a4,s1
   14b78:	c8079ae3          	bnez	a5,1480c <_vfiprintf_r+0xf8>
   14b7c:	04812783          	lw	a5,72(sp)
   14b80:	000d0b93          	mv	s7,s10
   14b84:	de0780e3          	beqz	a5,14964 <_vfiprintf_r+0x250>
   14b88:	04010613          	addi	a2,sp,64
   14b8c:	00090593          	mv	a1,s2
   14b90:	000a0513          	mv	a0,s4
   14b94:	a75ff0ef          	jal	ra,14608 <__sprint_r.part.0>
   14b98:	dcdff06f          	j	14964 <_vfiprintf_r+0x250>
   14b9c:	00032d83          	lw	s11,0(t1)
   14ba0:	00430313          	addi	t1,t1,4
   14ba4:	220dc063          	bltz	s11,14dc4 <_vfiprintf_r+0x6b0>
   14ba8:	000bc603          	lbu	a2,0(s7)
   14bac:	d01ff06f          	j	148ac <_vfiprintf_r+0x198>
   14bb0:	000bc603          	lbu	a2,0(s7)
   14bb4:	020c6c13          	ori	s8,s8,32
   14bb8:	cf5ff06f          	j	148ac <_vfiprintf_r+0x198>
   14bbc:	417c89b3          	sub	s3,s9,s7
   14bc0:	c77c96e3          	bne	s9,s7,1482c <_vfiprintf_r+0x118>
   14bc4:	000cc783          	lbu	a5,0(s9)
   14bc8:	cbdff06f          	j	14884 <_vfiprintf_r+0x170>
   14bcc:	04012223          	sw	zero,68(sp)
   14bd0:	00487813          	andi	a6,a6,4
   14bd4:	1a080ce3          	beqz	a6,1558c <_vfiprintf_r+0xe78>
   14bd8:	41368c33          	sub	s8,a3,s3
   14bdc:	1b8058e3          	blez	s8,1558c <_vfiprintf_r+0xe78>
   14be0:	00048713          	mv	a4,s1
   14be4:	01000613          	li	a2,16
   14be8:	04412583          	lw	a1,68(sp)
   14bec:	6b8658e3          	bge	a2,s8,15a9c <_vfiprintf_r+0x1388>
   14bf0:	0000de97          	auipc	t4,0xd
   14bf4:	68ce8e93          	addi	t4,t4,1676 # 2227c <blanks.1>
   14bf8:	01312623          	sw	s3,12(sp)
   14bfc:	01712823          	sw	s7,16(sp)
   14c00:	000c0993          	mv	s3,s8
   14c04:	01000c93          	li	s9,16
   14c08:	00700d93          	li	s11,7
   14c0c:	00d12423          	sw	a3,8(sp)
   14c10:	00030c13          	mv	s8,t1
   14c14:	000e8b93          	mv	s7,t4
   14c18:	0180006f          	j	14c30 <_vfiprintf_r+0x51c>
   14c1c:	00258513          	addi	a0,a1,2
   14c20:	00870713          	addi	a4,a4,8
   14c24:	00068593          	mv	a1,a3
   14c28:	ff098993          	addi	s3,s3,-16
   14c2c:	053cd863          	bge	s9,s3,14c7c <_vfiprintf_r+0x568>
   14c30:	01078793          	addi	a5,a5,16
   14c34:	00158693          	addi	a3,a1,1
   14c38:	01772023          	sw	s7,0(a4)
   14c3c:	01972223          	sw	s9,4(a4)
   14c40:	04f12423          	sw	a5,72(sp)
   14c44:	04d12223          	sw	a3,68(sp)
   14c48:	fcdddae3          	bge	s11,a3,14c1c <_vfiprintf_r+0x508>
   14c4c:	50078a63          	beqz	a5,15160 <_vfiprintf_r+0xa4c>
   14c50:	04010613          	addi	a2,sp,64
   14c54:	00090593          	mv	a1,s2
   14c58:	000a0513          	mv	a0,s4
   14c5c:	9adff0ef          	jal	ra,14608 <__sprint_r.part.0>
   14c60:	d00510e3          	bnez	a0,14960 <_vfiprintf_r+0x24c>
   14c64:	04412583          	lw	a1,68(sp)
   14c68:	ff098993          	addi	s3,s3,-16
   14c6c:	04812783          	lw	a5,72(sp)
   14c70:	00048713          	mv	a4,s1
   14c74:	00158513          	addi	a0,a1,1
   14c78:	fb3ccce3          	blt	s9,s3,14c30 <_vfiprintf_r+0x51c>
   14c7c:	000c0313          	mv	t1,s8
   14c80:	000b8e93          	mv	t4,s7
   14c84:	00098c13          	mv	s8,s3
   14c88:	00812683          	lw	a3,8(sp)
   14c8c:	00c12983          	lw	s3,12(sp)
   14c90:	01012b83          	lw	s7,16(sp)
   14c94:	018787b3          	add	a5,a5,s8
   14c98:	01d72023          	sw	t4,0(a4)
   14c9c:	01872223          	sw	s8,4(a4)
   14ca0:	04f12423          	sw	a5,72(sp)
   14ca4:	04a12223          	sw	a0,68(sp)
   14ca8:	00700713          	li	a4,7
   14cac:	eaa758e3          	bge	a4,a0,14b5c <_vfiprintf_r+0x448>
   14cb0:	0c078ee3          	beqz	a5,1558c <_vfiprintf_r+0xe78>
   14cb4:	04010613          	addi	a2,sp,64
   14cb8:	00090593          	mv	a1,s2
   14cbc:	000a0513          	mv	a0,s4
   14cc0:	00612623          	sw	t1,12(sp)
   14cc4:	00d12423          	sw	a3,8(sp)
   14cc8:	941ff0ef          	jal	ra,14608 <__sprint_r.part.0>
   14ccc:	c8051ae3          	bnez	a0,14960 <_vfiprintf_r+0x24c>
   14cd0:	04812783          	lw	a5,72(sp)
   14cd4:	00c12303          	lw	t1,12(sp)
   14cd8:	00812683          	lw	a3,8(sp)
   14cdc:	e81ff06f          	j	14b5c <_vfiprintf_r+0x448>
   14ce0:	000c0813          	mv	a6,s8
   14ce4:	00032c03          	lw	s8,0(t1)
   14ce8:	02010da3          	sb	zero,59(sp)
   14cec:	000d8693          	mv	a3,s11
   14cf0:	00430d93          	addi	s11,t1,4
   14cf4:	4c0c0ae3          	beqz	s8,159c8 <_vfiprintf_r+0x12b4>
   14cf8:	fff00793          	li	a5,-1
   14cfc:	00e12823          	sw	a4,16(sp)
   14d00:	00d12623          	sw	a3,12(sp)
   14d04:	01012423          	sw	a6,8(sp)
   14d08:	3cfc8ae3          	beq	s9,a5,158dc <_vfiprintf_r+0x11c8>
   14d0c:	000c8613          	mv	a2,s9
   14d10:	00000593          	li	a1,0
   14d14:	000c0513          	mv	a0,s8
   14d18:	261010ef          	jal	ra,16778 <memchr>
   14d1c:	00812803          	lw	a6,8(sp)
   14d20:	00c12683          	lw	a3,12(sp)
   14d24:	01012703          	lw	a4,16(sp)
   14d28:	540508e3          	beqz	a0,15a78 <_vfiprintf_r+0x1364>
   14d2c:	418508b3          	sub	a7,a0,s8
   14d30:	fff8c993          	not	s3,a7
   14d34:	41f9d993          	srai	s3,s3,0x1f
   14d38:	0138f9b3          	and	s3,a7,s3
   14d3c:	000d8313          	mv	t1,s11
   14d40:	00000c93          	li	s9,0
   14d44:	16c0006f          	j	14eb0 <_vfiprintf_r+0x79c>
   14d48:	00032783          	lw	a5,0(t1)
   14d4c:	000c0813          	mv	a6,s8
   14d50:	000d8693          	mv	a3,s11
   14d54:	02010da3          	sb	zero,59(sp)
   14d58:	00430313          	addi	t1,t1,4
   14d5c:	08f10623          	sb	a5,140(sp)
   14d60:	00100993          	li	s3,1
   14d64:	00100893          	li	a7,1
   14d68:	08c10c13          	addi	s8,sp,140
   14d6c:	c9dff06f          	j	14a08 <_vfiprintf_r+0x2f4>
   14d70:	000c0813          	mv	a6,s8
   14d74:	02087793          	andi	a5,a6,32
   14d78:	000d8693          	mv	a3,s11
   14d7c:	26078263          	beqz	a5,14fe0 <_vfiprintf_r+0x8cc>
   14d80:	00730313          	addi	t1,t1,7
   14d84:	ff837313          	andi	t1,t1,-8
   14d88:	00432603          	lw	a2,4(t1)
   14d8c:	00032983          	lw	s3,0(t1)
   14d90:	00830313          	addi	t1,t1,8
   14d94:	00060d93          	mv	s11,a2
   14d98:	0c064463          	bltz	a2,14e60 <_vfiprintf_r+0x74c>
   14d9c:	fff00613          	li	a2,-1
   14da0:	0ecc8263          	beq	s9,a2,14e84 <_vfiprintf_r+0x770>
   14da4:	01b9e633          	or	a2,s3,s11
   14da8:	f7f87813          	andi	a6,a6,-129
   14dac:	0c061c63          	bnez	a2,14e84 <_vfiprintf_r+0x770>
   14db0:	4c0c90e3          	bnez	s9,15a70 <_vfiprintf_r+0x135c>
   14db4:	00000993          	li	s3,0
   14db8:	00000893          	li	a7,0
   14dbc:	0f010c13          	addi	s8,sp,240
   14dc0:	0f00006f          	j	14eb0 <_vfiprintf_r+0x79c>
   14dc4:	41b00db3          	neg	s11,s11
   14dc8:	000bc603          	lbu	a2,0(s7)
   14dcc:	004c6c13          	ori	s8,s8,4
   14dd0:	addff06f          	j	148ac <_vfiprintf_r+0x198>
   14dd4:	02b00793          	li	a5,43
   14dd8:	000bc603          	lbu	a2,0(s7)
   14ddc:	02f10da3          	sb	a5,59(sp)
   14de0:	acdff06f          	j	148ac <_vfiprintf_r+0x198>
   14de4:	000bc603          	lbu	a2,0(s7)
   14de8:	06800793          	li	a5,104
   14dec:	3af606e3          	beq	a2,a5,15998 <_vfiprintf_r+0x1284>
   14df0:	040c6c13          	ori	s8,s8,64
   14df4:	ab9ff06f          	j	148ac <_vfiprintf_r+0x198>
   14df8:	000d8693          	mv	a3,s11
   14dfc:	010c6893          	ori	a7,s8,16
   14e00:	0208f793          	andi	a5,a7,32
   14e04:	000784e3          	beqz	a5,1560c <_vfiprintf_r+0xef8>
   14e08:	00730313          	addi	t1,t1,7
   14e0c:	ff837313          	andi	t1,t1,-8
   14e10:	00032983          	lw	s3,0(t1)
   14e14:	00432d83          	lw	s11,4(t1)
   14e18:	00830313          	addi	t1,t1,8
   14e1c:	02010da3          	sb	zero,59(sp)
   14e20:	fff00613          	li	a2,-1
   14e24:	00088813          	mv	a6,a7
   14e28:	04cc8e63          	beq	s9,a2,14e84 <_vfiprintf_r+0x770>
   14e2c:	01b9e633          	or	a2,s3,s11
   14e30:	f7f8f813          	andi	a6,a7,-129
   14e34:	00100793          	li	a5,1
   14e38:	04061663          	bnez	a2,14e84 <_vfiprintf_r+0x770>
   14e3c:	0c0c9c63          	bnez	s9,14f14 <_vfiprintf_r+0x800>
   14e40:	f6079ae3          	bnez	a5,14db4 <_vfiprintf_r+0x6a0>
   14e44:	0018f893          	andi	a7,a7,1
   14e48:	180888e3          	beqz	a7,157d8 <_vfiprintf_r+0x10c4>
   14e4c:	03000793          	li	a5,48
   14e50:	0ef107a3          	sb	a5,239(sp)
   14e54:	00088993          	mv	s3,a7
   14e58:	0ef10c13          	addi	s8,sp,239
   14e5c:	0540006f          	j	14eb0 <_vfiprintf_r+0x79c>
   14e60:	02d00593          	li	a1,45
   14e64:	01303633          	snez	a2,s3
   14e68:	41b00eb3          	neg	t4,s11
   14e6c:	02b10da3          	sb	a1,59(sp)
   14e70:	fff00593          	li	a1,-1
   14e74:	40ce8db3          	sub	s11,t4,a2
   14e78:	413009b3          	neg	s3,s3
   14e7c:	00bc8463          	beq	s9,a1,14e84 <_vfiprintf_r+0x770>
   14e80:	f7f87813          	andi	a6,a6,-129
   14e84:	060d94e3          	bnez	s11,156ec <_vfiprintf_r+0xfd8>
   14e88:	00900613          	li	a2,9
   14e8c:	073660e3          	bltu	a2,s3,156ec <_vfiprintf_r+0xfd8>
   14e90:	03098793          	addi	a5,s3,48
   14e94:	0ff7f793          	zext.b	a5,a5
   14e98:	0ef107a3          	sb	a5,239(sp)
   14e9c:	000c8993          	mv	s3,s9
   14ea0:	01904463          	bgtz	s9,14ea8 <_vfiprintf_r+0x794>
   14ea4:	00100993          	li	s3,1
   14ea8:	00100893          	li	a7,1
   14eac:	0ef10c13          	addi	s8,sp,239
   14eb0:	03b14783          	lbu	a5,59(sp)
   14eb4:	00f037b3          	snez	a5,a5
   14eb8:	00f989b3          	add	s3,s3,a5
   14ebc:	b51ff06f          	j	14a0c <_vfiprintf_r+0x2f8>
   14ec0:	ffff8637          	lui	a2,0xffff8
   14ec4:	83064613          	xori	a2,a2,-2000
   14ec8:	02c11e23          	sh	a2,60(sp)
   14ecc:	0000d617          	auipc	a2,0xd
   14ed0:	fac60613          	addi	a2,a2,-84 # 21e78 <__clzsi2+0x160>
   14ed4:	00032783          	lw	a5,0(t1)
   14ed8:	000d8693          	mv	a3,s11
   14edc:	00000513          	li	a0,0
   14ee0:	002c6813          	ori	a6,s8,2
   14ee4:	00430313          	addi	t1,t1,4
   14ee8:	00c12223          	sw	a2,4(sp)
   14eec:	02010da3          	sb	zero,59(sp)
   14ef0:	fff00613          	li	a2,-1
   14ef4:	52cc8e63          	beq	s9,a2,15430 <_vfiprintf_r+0xd1c>
   14ef8:	00a7e633          	or	a2,a5,a0
   14efc:	f7f87593          	andi	a1,a6,-129
   14f00:	52061263          	bnez	a2,15424 <_vfiprintf_r+0xd10>
   14f04:	00080893          	mv	a7,a6
   14f08:	00200793          	li	a5,2
   14f0c:	00058813          	mv	a6,a1
   14f10:	f20c88e3          	beqz	s9,14e40 <_vfiprintf_r+0x72c>
   14f14:	00100613          	li	a2,1
   14f18:	34c78ce3          	beq	a5,a2,15a70 <_vfiprintf_r+0x135c>
   14f1c:	00200613          	li	a2,2
   14f20:	2cc784e3          	beq	a5,a2,159e8 <_vfiprintf_r+0x12d4>
   14f24:	00000793          	li	a5,0
   14f28:	00000513          	li	a0,0
   14f2c:	0f010c13          	addi	s8,sp,240
   14f30:	01d51593          	slli	a1,a0,0x1d
   14f34:	0077f613          	andi	a2,a5,7
   14f38:	0037d793          	srli	a5,a5,0x3
   14f3c:	03060613          	addi	a2,a2,48
   14f40:	00f5e7b3          	or	a5,a1,a5
   14f44:	00355513          	srli	a0,a0,0x3
   14f48:	fecc0fa3          	sb	a2,-1(s8)
   14f4c:	00a7e5b3          	or	a1,a5,a0
   14f50:	000c0893          	mv	a7,s8
   14f54:	fffc0c13          	addi	s8,s8,-1
   14f58:	fc059ce3          	bnez	a1,14f30 <_vfiprintf_r+0x81c>
   14f5c:	00187793          	andi	a5,a6,1
   14f60:	50078263          	beqz	a5,15464 <_vfiprintf_r+0xd50>
   14f64:	03000593          	li	a1,48
   14f68:	4eb60e63          	beq	a2,a1,15464 <_vfiprintf_r+0xd50>
   14f6c:	ffe88793          	addi	a5,a7,-2
   14f70:	0f010613          	addi	a2,sp,240
   14f74:	40f608b3          	sub	a7,a2,a5
   14f78:	febc0fa3          	sb	a1,-1(s8)
   14f7c:	00088993          	mv	s3,a7
   14f80:	0998cee3          	blt	a7,s9,1581c <_vfiprintf_r+0x1108>
   14f84:	00078c13          	mv	s8,a5
   14f88:	f29ff06f          	j	14eb0 <_vfiprintf_r+0x79c>
   14f8c:	020c7793          	andi	a5,s8,32
   14f90:	060792e3          	bnez	a5,157f4 <_vfiprintf_r+0x10e0>
   14f94:	010c7793          	andi	a5,s8,16
   14f98:	220790e3          	bnez	a5,159b8 <_vfiprintf_r+0x12a4>
   14f9c:	040c7793          	andi	a5,s8,64
   14fa0:	2c0790e3          	bnez	a5,15a60 <_vfiprintf_r+0x134c>
   14fa4:	200c7813          	andi	a6,s8,512
   14fa8:	200808e3          	beqz	a6,159b8 <_vfiprintf_r+0x12a4>
   14fac:	00032783          	lw	a5,0(t1)
   14fb0:	00430313          	addi	t1,t1,4
   14fb4:	01a78023          	sb	s10,0(a5)
   14fb8:	84dff06f          	j	14804 <_vfiprintf_r+0xf0>
   14fbc:	000bc603          	lbu	a2,0(s7)
   14fc0:	06c00793          	li	a5,108
   14fc4:	1ef602e3          	beq	a2,a5,159a8 <_vfiprintf_r+0x1294>
   14fc8:	010c6c13          	ori	s8,s8,16
   14fcc:	8e1ff06f          	j	148ac <_vfiprintf_r+0x198>
   14fd0:	010c6813          	ori	a6,s8,16
   14fd4:	02087793          	andi	a5,a6,32
   14fd8:	000d8693          	mv	a3,s11
   14fdc:	da0792e3          	bnez	a5,14d80 <_vfiprintf_r+0x66c>
   14fe0:	01087613          	andi	a2,a6,16
   14fe4:	00032783          	lw	a5,0(t1)
   14fe8:	00430313          	addi	t1,t1,4
   14fec:	60061863          	bnez	a2,155fc <_vfiprintf_r+0xee8>
   14ff0:	04087613          	andi	a2,a6,64
   14ff4:	60060063          	beqz	a2,155f4 <_vfiprintf_r+0xee0>
   14ff8:	01079993          	slli	s3,a5,0x10
   14ffc:	4109d993          	srai	s3,s3,0x10
   15000:	41f9dd93          	srai	s11,s3,0x1f
   15004:	000d8613          	mv	a2,s11
   15008:	d91ff06f          	j	14d98 <_vfiprintf_r+0x684>
   1500c:	000d8693          	mv	a3,s11
   15010:	010c6613          	ori	a2,s8,16
   15014:	02067793          	andi	a5,a2,32
   15018:	62078863          	beqz	a5,15648 <_vfiprintf_r+0xf34>
   1501c:	00730313          	addi	t1,t1,7
   15020:	ff837313          	andi	t1,t1,-8
   15024:	00032783          	lw	a5,0(t1)
   15028:	00432503          	lw	a0,4(t1)
   1502c:	00830313          	addi	t1,t1,8
   15030:	02010da3          	sb	zero,59(sp)
   15034:	fff00593          	li	a1,-1
   15038:	bff67813          	andi	a6,a2,-1025
   1503c:	eebc88e3          	beq	s9,a1,14f2c <_vfiprintf_r+0x818>
   15040:	00a7e5b3          	or	a1,a5,a0
   15044:	b7f67613          	andi	a2,a2,-1153
   15048:	12059ce3          	bnez	a1,15980 <_vfiprintf_r+0x126c>
   1504c:	00080893          	mv	a7,a6
   15050:	00000793          	li	a5,0
   15054:	00060813          	mv	a6,a2
   15058:	de5ff06f          	j	14e3c <_vfiprintf_r+0x728>
   1505c:	000a0513          	mv	a0,s4
   15060:	00612623          	sw	t1,12(sp)
   15064:	00e12423          	sw	a4,8(sp)
   15068:	189010ef          	jal	ra,169f0 <_localeconv_r>
   1506c:	00452783          	lw	a5,4(a0)
   15070:	00078513          	mv	a0,a5
   15074:	02f12223          	sw	a5,36(sp)
   15078:	351010ef          	jal	ra,16bc8 <strlen>
   1507c:	00050793          	mv	a5,a0
   15080:	000a0513          	mv	a0,s4
   15084:	02f12023          	sw	a5,32(sp)
   15088:	169010ef          	jal	ra,169f0 <_localeconv_r>
   1508c:	00852703          	lw	a4,8(a0)
   15090:	02012783          	lw	a5,32(sp)
   15094:	00c12303          	lw	t1,12(sp)
   15098:	00e12e23          	sw	a4,28(sp)
   1509c:	00812703          	lw	a4,8(sp)
   150a0:	b00784e3          	beqz	a5,14ba8 <_vfiprintf_r+0x494>
   150a4:	01c12783          	lw	a5,28(sp)
   150a8:	000bc603          	lbu	a2,0(s7)
   150ac:	800780e3          	beqz	a5,148ac <_vfiprintf_r+0x198>
   150b0:	0007c783          	lbu	a5,0(a5)
   150b4:	fe078c63          	beqz	a5,148ac <_vfiprintf_r+0x198>
   150b8:	400c6c13          	ori	s8,s8,1024
   150bc:	ff0ff06f          	j	148ac <_vfiprintf_r+0x198>
   150c0:	000bc603          	lbu	a2,0(s7)
   150c4:	080c6c13          	ori	s8,s8,128
   150c8:	fe4ff06f          	j	148ac <_vfiprintf_r+0x198>
   150cc:	000bc603          	lbu	a2,0(s7)
   150d0:	02a00793          	li	a5,42
   150d4:	001b8593          	addi	a1,s7,1
   150d8:	1ef606e3          	beq	a2,a5,15ac4 <_vfiprintf_r+0x13b0>
   150dc:	fd060793          	addi	a5,a2,-48
   150e0:	00900893          	li	a7,9
   150e4:	00058b93          	mv	s7,a1
   150e8:	00000c93          	li	s9,0
   150ec:	00900513          	li	a0,9
   150f0:	fcf8e063          	bltu	a7,a5,148b0 <_vfiprintf_r+0x19c>
   150f4:	000bc603          	lbu	a2,0(s7)
   150f8:	002c9593          	slli	a1,s9,0x2
   150fc:	01958cb3          	add	s9,a1,s9
   15100:	001c9c93          	slli	s9,s9,0x1
   15104:	00fc8cb3          	add	s9,s9,a5
   15108:	fd060793          	addi	a5,a2,-48
   1510c:	001b8b93          	addi	s7,s7,1
   15110:	fef572e3          	bgeu	a0,a5,150f4 <_vfiprintf_r+0x9e0>
   15114:	f9cff06f          	j	148b0 <_vfiprintf_r+0x19c>
   15118:	000bc603          	lbu	a2,0(s7)
   1511c:	001c6c13          	ori	s8,s8,1
   15120:	f8cff06f          	j	148ac <_vfiprintf_r+0x198>
   15124:	03b14783          	lbu	a5,59(sp)
   15128:	000bc603          	lbu	a2,0(s7)
   1512c:	f8079063          	bnez	a5,148ac <_vfiprintf_r+0x198>
   15130:	02000793          	li	a5,32
   15134:	02f10da3          	sb	a5,59(sp)
   15138:	f74ff06f          	j	148ac <_vfiprintf_r+0x198>
   1513c:	00100713          	li	a4,1
   15140:	04e12223          	sw	a4,68(sp)
   15144:	00088793          	mv	a5,a7
   15148:	05812623          	sw	s8,76(sp)
   1514c:	05112823          	sw	a7,80(sp)
   15150:	05112423          	sw	a7,72(sp)
   15154:	00048713          	mv	a4,s1
   15158:	00870713          	addi	a4,a4,8
   1515c:	9f1ff06f          	j	14b4c <_vfiprintf_r+0x438>
   15160:	00100513          	li	a0,1
   15164:	00000593          	li	a1,0
   15168:	00048713          	mv	a4,s1
   1516c:	abdff06f          	j	14c28 <_vfiprintf_r+0x514>
   15170:	41368db3          	sub	s11,a3,s3
   15174:	97b05ee3          	blez	s11,14af0 <_vfiprintf_r+0x3dc>
   15178:	01000593          	li	a1,16
   1517c:	13b5dce3          	bge	a1,s11,15ab4 <_vfiprintf_r+0x13a0>
   15180:	0000df17          	auipc	t5,0xd
   15184:	0ecf0f13          	addi	t5,t5,236 # 2226c <zeroes.0>
   15188:	01312a23          	sw	s3,20(sp)
   1518c:	01712c23          	sw	s7,24(sp)
   15190:	000d8993          	mv	s3,s11
   15194:	01000e93          	li	t4,16
   15198:	00700f93          	li	t6,7
   1519c:	01112423          	sw	a7,8(sp)
   151a0:	01012623          	sw	a6,12(sp)
   151a4:	00d12823          	sw	a3,16(sp)
   151a8:	00030d93          	mv	s11,t1
   151ac:	000f0b93          	mv	s7,t5
   151b0:	0180006f          	j	151c8 <_vfiprintf_r+0xab4>
   151b4:	00260513          	addi	a0,a2,2
   151b8:	00870713          	addi	a4,a4,8
   151bc:	00068613          	mv	a2,a3
   151c0:	ff098993          	addi	s3,s3,-16
   151c4:	053edc63          	bge	t4,s3,1521c <_vfiprintf_r+0xb08>
   151c8:	01078793          	addi	a5,a5,16
   151cc:	00160693          	addi	a3,a2,1
   151d0:	01772023          	sw	s7,0(a4)
   151d4:	01d72223          	sw	t4,4(a4)
   151d8:	04f12423          	sw	a5,72(sp)
   151dc:	04d12223          	sw	a3,68(sp)
   151e0:	fcdfdae3          	bge	t6,a3,151b4 <_vfiprintf_r+0xaa0>
   151e4:	1a078463          	beqz	a5,1538c <_vfiprintf_r+0xc78>
   151e8:	04010613          	addi	a2,sp,64
   151ec:	00090593          	mv	a1,s2
   151f0:	000a0513          	mv	a0,s4
   151f4:	c14ff0ef          	jal	ra,14608 <__sprint_r.part.0>
   151f8:	f6051463          	bnez	a0,14960 <_vfiprintf_r+0x24c>
   151fc:	04412603          	lw	a2,68(sp)
   15200:	01000e93          	li	t4,16
   15204:	ff098993          	addi	s3,s3,-16
   15208:	04812783          	lw	a5,72(sp)
   1520c:	00048713          	mv	a4,s1
   15210:	00160513          	addi	a0,a2,1
   15214:	00700f93          	li	t6,7
   15218:	fb3ec8e3          	blt	t4,s3,151c8 <_vfiprintf_r+0xab4>
   1521c:	000d8313          	mv	t1,s11
   15220:	000b8f13          	mv	t5,s7
   15224:	00098d93          	mv	s11,s3
   15228:	00812883          	lw	a7,8(sp)
   1522c:	00c12803          	lw	a6,12(sp)
   15230:	01012683          	lw	a3,16(sp)
   15234:	01412983          	lw	s3,20(sp)
   15238:	01812b83          	lw	s7,24(sp)
   1523c:	01b787b3          	add	a5,a5,s11
   15240:	01e72023          	sw	t5,0(a4)
   15244:	01b72223          	sw	s11,4(a4)
   15248:	04f12423          	sw	a5,72(sp)
   1524c:	04a12223          	sw	a0,68(sp)
   15250:	00700613          	li	a2,7
   15254:	58a65863          	bge	a2,a0,157e4 <_vfiprintf_r+0x10d0>
   15258:	78078e63          	beqz	a5,159f4 <_vfiprintf_r+0x12e0>
   1525c:	04010613          	addi	a2,sp,64
   15260:	00090593          	mv	a1,s2
   15264:	000a0513          	mv	a0,s4
   15268:	00612a23          	sw	t1,20(sp)
   1526c:	00d12823          	sw	a3,16(sp)
   15270:	01012623          	sw	a6,12(sp)
   15274:	01112423          	sw	a7,8(sp)
   15278:	b90ff0ef          	jal	ra,14608 <__sprint_r.part.0>
   1527c:	ee051263          	bnez	a0,14960 <_vfiprintf_r+0x24c>
   15280:	00812883          	lw	a7,8(sp)
   15284:	04412603          	lw	a2,68(sp)
   15288:	04812783          	lw	a5,72(sp)
   1528c:	411c8cb3          	sub	s9,s9,a7
   15290:	01412303          	lw	t1,20(sp)
   15294:	01012683          	lw	a3,16(sp)
   15298:	00c12803          	lw	a6,12(sp)
   1529c:	00048713          	mv	a4,s1
   152a0:	00160e93          	addi	t4,a2,1
   152a4:	85905ae3          	blez	s9,14af8 <_vfiprintf_r+0x3e4>
   152a8:	0000df17          	auipc	t5,0xd
   152ac:	fc4f0f13          	addi	t5,t5,-60 # 2226c <zeroes.0>
   152b0:	0b945263          	bge	s0,s9,15354 <_vfiprintf_r+0xc40>
   152b4:	01312a23          	sw	s3,20(sp)
   152b8:	00700d93          	li	s11,7
   152bc:	000c8993          	mv	s3,s9
   152c0:	01112423          	sw	a7,8(sp)
   152c4:	01012623          	sw	a6,12(sp)
   152c8:	00d12823          	sw	a3,16(sp)
   152cc:	00612c23          	sw	t1,24(sp)
   152d0:	000a8c93          	mv	s9,s5
   152d4:	0180006f          	j	152ec <_vfiprintf_r+0xbd8>
   152d8:	00260e93          	addi	t4,a2,2
   152dc:	00870713          	addi	a4,a4,8
   152e0:	00068613          	mv	a2,a3
   152e4:	ff098993          	addi	s3,s3,-16
   152e8:	05345863          	bge	s0,s3,15338 <_vfiprintf_r+0xc24>
   152ec:	01078793          	addi	a5,a5,16
   152f0:	00160693          	addi	a3,a2,1
   152f4:	01572023          	sw	s5,0(a4)
   152f8:	00872223          	sw	s0,4(a4)
   152fc:	04f12423          	sw	a5,72(sp)
   15300:	04d12223          	sw	a3,68(sp)
   15304:	fcdddae3          	bge	s11,a3,152d8 <_vfiprintf_r+0xbc4>
   15308:	06078a63          	beqz	a5,1537c <_vfiprintf_r+0xc68>
   1530c:	04010613          	addi	a2,sp,64
   15310:	00090593          	mv	a1,s2
   15314:	000a0513          	mv	a0,s4
   15318:	af0ff0ef          	jal	ra,14608 <__sprint_r.part.0>
   1531c:	e4051263          	bnez	a0,14960 <_vfiprintf_r+0x24c>
   15320:	04412603          	lw	a2,68(sp)
   15324:	ff098993          	addi	s3,s3,-16
   15328:	04812783          	lw	a5,72(sp)
   1532c:	00048713          	mv	a4,s1
   15330:	00160e93          	addi	t4,a2,1
   15334:	fb344ce3          	blt	s0,s3,152ec <_vfiprintf_r+0xbd8>
   15338:	000c8f13          	mv	t5,s9
   1533c:	00812883          	lw	a7,8(sp)
   15340:	00098c93          	mv	s9,s3
   15344:	00c12803          	lw	a6,12(sp)
   15348:	01012683          	lw	a3,16(sp)
   1534c:	01812303          	lw	t1,24(sp)
   15350:	01412983          	lw	s3,20(sp)
   15354:	019787b3          	add	a5,a5,s9
   15358:	01e72023          	sw	t5,0(a4)
   1535c:	01972223          	sw	s9,4(a4)
   15360:	04f12423          	sw	a5,72(sp)
   15364:	05d12223          	sw	t4,68(sp)
   15368:	00700613          	li	a2,7
   1536c:	23d64863          	blt	a2,t4,1559c <_vfiprintf_r+0xe88>
   15370:	00870713          	addi	a4,a4,8
   15374:	001e8e93          	addi	t4,t4,1
   15378:	f80ff06f          	j	14af8 <_vfiprintf_r+0x3e4>
   1537c:	00100e93          	li	t4,1
   15380:	00000613          	li	a2,0
   15384:	00048713          	mv	a4,s1
   15388:	f5dff06f          	j	152e4 <_vfiprintf_r+0xbd0>
   1538c:	00100513          	li	a0,1
   15390:	00000613          	li	a2,0
   15394:	00048713          	mv	a4,s1
   15398:	e29ff06f          	j	151c0 <_vfiprintf_r+0xaac>
   1539c:	04078e63          	beqz	a5,153f8 <_vfiprintf_r+0xce4>
   153a0:	04010613          	addi	a2,sp,64
   153a4:	00090593          	mv	a1,s2
   153a8:	000a0513          	mv	a0,s4
   153ac:	02612423          	sw	t1,40(sp)
   153b0:	00d12c23          	sw	a3,24(sp)
   153b4:	01012a23          	sw	a6,20(sp)
   153b8:	01112823          	sw	a7,16(sp)
   153bc:	00512623          	sw	t0,12(sp)
   153c0:	01f12423          	sw	t6,8(sp)
   153c4:	a44ff0ef          	jal	ra,14608 <__sprint_r.part.0>
   153c8:	d8051c63          	bnez	a0,14960 <_vfiprintf_r+0x24c>
   153cc:	04412603          	lw	a2,68(sp)
   153d0:	04812783          	lw	a5,72(sp)
   153d4:	02812303          	lw	t1,40(sp)
   153d8:	01812683          	lw	a3,24(sp)
   153dc:	01412803          	lw	a6,20(sp)
   153e0:	01012883          	lw	a7,16(sp)
   153e4:	00c12283          	lw	t0,12(sp)
   153e8:	00812f83          	lw	t6,8(sp)
   153ec:	00048713          	mv	a4,s1
   153f0:	00160e93          	addi	t4,a2,1
   153f4:	e7cff06f          	j	14a70 <_vfiprintf_r+0x35c>
   153f8:	400f8a63          	beqz	t6,1580c <_vfiprintf_r+0x10f8>
   153fc:	03c10793          	addi	a5,sp,60
   15400:	04f12623          	sw	a5,76(sp)
   15404:	00200793          	li	a5,2
   15408:	04f12823          	sw	a5,80(sp)
   1540c:	00100e93          	li	t4,1
   15410:	00048713          	mv	a4,s1
   15414:	000e8613          	mv	a2,t4
   15418:	00870713          	addi	a4,a4,8
   1541c:	001e8e93          	addi	t4,t4,1
   15420:	ec8ff06f          	j	14ae8 <_vfiprintf_r+0x3d4>
   15424:	00200613          	li	a2,2
   15428:	00058813          	mv	a6,a1
   1542c:	b00600e3          	beqz	a2,14f2c <_vfiprintf_r+0x818>
   15430:	00412883          	lw	a7,4(sp)
   15434:	0f010c13          	addi	s8,sp,240
   15438:	00f7f613          	andi	a2,a5,15
   1543c:	00c88633          	add	a2,a7,a2
   15440:	00064583          	lbu	a1,0(a2)
   15444:	0047d793          	srli	a5,a5,0x4
   15448:	01c51613          	slli	a2,a0,0x1c
   1544c:	00f667b3          	or	a5,a2,a5
   15450:	00455513          	srli	a0,a0,0x4
   15454:	febc0fa3          	sb	a1,-1(s8)
   15458:	00a7e633          	or	a2,a5,a0
   1545c:	fffc0c13          	addi	s8,s8,-1
   15460:	fc061ce3          	bnez	a2,15438 <_vfiprintf_r+0xd24>
   15464:	0f010793          	addi	a5,sp,240
   15468:	418788b3          	sub	a7,a5,s8
   1546c:	00088993          	mv	s3,a7
   15470:	a598d0e3          	bge	a7,s9,14eb0 <_vfiprintf_r+0x79c>
   15474:	000c8993          	mv	s3,s9
   15478:	a39ff06f          	j	14eb0 <_vfiprintf_r+0x79c>
   1547c:	01000513          	li	a0,16
   15480:	61b55663          	bge	a0,s11,15a8c <_vfiprintf_r+0x1378>
   15484:	0000de97          	auipc	t4,0xd
   15488:	df8e8e93          	addi	t4,t4,-520 # 2227c <blanks.1>
   1548c:	03312423          	sw	s3,40(sp)
   15490:	03712623          	sw	s7,44(sp)
   15494:	000d8993          	mv	s3,s11
   15498:	01000f13          	li	t5,16
   1549c:	00700393          	li	t2,7
   154a0:	01f12423          	sw	t6,8(sp)
   154a4:	00512623          	sw	t0,12(sp)
   154a8:	01112823          	sw	a7,16(sp)
   154ac:	01012a23          	sw	a6,20(sp)
   154b0:	00d12c23          	sw	a3,24(sp)
   154b4:	00030d93          	mv	s11,t1
   154b8:	000e8b93          	mv	s7,t4
   154bc:	01c0006f          	j	154d8 <_vfiprintf_r+0xdc4>
   154c0:	00260513          	addi	a0,a2,2
   154c4:	00870713          	addi	a4,a4,8
   154c8:	00058613          	mv	a2,a1
   154cc:	ff098993          	addi	s3,s3,-16
   154d0:	053f5c63          	bge	t5,s3,15528 <_vfiprintf_r+0xe14>
   154d4:	00160593          	addi	a1,a2,1
   154d8:	01078793          	addi	a5,a5,16
   154dc:	01772023          	sw	s7,0(a4)
   154e0:	01e72223          	sw	t5,4(a4)
   154e4:	04f12423          	sw	a5,72(sp)
   154e8:	04b12223          	sw	a1,68(sp)
   154ec:	fcb3dae3          	bge	t2,a1,154c0 <_vfiprintf_r+0xdac>
   154f0:	08078663          	beqz	a5,1557c <_vfiprintf_r+0xe68>
   154f4:	04010613          	addi	a2,sp,64
   154f8:	00090593          	mv	a1,s2
   154fc:	000a0513          	mv	a0,s4
   15500:	908ff0ef          	jal	ra,14608 <__sprint_r.part.0>
   15504:	c4051e63          	bnez	a0,14960 <_vfiprintf_r+0x24c>
   15508:	04412603          	lw	a2,68(sp)
   1550c:	01000f13          	li	t5,16
   15510:	ff098993          	addi	s3,s3,-16
   15514:	04812783          	lw	a5,72(sp)
   15518:	00048713          	mv	a4,s1
   1551c:	00160513          	addi	a0,a2,1
   15520:	00700393          	li	t2,7
   15524:	fb3f48e3          	blt	t5,s3,154d4 <_vfiprintf_r+0xdc0>
   15528:	000d8313          	mv	t1,s11
   1552c:	000b8e93          	mv	t4,s7
   15530:	00098d93          	mv	s11,s3
   15534:	00812f83          	lw	t6,8(sp)
   15538:	00c12283          	lw	t0,12(sp)
   1553c:	01012883          	lw	a7,16(sp)
   15540:	01412803          	lw	a6,20(sp)
   15544:	01812683          	lw	a3,24(sp)
   15548:	02812983          	lw	s3,40(sp)
   1554c:	02c12b83          	lw	s7,44(sp)
   15550:	01b787b3          	add	a5,a5,s11
   15554:	01d72023          	sw	t4,0(a4)
   15558:	01b72223          	sw	s11,4(a4)
   1555c:	04f12423          	sw	a5,72(sp)
   15560:	04a12223          	sw	a0,68(sp)
   15564:	00700613          	li	a2,7
   15568:	12a64463          	blt	a2,a0,15690 <_vfiprintf_r+0xf7c>
